ARM GAS  C:\Users\SHOZO\AppData\Local\Temp\ccpYscuc.s 			page 1


   1              		.syntax unified
   2              		.cpu cortex-m0
   3              		.fpu softvfp
   4              		.eabi_attribute 20, 1
   5              		.eabi_attribute 21, 1
   6              		.eabi_attribute 23, 3
   7              		.eabi_attribute 24, 1
   8              		.eabi_attribute 25, 1
   9              		.eabi_attribute 26, 1
  10              		.eabi_attribute 30, 6
  11              		.eabi_attribute 34, 0
  12              		.eabi_attribute 18, 4
  13              		.thumb
  14              		.syntax unified
  15              		.file	"CapSense_CSD.c"
  16              		.text
  17              	.Ltext0:
  18              		.cfi_sections	.debug_frame
  19              		.global	CapSense_CSD_prescalersTuningDone
  20              		.bss
  21              		.type	CapSense_CSD_prescalersTuningDone, %object
  22              		.size	CapSense_CSD_prescalersTuningDone, 1
  23              	CapSense_CSD_prescalersTuningDone:
  24 0000 00       		.space	1
  25              		.global	CapSense_CSD_csdStatusVar
  26              		.type	CapSense_CSD_csdStatusVar, %object
  27              		.size	CapSense_CSD_csdStatusVar, 1
  28              	CapSense_CSD_csdStatusVar:
  29 0001 00       		.space	1
  30              		.global	CapSense_CSD_sensorIndex
  31              		.type	CapSense_CSD_sensorIndex, %object
  32              		.size	CapSense_CSD_sensorIndex, 1
  33              	CapSense_CSD_sensorIndex:
  34 0002 00       		.space	1
  35              		.global	CapSense_CSD_sensorRaw
  36 0003 00       		.align	2
  37              		.type	CapSense_CSD_sensorRaw, %object
  38              		.size	CapSense_CSD_sensorRaw, 26
  39              	CapSense_CSD_sensorRaw:
  40 0004 00000000 		.space	26
  40      00000000 
  40      00000000 
  40      00000000 
  40      00000000 
  41              		.comm	CapSense_CSD_csdTrim1,1,1
  42              		.comm	CapSense_CSD_unscannedSnsDriveMode,13,4
  43              		.comm	CapSense_CSD_sensorEnableMaskBackup,2,4
  44              		.global	CapSense_CSD_sensorEnableMask
  45              		.data
  46              		.align	2
  47              		.type	CapSense_CSD_sensorEnableMask, %object
  48              		.size	CapSense_CSD_sensorEnableMask, 2
  49              	CapSense_CSD_sensorEnableMask:
  50 0000 FF       		.byte	-1
  51 0001 1F       		.byte	31
  52              		.global	CapSense_CSD_pcTable
  53 0002 0000     		.align	2
ARM GAS  C:\Users\SHOZO\AppData\Local\Temp\ccpYscuc.s 			page 2


  54              		.type	CapSense_CSD_pcTable, %object
  55              		.size	CapSense_CSD_pcTable, 52
  56              	CapSense_CSD_pcTable:
  57 0004 08000440 		.word	1074003976
  58 0008 08010440 		.word	1074004232
  59 000c 08010440 		.word	1074004232
  60 0010 08010440 		.word	1074004232
  61 0014 08010440 		.word	1074004232
  62 0018 08020440 		.word	1074004488
  63 001c 08020440 		.word	1074004488
  64 0020 08020440 		.word	1074004488
  65 0024 08020440 		.word	1074004488
  66 0028 08020440 		.word	1074004488
  67 002c 08020440 		.word	1074004488
  68 0030 08000440 		.word	1074003976
  69 0034 08030440 		.word	1074004744
  70              		.global	CapSense_CSD_portTable
  71              		.section	.rodata
  72              		.align	2
  73              		.type	CapSense_CSD_portTable, %object
  74              		.size	CapSense_CSD_portTable, 13
  75              	CapSense_CSD_portTable:
  76 0000 00       		.byte	0
  77 0001 01       		.byte	1
  78 0002 01       		.byte	1
  79 0003 01       		.byte	1
  80 0004 01       		.byte	1
  81 0005 02       		.byte	2
  82 0006 02       		.byte	2
  83 0007 02       		.byte	2
  84 0008 02       		.byte	2
  85 0009 02       		.byte	2
  86 000a 02       		.byte	2
  87 000b 00       		.byte	0
  88 000c 03       		.byte	3
  89              		.global	CapSense_CSD_maskTable
  90 000d 000000   		.align	2
  91              		.type	CapSense_CSD_maskTable, %object
  92              		.size	CapSense_CSD_maskTable, 52
  93              	CapSense_CSD_maskTable:
  94 0010 40000000 		.word	64
  95 0014 01000000 		.word	1
  96 0018 02000000 		.word	2
  97 001c 04000000 		.word	4
  98 0020 80000000 		.word	128
  99 0024 04000000 		.word	4
 100 0028 08000000 		.word	8
 101 002c 10000000 		.word	16
 102 0030 20000000 		.word	32
 103 0034 40000000 		.word	64
 104 0038 80000000 		.word	128
 105 003c 80000000 		.word	128
 106 0040 01000000 		.word	1
 107              		.global	CapSense_CSD_pinShiftTbl
 108              		.align	2
 109              		.type	CapSense_CSD_pinShiftTbl, %object
 110              		.size	CapSense_CSD_pinShiftTbl, 13
ARM GAS  C:\Users\SHOZO\AppData\Local\Temp\ccpYscuc.s 			page 3


 111              	CapSense_CSD_pinShiftTbl:
 112 0044 06       		.byte	6
 113 0045 00       		.byte	0
 114 0046 01       		.byte	1
 115 0047 02       		.byte	2
 116 0048 07       		.byte	7
 117 0049 02       		.byte	2
 118 004a 03       		.byte	3
 119 004b 04       		.byte	4
 120 004c 05       		.byte	5
 121 004d 06       		.byte	6
 122 004e 07       		.byte	7
 123 004f 07       		.byte	7
 124 0050 00       		.byte	0
 125              		.global	CapSense_CSD_modulationIDAC
 126              		.data
 127              		.align	2
 128              		.type	CapSense_CSD_modulationIDAC, %object
 129              		.size	CapSense_CSD_modulationIDAC, 13
 130              	CapSense_CSD_modulationIDAC:
 131 0038 50       		.byte	80
 132 0039 50       		.byte	80
 133 003a 50       		.byte	80
 134 003b 50       		.byte	80
 135 003c 50       		.byte	80
 136 003d 50       		.byte	80
 137 003e 50       		.byte	80
 138 003f 50       		.byte	80
 139 0040 50       		.byte	80
 140 0041 50       		.byte	80
 141 0042 50       		.byte	80
 142 0043 50       		.byte	80
 143 0044 50       		.byte	80
 144              		.global	CapSense_CSD_compensationIDAC
 145 0045 000000   		.align	2
 146              		.type	CapSense_CSD_compensationIDAC, %object
 147              		.size	CapSense_CSD_compensationIDAC, 13
 148              	CapSense_CSD_compensationIDAC:
 149 0048 50       		.byte	80
 150 0049 50       		.byte	80
 151 004a 50       		.byte	80
 152 004b 50       		.byte	80
 153 004c 50       		.byte	80
 154 004d 50       		.byte	80
 155 004e 50       		.byte	80
 156 004f 50       		.byte	80
 157 0050 50       		.byte	80
 158 0051 50       		.byte	80
 159 0052 50       		.byte	80
 160 0053 50       		.byte	80
 161 0054 50       		.byte	80
 162              		.global	CapSense_CSD_widgetResolution
 163 0055 000000   		.align	2
 164              		.type	CapSense_CSD_widgetResolution, %object
 165              		.size	CapSense_CSD_widgetResolution, 52
 166              	CapSense_CSD_widgetResolution:
 167 0058 0000FFFF 		.word	-65536
ARM GAS  C:\Users\SHOZO\AppData\Local\Temp\ccpYscuc.s 			page 4


 168 005c 0000FFFF 		.word	-65536
 169 0060 0000FFFF 		.word	-65536
 170 0064 0000FFFF 		.word	-65536
 171 0068 0000FFFF 		.word	-65536
 172 006c 0000FFFF 		.word	-65536
 173 0070 0000FFFF 		.word	-65536
 174 0074 0000FFFF 		.word	-65536
 175 0078 0000FFFF 		.word	-65536
 176 007c 0000FFFF 		.word	-65536
 177 0080 0000FFFF 		.word	-65536
 178 0084 0000FFFF 		.word	-65536
 179 0088 0000FFFF 		.word	-65536
 180              		.global	CapSense_CSD_senseClkDividerVal
 181              		.align	2
 182              		.type	CapSense_CSD_senseClkDividerVal, %object
 183              		.size	CapSense_CSD_senseClkDividerVal, 13
 184              	CapSense_CSD_senseClkDividerVal:
 185 008c 01       		.byte	1
 186 008d 01       		.byte	1
 187 008e 01       		.byte	1
 188 008f 01       		.byte	1
 189 0090 01       		.byte	1
 190 0091 01       		.byte	1
 191 0092 01       		.byte	1
 192 0093 01       		.byte	1
 193 0094 01       		.byte	1
 194 0095 01       		.byte	1
 195 0096 01       		.byte	1
 196 0097 01       		.byte	1
 197 0098 01       		.byte	1
 198              		.global	CapSense_CSD_sampleClkDividerVal
 199 0099 000000   		.align	2
 200              		.type	CapSense_CSD_sampleClkDividerVal, %object
 201              		.size	CapSense_CSD_sampleClkDividerVal, 13
 202              	CapSense_CSD_sampleClkDividerVal:
 203 009c 02       		.byte	2
 204 009d 02       		.byte	2
 205 009e 02       		.byte	2
 206 009f 02       		.byte	2
 207 00a0 02       		.byte	2
 208 00a1 02       		.byte	2
 209 00a2 02       		.byte	2
 210 00a3 02       		.byte	2
 211 00a4 02       		.byte	2
 212 00a5 02       		.byte	2
 213 00a6 02       		.byte	2
 214 00a7 02       		.byte	2
 215 00a8 02       		.byte	2
 216              		.global	CapSense_CSD_widgetNumber
 217              		.section	.rodata
 218 0051 000000   		.align	2
 219              		.type	CapSense_CSD_widgetNumber, %object
 220              		.size	CapSense_CSD_widgetNumber, 13
 221              	CapSense_CSD_widgetNumber:
 222 0054 00       		.byte	0
 223 0055 01       		.byte	1
 224 0056 02       		.byte	2
ARM GAS  C:\Users\SHOZO\AppData\Local\Temp\ccpYscuc.s 			page 5


 225 0057 03       		.byte	3
 226 0058 04       		.byte	4
 227 0059 05       		.byte	5
 228 005a 06       		.byte	6
 229 005b 07       		.byte	7
 230 005c 08       		.byte	8
 231 005d 09       		.byte	9
 232 005e 0A       		.byte	10
 233 005f 0B       		.byte	11
 234 0060 0C       		.byte	12
 235              		.global	CapSense_CSD_prtSelTbl
 236 0061 000000   		.align	2
 237              		.type	CapSense_CSD_prtSelTbl, %object
 238              		.size	CapSense_CSD_prtSelTbl, 20
 239              	CapSense_CSD_prtSelTbl:
 240 0064 00000140 		.word	1073807360
 241 0068 04000140 		.word	1073807364
 242 006c 08000140 		.word	1073807368
 243 0070 0C000140 		.word	1073807372
 244 0074 10000140 		.word	1073807376
 245              		.global	CapSense_CSD_prtCfgTbl
 246              		.align	2
 247              		.type	CapSense_CSD_prtCfgTbl, %object
 248              		.size	CapSense_CSD_prtCfgTbl, 20
 249              	CapSense_CSD_prtCfgTbl:
 250 0078 08000440 		.word	1074003976
 251 007c 08010440 		.word	1074004232
 252 0080 08020440 		.word	1074004488
 253 0084 08030440 		.word	1074004744
 254 0088 08040440 		.word	1074005000
 255              		.global	CapSense_CSD_prtDRTbl
 256              		.align	2
 257              		.type	CapSense_CSD_prtDRTbl, %object
 258              		.size	CapSense_CSD_prtDRTbl, 20
 259              	CapSense_CSD_prtDRTbl:
 260 008c 00000440 		.word	1074003968
 261 0090 00010440 		.word	1074004224
 262 0094 00020440 		.word	1074004480
 263 0098 00030440 		.word	1074004736
 264 009c 00040440 		.word	1074004992
 265              		.section	.text.CapSense_CSD_Init,"ax",%progbits
 266              		.align	2
 267              		.global	CapSense_CSD_Init
 268              		.code	16
 269              		.thumb_func
 270              		.type	CapSense_CSD_Init, %function
 271              	CapSense_CSD_Init:
 272              	.LFB32:
 273              		.file 1 "Generated_Source\\PSoC4\\CapSense_CSD.c"
   1:Generated_Source\PSoC4/CapSense_CSD.c **** /*******************************************************************************
   2:Generated_Source\PSoC4/CapSense_CSD.c **** * File Name: CapSense_CSD.c
   3:Generated_Source\PSoC4/CapSense_CSD.c **** * Version 2.60
   4:Generated_Source\PSoC4/CapSense_CSD.c **** *
   5:Generated_Source\PSoC4/CapSense_CSD.c **** * Description:
   6:Generated_Source\PSoC4/CapSense_CSD.c **** *  This file provides the source code for scanning APIs for the CapSense CSD
   7:Generated_Source\PSoC4/CapSense_CSD.c **** *  component.
   8:Generated_Source\PSoC4/CapSense_CSD.c **** *
ARM GAS  C:\Users\SHOZO\AppData\Local\Temp\ccpYscuc.s 			page 6


   9:Generated_Source\PSoC4/CapSense_CSD.c **** * Note:
  10:Generated_Source\PSoC4/CapSense_CSD.c **** *
  11:Generated_Source\PSoC4/CapSense_CSD.c **** ********************************************************************************
  12:Generated_Source\PSoC4/CapSense_CSD.c **** * Copyright 2013-2016, Cypress Semiconductor Corporation.  All rights reserved.
  13:Generated_Source\PSoC4/CapSense_CSD.c **** * You may use this file only in accordance with the license, terms, conditions,
  14:Generated_Source\PSoC4/CapSense_CSD.c **** * disclaimers, and limitations in the end user license agreement accompanying
  15:Generated_Source\PSoC4/CapSense_CSD.c **** * the software package with which this file was provided.
  16:Generated_Source\PSoC4/CapSense_CSD.c **** *******************************************************************************/
  17:Generated_Source\PSoC4/CapSense_CSD.c **** 
  18:Generated_Source\PSoC4/CapSense_CSD.c **** #include "CapSense_CSD.h"
  19:Generated_Source\PSoC4/CapSense_CSD.c **** #include "CapSense_CSD_PVT.h"
  20:Generated_Source\PSoC4/CapSense_CSD.c **** #include "cypins.h"
  21:Generated_Source\PSoC4/CapSense_CSD.c **** #include "cyapicallbacks.h"
  22:Generated_Source\PSoC4/CapSense_CSD.c **** 
  23:Generated_Source\PSoC4/CapSense_CSD.c **** #if(0u != CapSense_CSD_CSHL_API_GENERATE)
  24:Generated_Source\PSoC4/CapSense_CSD.c ****     #include "CapSense_CSD_CSHL.h"
  25:Generated_Source\PSoC4/CapSense_CSD.c **** #endif /* (0u != CapSense_CSD_CSHL_API_GENERATE) */
  26:Generated_Source\PSoC4/CapSense_CSD.c **** 
  27:Generated_Source\PSoC4/CapSense_CSD.c **** /* This definition is intended to prevent unexpected linker error.
  28:Generated_Source\PSoC4/CapSense_CSD.c ****    For more details please see the IAR Technical Note 49981 */
  29:Generated_Source\PSoC4/CapSense_CSD.c **** #if defined(__ICCARM__)
  30:Generated_Source\PSoC4/CapSense_CSD.c ****     extern void CapSense_CSD_EnableSensor(uint32 sensor);
  31:Generated_Source\PSoC4/CapSense_CSD.c ****     extern void CapSense_CSD_DisableSensor(uint32 sensor);
  32:Generated_Source\PSoC4/CapSense_CSD.c **** #endif /* (__ICCARM__) */
  33:Generated_Source\PSoC4/CapSense_CSD.c **** 
  34:Generated_Source\PSoC4/CapSense_CSD.c **** /* SmartSense functions */
  35:Generated_Source\PSoC4/CapSense_CSD.c **** #if (CapSense_CSD_TUNING_METHOD == CapSense_CSD__TUNING_AUTO)
  36:Generated_Source\PSoC4/CapSense_CSD.c ****     uint8 CapSense_CSD_lowLevelTuningDone = 0u;
  37:Generated_Source\PSoC4/CapSense_CSD.c ****     uint8 CapSense_CSD_scanSpeedTbl[((CapSense_CSD_TOTAL_SENSOR_COUNT - 1u) / 8u) + 1u];
  38:Generated_Source\PSoC4/CapSense_CSD.c **** #endif /* (CapSense_CSD_TUNING_METHOD == CapSense_CSD__TUNING_AUTO) */
  39:Generated_Source\PSoC4/CapSense_CSD.c **** 
  40:Generated_Source\PSoC4/CapSense_CSD.c **** #if(CapSense_CSD_PRS_OPTIONS != CapSense_CSD__PRS_NONE)
  41:Generated_Source\PSoC4/CapSense_CSD.c ****     uint8 CapSense_CSD_prescalersTuningDone = 0u;
  42:Generated_Source\PSoC4/CapSense_CSD.c **** #endif /* (CapSense_CSD_PRS_OPTIONS == CapSense_CSD__PRS_NONE) */
  43:Generated_Source\PSoC4/CapSense_CSD.c **** 
  44:Generated_Source\PSoC4/CapSense_CSD.c **** /* Global software variables */
  45:Generated_Source\PSoC4/CapSense_CSD.c **** volatile uint8 CapSense_CSD_csdStatusVar = 0u;   /* CapSense CSD status, variable */
  46:Generated_Source\PSoC4/CapSense_CSD.c **** volatile uint8 CapSense_CSD_sensorIndex = 0u;    /* Index of scannig sensor */
  47:Generated_Source\PSoC4/CapSense_CSD.c **** 
  48:Generated_Source\PSoC4/CapSense_CSD.c **** /* Global array of Raw Counts */
  49:Generated_Source\PSoC4/CapSense_CSD.c **** uint16 CapSense_CSD_sensorRaw[CapSense_CSD_TOTAL_SENSOR_COUNT] = {0u};
  50:Generated_Source\PSoC4/CapSense_CSD.c **** 
  51:Generated_Source\PSoC4/CapSense_CSD.c **** /* Backup variables for trim registers*/
  52:Generated_Source\PSoC4/CapSense_CSD.c **** #if (CapSense_CSD_IDAC1_POLARITY == CapSense_CSD__IDAC_SINK)
  53:Generated_Source\PSoC4/CapSense_CSD.c ****     uint8 CapSense_CSD_csdTrim2;
  54:Generated_Source\PSoC4/CapSense_CSD.c **** #else
  55:Generated_Source\PSoC4/CapSense_CSD.c ****     uint8 CapSense_CSD_csdTrim1;
  56:Generated_Source\PSoC4/CapSense_CSD.c **** #endif /* (CapSense_CSD_IDAC1_POLARITY == CapSense_CSD__IDAC_SINK) */
  57:Generated_Source\PSoC4/CapSense_CSD.c **** 
  58:Generated_Source\PSoC4/CapSense_CSD.c **** /* Global array of un-scanned sensors state */
  59:Generated_Source\PSoC4/CapSense_CSD.c **** uint8 CapSense_CSD_unscannedSnsDriveMode[CapSense_CSD_PORT_PIN_CONFIG_TBL_ZISE];
  60:Generated_Source\PSoC4/CapSense_CSD.c **** 
  61:Generated_Source\PSoC4/CapSense_CSD.c **** /* Backup array for CapSense_CSD_sensorEnableMask */
  62:Generated_Source\PSoC4/CapSense_CSD.c **** uint8 CapSense_CSD_sensorEnableMaskBackup[(((CapSense_CSD_TOTAL_SENSOR_COUNT - 1u) / 8u) + 1u)];
  63:Generated_Source\PSoC4/CapSense_CSD.c **** 
  64:Generated_Source\PSoC4/CapSense_CSD.c **** /* Configured constants and arrays by Customizer */
  65:Generated_Source\PSoC4/CapSense_CSD.c **** uint8 CapSense_CSD_sensorEnableMask[(((CapSense_CSD_TOTAL_SENSOR_COUNT - 1u) / 8u) + 1u)] = {
ARM GAS  C:\Users\SHOZO\AppData\Local\Temp\ccpYscuc.s 			page 7


  66:Generated_Source\PSoC4/CapSense_CSD.c **** 0xFFu, 0x1Fu, };
  67:Generated_Source\PSoC4/CapSense_CSD.c **** 
  68:Generated_Source\PSoC4/CapSense_CSD.c **** reg32 * CapSense_CSD_pcTable[] = {
  69:Generated_Source\PSoC4/CapSense_CSD.c ****     (reg32 *)CapSense_CSD_Sns__Button0__BTN__PC, 
  70:Generated_Source\PSoC4/CapSense_CSD.c ****     (reg32 *)CapSense_CSD_Sns__Button1__BTN__PC, 
  71:Generated_Source\PSoC4/CapSense_CSD.c ****     (reg32 *)CapSense_CSD_Sns__Button2__BTN__PC, 
  72:Generated_Source\PSoC4/CapSense_CSD.c ****     (reg32 *)CapSense_CSD_Sns__Button3__BTN__PC, 
  73:Generated_Source\PSoC4/CapSense_CSD.c ****     (reg32 *)CapSense_CSD_Sns__Button4__BTN__PC, 
  74:Generated_Source\PSoC4/CapSense_CSD.c ****     (reg32 *)CapSense_CSD_Sns__Button5__BTN__PC, 
  75:Generated_Source\PSoC4/CapSense_CSD.c ****     (reg32 *)CapSense_CSD_Sns__Button6__BTN__PC, 
  76:Generated_Source\PSoC4/CapSense_CSD.c ****     (reg32 *)CapSense_CSD_Sns__Button7__BTN__PC, 
  77:Generated_Source\PSoC4/CapSense_CSD.c ****     (reg32 *)CapSense_CSD_Sns__Button8__BTN__PC, 
  78:Generated_Source\PSoC4/CapSense_CSD.c ****     (reg32 *)CapSense_CSD_Sns__Button9__BTN__PC, 
  79:Generated_Source\PSoC4/CapSense_CSD.c ****     (reg32 *)CapSense_CSD_Sns__Button10__BTN__PC, 
  80:Generated_Source\PSoC4/CapSense_CSD.c ****     (reg32 *)CapSense_CSD_Sns__Button11__BTN__PC, 
  81:Generated_Source\PSoC4/CapSense_CSD.c ****     (reg32 *)CapSense_CSD_Sns__Button12__BTN__PC, 
  82:Generated_Source\PSoC4/CapSense_CSD.c **** };
  83:Generated_Source\PSoC4/CapSense_CSD.c **** 
  84:Generated_Source\PSoC4/CapSense_CSD.c **** const uint8 CapSense_CSD_portTable[] = {
  85:Generated_Source\PSoC4/CapSense_CSD.c ****     CapSense_CSD_Sns__Button0__BTN__PORT, 
  86:Generated_Source\PSoC4/CapSense_CSD.c ****     CapSense_CSD_Sns__Button1__BTN__PORT, 
  87:Generated_Source\PSoC4/CapSense_CSD.c ****     CapSense_CSD_Sns__Button2__BTN__PORT, 
  88:Generated_Source\PSoC4/CapSense_CSD.c ****     CapSense_CSD_Sns__Button3__BTN__PORT, 
  89:Generated_Source\PSoC4/CapSense_CSD.c ****     CapSense_CSD_Sns__Button4__BTN__PORT, 
  90:Generated_Source\PSoC4/CapSense_CSD.c ****     CapSense_CSD_Sns__Button5__BTN__PORT, 
  91:Generated_Source\PSoC4/CapSense_CSD.c ****     CapSense_CSD_Sns__Button6__BTN__PORT, 
  92:Generated_Source\PSoC4/CapSense_CSD.c ****     CapSense_CSD_Sns__Button7__BTN__PORT, 
  93:Generated_Source\PSoC4/CapSense_CSD.c ****     CapSense_CSD_Sns__Button8__BTN__PORT, 
  94:Generated_Source\PSoC4/CapSense_CSD.c ****     CapSense_CSD_Sns__Button9__BTN__PORT, 
  95:Generated_Source\PSoC4/CapSense_CSD.c ****     CapSense_CSD_Sns__Button10__BTN__PORT, 
  96:Generated_Source\PSoC4/CapSense_CSD.c ****     CapSense_CSD_Sns__Button11__BTN__PORT, 
  97:Generated_Source\PSoC4/CapSense_CSD.c ****     CapSense_CSD_Sns__Button12__BTN__PORT, 
  98:Generated_Source\PSoC4/CapSense_CSD.c **** };
  99:Generated_Source\PSoC4/CapSense_CSD.c **** 
 100:Generated_Source\PSoC4/CapSense_CSD.c **** const uint32 CapSense_CSD_maskTable[] = {
 101:Generated_Source\PSoC4/CapSense_CSD.c ****     CapSense_CSD_Sns__Button0__BTN__MASK, 
 102:Generated_Source\PSoC4/CapSense_CSD.c ****     CapSense_CSD_Sns__Button1__BTN__MASK, 
 103:Generated_Source\PSoC4/CapSense_CSD.c ****     CapSense_CSD_Sns__Button2__BTN__MASK, 
 104:Generated_Source\PSoC4/CapSense_CSD.c ****     CapSense_CSD_Sns__Button3__BTN__MASK, 
 105:Generated_Source\PSoC4/CapSense_CSD.c ****     CapSense_CSD_Sns__Button4__BTN__MASK, 
 106:Generated_Source\PSoC4/CapSense_CSD.c ****     CapSense_CSD_Sns__Button5__BTN__MASK, 
 107:Generated_Source\PSoC4/CapSense_CSD.c ****     CapSense_CSD_Sns__Button6__BTN__MASK, 
 108:Generated_Source\PSoC4/CapSense_CSD.c ****     CapSense_CSD_Sns__Button7__BTN__MASK, 
 109:Generated_Source\PSoC4/CapSense_CSD.c ****     CapSense_CSD_Sns__Button8__BTN__MASK, 
 110:Generated_Source\PSoC4/CapSense_CSD.c ****     CapSense_CSD_Sns__Button9__BTN__MASK, 
 111:Generated_Source\PSoC4/CapSense_CSD.c ****     CapSense_CSD_Sns__Button10__BTN__MASK, 
 112:Generated_Source\PSoC4/CapSense_CSD.c ****     CapSense_CSD_Sns__Button11__BTN__MASK, 
 113:Generated_Source\PSoC4/CapSense_CSD.c ****     CapSense_CSD_Sns__Button12__BTN__MASK, 
 114:Generated_Source\PSoC4/CapSense_CSD.c **** };
 115:Generated_Source\PSoC4/CapSense_CSD.c **** 
 116:Generated_Source\PSoC4/CapSense_CSD.c **** const uint8 CapSense_CSD_pinShiftTbl[] = {
 117:Generated_Source\PSoC4/CapSense_CSD.c ****     (uint8) CapSense_CSD_Sns__Button0__BTN__SHIFT, 
 118:Generated_Source\PSoC4/CapSense_CSD.c ****     (uint8) CapSense_CSD_Sns__Button1__BTN__SHIFT, 
 119:Generated_Source\PSoC4/CapSense_CSD.c ****     (uint8) CapSense_CSD_Sns__Button2__BTN__SHIFT, 
 120:Generated_Source\PSoC4/CapSense_CSD.c ****     (uint8) CapSense_CSD_Sns__Button3__BTN__SHIFT, 
 121:Generated_Source\PSoC4/CapSense_CSD.c ****     (uint8) CapSense_CSD_Sns__Button4__BTN__SHIFT, 
 122:Generated_Source\PSoC4/CapSense_CSD.c ****     (uint8) CapSense_CSD_Sns__Button5__BTN__SHIFT, 
ARM GAS  C:\Users\SHOZO\AppData\Local\Temp\ccpYscuc.s 			page 8


 123:Generated_Source\PSoC4/CapSense_CSD.c ****     (uint8) CapSense_CSD_Sns__Button6__BTN__SHIFT, 
 124:Generated_Source\PSoC4/CapSense_CSD.c ****     (uint8) CapSense_CSD_Sns__Button7__BTN__SHIFT, 
 125:Generated_Source\PSoC4/CapSense_CSD.c ****     (uint8) CapSense_CSD_Sns__Button8__BTN__SHIFT, 
 126:Generated_Source\PSoC4/CapSense_CSD.c ****     (uint8) CapSense_CSD_Sns__Button9__BTN__SHIFT, 
 127:Generated_Source\PSoC4/CapSense_CSD.c ****     (uint8) CapSense_CSD_Sns__Button10__BTN__SHIFT, 
 128:Generated_Source\PSoC4/CapSense_CSD.c ****     (uint8) CapSense_CSD_Sns__Button11__BTN__SHIFT, 
 129:Generated_Source\PSoC4/CapSense_CSD.c ****     (uint8) CapSense_CSD_Sns__Button12__BTN__SHIFT, 
 130:Generated_Source\PSoC4/CapSense_CSD.c **** };
 131:Generated_Source\PSoC4/CapSense_CSD.c **** 
 132:Generated_Source\PSoC4/CapSense_CSD.c **** uint8 CapSense_CSD_modulationIDAC[CapSense_CSD_TOTAL_SENSOR_COUNT] = {
 133:Generated_Source\PSoC4/CapSense_CSD.c ****     80u, 80u, 80u, 80u, 80u, 80u, 80u, 80u, 80u, 80u, 80u, 80u, 80u, 
 134:Generated_Source\PSoC4/CapSense_CSD.c **** };
 135:Generated_Source\PSoC4/CapSense_CSD.c **** uint8 CapSense_CSD_compensationIDAC[CapSense_CSD_TOTAL_SENSOR_COUNT] = {
 136:Generated_Source\PSoC4/CapSense_CSD.c ****     80u, 80u, 80u, 80u, 80u, 80u, 80u, 80u, 80u, 80u, 80u, 80u, 80u, 
 137:Generated_Source\PSoC4/CapSense_CSD.c **** };
 138:Generated_Source\PSoC4/CapSense_CSD.c **** 
 139:Generated_Source\PSoC4/CapSense_CSD.c **** uint32 CapSense_CSD_widgetResolution[CapSense_CSD_RESOLUTIONS_TBL_SIZE] = {
 140:Generated_Source\PSoC4/CapSense_CSD.c ****     CapSense_CSD_RESOLUTION_16_BITS,
 141:Generated_Source\PSoC4/CapSense_CSD.c ****     CapSense_CSD_RESOLUTION_16_BITS,
 142:Generated_Source\PSoC4/CapSense_CSD.c ****     CapSense_CSD_RESOLUTION_16_BITS,
 143:Generated_Source\PSoC4/CapSense_CSD.c ****     CapSense_CSD_RESOLUTION_16_BITS,
 144:Generated_Source\PSoC4/CapSense_CSD.c ****     CapSense_CSD_RESOLUTION_16_BITS,
 145:Generated_Source\PSoC4/CapSense_CSD.c ****     CapSense_CSD_RESOLUTION_16_BITS,
 146:Generated_Source\PSoC4/CapSense_CSD.c ****     CapSense_CSD_RESOLUTION_16_BITS,
 147:Generated_Source\PSoC4/CapSense_CSD.c ****     CapSense_CSD_RESOLUTION_16_BITS,
 148:Generated_Source\PSoC4/CapSense_CSD.c ****     CapSense_CSD_RESOLUTION_16_BITS,
 149:Generated_Source\PSoC4/CapSense_CSD.c ****     CapSense_CSD_RESOLUTION_16_BITS,
 150:Generated_Source\PSoC4/CapSense_CSD.c ****     CapSense_CSD_RESOLUTION_16_BITS,
 151:Generated_Source\PSoC4/CapSense_CSD.c ****     CapSense_CSD_RESOLUTION_16_BITS,
 152:Generated_Source\PSoC4/CapSense_CSD.c ****     CapSense_CSD_RESOLUTION_16_BITS,
 153:Generated_Source\PSoC4/CapSense_CSD.c **** };
 154:Generated_Source\PSoC4/CapSense_CSD.c **** 
 155:Generated_Source\PSoC4/CapSense_CSD.c **** uint8 CapSense_CSD_senseClkDividerVal[CapSense_CSD_TOTAL_SCANSLOT_COUNT] = {
 156:Generated_Source\PSoC4/CapSense_CSD.c ****     1u, 1u, 1u, 1u, 1u, 1u, 1u, 1u, 1u, 1u, 1u, 1u, 1u, 
 157:Generated_Source\PSoC4/CapSense_CSD.c **** };
 158:Generated_Source\PSoC4/CapSense_CSD.c **** uint8 CapSense_CSD_sampleClkDividerVal[CapSense_CSD_TOTAL_SCANSLOT_COUNT] = {
 159:Generated_Source\PSoC4/CapSense_CSD.c ****     2u, 2u, 2u, 2u, 2u, 2u, 2u, 2u, 2u, 2u, 2u, 2u, 2u, 
 160:Generated_Source\PSoC4/CapSense_CSD.c **** };
 161:Generated_Source\PSoC4/CapSense_CSD.c **** 
 162:Generated_Source\PSoC4/CapSense_CSD.c **** 
 163:Generated_Source\PSoC4/CapSense_CSD.c **** const uint8 CapSense_CSD_widgetNumber[CapSense_CSD_TOTAL_SENSOR_COUNT] = {
 164:Generated_Source\PSoC4/CapSense_CSD.c ****     0u, /* Button0__BTN */
 165:Generated_Source\PSoC4/CapSense_CSD.c ****     1u, /* Button1__BTN */
 166:Generated_Source\PSoC4/CapSense_CSD.c ****     2u, /* Button2__BTN */
 167:Generated_Source\PSoC4/CapSense_CSD.c ****     3u, /* Button3__BTN */
 168:Generated_Source\PSoC4/CapSense_CSD.c ****     4u, /* Button4__BTN */
 169:Generated_Source\PSoC4/CapSense_CSD.c ****     5u, /* Button5__BTN */
 170:Generated_Source\PSoC4/CapSense_CSD.c ****     6u, /* Button6__BTN */
 171:Generated_Source\PSoC4/CapSense_CSD.c ****     7u, /* Button7__BTN */
 172:Generated_Source\PSoC4/CapSense_CSD.c ****     8u, /* Button8__BTN */
 173:Generated_Source\PSoC4/CapSense_CSD.c ****     9u, /* Button9__BTN */
 174:Generated_Source\PSoC4/CapSense_CSD.c ****     10u, /* Button10__BTN */
 175:Generated_Source\PSoC4/CapSense_CSD.c ****     11u, /* Button11__BTN */
 176:Generated_Source\PSoC4/CapSense_CSD.c ****     12u, /* Button12__BTN */
 177:Generated_Source\PSoC4/CapSense_CSD.c **** };
 178:Generated_Source\PSoC4/CapSense_CSD.c **** 
 179:Generated_Source\PSoC4/CapSense_CSD.c **** reg32* const CapSense_CSD_prtSelTbl[CapSense_CSD_CFG_REG_TBL_SIZE] = {
ARM GAS  C:\Users\SHOZO\AppData\Local\Temp\ccpYscuc.s 			page 9


 180:Generated_Source\PSoC4/CapSense_CSD.c ****     ((reg32 *) CYREG_HSIOM_PORT_SEL0),
 181:Generated_Source\PSoC4/CapSense_CSD.c ****     ((reg32 *) CYREG_HSIOM_PORT_SEL1),
 182:Generated_Source\PSoC4/CapSense_CSD.c ****     ((reg32 *) CYREG_HSIOM_PORT_SEL2),
 183:Generated_Source\PSoC4/CapSense_CSD.c ****     ((reg32 *) CYREG_HSIOM_PORT_SEL3),
 184:Generated_Source\PSoC4/CapSense_CSD.c ****     ((reg32 *) CYREG_HSIOM_PORT_SEL4),
 185:Generated_Source\PSoC4/CapSense_CSD.c **** };
 186:Generated_Source\PSoC4/CapSense_CSD.c **** 
 187:Generated_Source\PSoC4/CapSense_CSD.c **** reg32* const CapSense_CSD_prtCfgTbl[CapSense_CSD_CFG_REG_TBL_SIZE] = {
 188:Generated_Source\PSoC4/CapSense_CSD.c ****     ((reg32 *) CYREG_PRT0_PC),
 189:Generated_Source\PSoC4/CapSense_CSD.c ****     ((reg32 *) CYREG_PRT1_PC),
 190:Generated_Source\PSoC4/CapSense_CSD.c ****     ((reg32 *) CYREG_PRT2_PC),
 191:Generated_Source\PSoC4/CapSense_CSD.c ****     ((reg32 *) CYREG_PRT3_PC),
 192:Generated_Source\PSoC4/CapSense_CSD.c ****     ((reg32 *) CYREG_PRT4_PC),
 193:Generated_Source\PSoC4/CapSense_CSD.c **** };
 194:Generated_Source\PSoC4/CapSense_CSD.c **** 
 195:Generated_Source\PSoC4/CapSense_CSD.c **** reg32* const CapSense_CSD_prtDRTbl[CapSense_CSD_CFG_REG_TBL_SIZE] = {
 196:Generated_Source\PSoC4/CapSense_CSD.c ****     ((reg32 *) CYREG_PRT0_DR),
 197:Generated_Source\PSoC4/CapSense_CSD.c ****     ((reg32 *) CYREG_PRT1_DR),
 198:Generated_Source\PSoC4/CapSense_CSD.c ****     ((reg32 *) CYREG_PRT2_DR),
 199:Generated_Source\PSoC4/CapSense_CSD.c ****     ((reg32 *) CYREG_PRT3_DR),
 200:Generated_Source\PSoC4/CapSense_CSD.c ****     ((reg32 *) CYREG_PRT4_DR),
 201:Generated_Source\PSoC4/CapSense_CSD.c **** };
 202:Generated_Source\PSoC4/CapSense_CSD.c **** 
 203:Generated_Source\PSoC4/CapSense_CSD.c **** 
 204:Generated_Source\PSoC4/CapSense_CSD.c **** 
 205:Generated_Source\PSoC4/CapSense_CSD.c **** /*******************************************************************************
 206:Generated_Source\PSoC4/CapSense_CSD.c **** * Function Name: CapSense_CSD_Init
 207:Generated_Source\PSoC4/CapSense_CSD.c **** ********************************************************************************
 208:Generated_Source\PSoC4/CapSense_CSD.c **** *
 209:Generated_Source\PSoC4/CapSense_CSD.c **** * Summary:
 210:Generated_Source\PSoC4/CapSense_CSD.c **** *  API initializes default CapSense configuration provided by the customizer that defines
 211:Generated_Source\PSoC4/CapSense_CSD.c **** *  the mode of component operations and resets all the sensors to an inactive state.
 212:Generated_Source\PSoC4/CapSense_CSD.c **** *
 213:Generated_Source\PSoC4/CapSense_CSD.c **** * Parameters:
 214:Generated_Source\PSoC4/CapSense_CSD.c **** *  None
 215:Generated_Source\PSoC4/CapSense_CSD.c **** *
 216:Generated_Source\PSoC4/CapSense_CSD.c **** * Return:
 217:Generated_Source\PSoC4/CapSense_CSD.c **** *  None
 218:Generated_Source\PSoC4/CapSense_CSD.c **** *
 219:Generated_Source\PSoC4/CapSense_CSD.c **** * Global Variables:
 220:Generated_Source\PSoC4/CapSense_CSD.c **** *  CapSense_CSD_immunityIndex - defines immunity level.
 221:Generated_Source\PSoC4/CapSense_CSD.c **** *
 222:Generated_Source\PSoC4/CapSense_CSD.c **** * Side Effects:
 223:Generated_Source\PSoC4/CapSense_CSD.c **** *  None
 224:Generated_Source\PSoC4/CapSense_CSD.c **** *
 225:Generated_Source\PSoC4/CapSense_CSD.c **** *******************************************************************************/
 226:Generated_Source\PSoC4/CapSense_CSD.c **** void CapSense_CSD_Init(void)
 227:Generated_Source\PSoC4/CapSense_CSD.c **** {
 274              		.loc 1 227 0
 275              		.cfi_startproc
 276              		@ args = 0, pretend = 0, frame = 8
 277              		@ frame_needed = 1, uses_anonymous_args = 0
 278 0000 80B5     		push	{r7, lr}
 279              		.cfi_def_cfa_offset 8
 280              		.cfi_offset 7, -8
 281              		.cfi_offset 14, -4
 282 0002 82B0     		sub	sp, sp, #8
ARM GAS  C:\Users\SHOZO\AppData\Local\Temp\ccpYscuc.s 			page 10


 283              		.cfi_def_cfa_offset 16
 284 0004 00AF     		add	r7, sp, #0
 285              		.cfi_def_cfa_register 7
 228:Generated_Source\PSoC4/CapSense_CSD.c ****     uint32 curSensor;
 229:Generated_Source\PSoC4/CapSense_CSD.c **** 
 230:Generated_Source\PSoC4/CapSense_CSD.c ****     #if(CapSense_CSD_IS_SHIELD_ENABLE)
 231:Generated_Source\PSoC4/CapSense_CSD.c **** 
 232:Generated_Source\PSoC4/CapSense_CSD.c ****         #if((CapSense_CSD_CSH_TANK_PREGARGE_OPTION == CapSense_CSD__CAPPRIOBUF) || (0u != CapSense_
 233:Generated_Source\PSoC4/CapSense_CSD.c ****             uint32 newRegValue;
 234:Generated_Source\PSoC4/CapSense_CSD.c **** 
 235:Generated_Source\PSoC4/CapSense_CSD.c ****             newRegValue = CapSense_CSD_CTANK_CONNECTION_REG;
 236:Generated_Source\PSoC4/CapSense_CSD.c ****             newRegValue &= ~(CapSense_CSD_CSD_CTANK_CONNECTION_MASK);
 237:Generated_Source\PSoC4/CapSense_CSD.c ****             newRegValue |= CapSense_CSD_CSD_CTANK_TO_AMUXBUS_B;
 238:Generated_Source\PSoC4/CapSense_CSD.c ****             CapSense_CSD_CTANK_CONNECTION_REG = newRegValue;
 239:Generated_Source\PSoC4/CapSense_CSD.c **** 
 240:Generated_Source\PSoC4/CapSense_CSD.c ****             #if(CapSense_CSD_CSH_TANK_PREGARGE_OPTION == CapSense_CSD__CAPPRIOBUF)
 241:Generated_Source\PSoC4/CapSense_CSD.c ****                 newRegValue = CapSense_CSD_CTANK_PORT_PC_REG;
 242:Generated_Source\PSoC4/CapSense_CSD.c ****                 newRegValue &= ~(CapSense_CSD_CSD_CTANK_PC_MASK);
 243:Generated_Source\PSoC4/CapSense_CSD.c ****                 newRegValue |= CapSense_CSD_CTANK_PC_STRONG_MODE;
 244:Generated_Source\PSoC4/CapSense_CSD.c ****                 CapSense_CSD_CTANK_PORT_PC_REG = newRegValue;
 245:Generated_Source\PSoC4/CapSense_CSD.c **** 
 246:Generated_Source\PSoC4/CapSense_CSD.c ****                 newRegValue = CapSense_CSD_CTANK_PORT_DR_REG;
 247:Generated_Source\PSoC4/CapSense_CSD.c ****                 newRegValue &= ~(CapSense_CSD_CTANK_DR_MASK);
 248:Generated_Source\PSoC4/CapSense_CSD.c ****                 newRegValue |= CapSense_CSD_CTANK_DR_CONFIG;
 249:Generated_Source\PSoC4/CapSense_CSD.c ****                 CapSense_CSD_CTANK_PORT_DR_REG = newRegValue;
 250:Generated_Source\PSoC4/CapSense_CSD.c ****             #endif /* (CapSense_CSD_CSH_TANK_PREGARGE_OPTION == CapSense_CSD__CAPPRIOBUF) */
 251:Generated_Source\PSoC4/CapSense_CSD.c **** 
 252:Generated_Source\PSoC4/CapSense_CSD.c ****         #endif /* ((CapSense_CSD_CSH_TANK_PREGARGE_OPTION == CapSense_CSD__CAPPRIOBUF) || (CapSense
 253:Generated_Source\PSoC4/CapSense_CSD.c **** 
 254:Generated_Source\PSoC4/CapSense_CSD.c ****         CapSense_CSD_EnableShieldElectrode((uint32)CapSense_CSD_SHIELD_PIN_NUMBER, (uint32)CapSense
 255:Generated_Source\PSoC4/CapSense_CSD.c **** 
 256:Generated_Source\PSoC4/CapSense_CSD.c ****     #endif /* (CapSense_CSD_IS_SHIELD_ENABLE) */
 257:Generated_Source\PSoC4/CapSense_CSD.c **** 
 258:Generated_Source\PSoC4/CapSense_CSD.c ****     for(curSensor = 0u; curSensor < CapSense_CSD_TOTAL_SENSOR_COUNT; curSensor++)
 286              		.loc 1 258 0
 287 0006 0023     		movs	r3, #0
 288 0008 7B60     		str	r3, [r7, #4]
 289 000a 07E0     		b	.L2
 290              	.L3:
 259:Generated_Source\PSoC4/CapSense_CSD.c ****     {
 260:Generated_Source\PSoC4/CapSense_CSD.c ****         CapSense_CSD_SetUnscannedSensorState(curSensor, CapSense_CSD_CONNECT_INACTIVE_SNS);
 291              		.loc 1 260 0 discriminator 3
 292 000c 7B68     		ldr	r3, [r7, #4]
 293 000e 0021     		movs	r1, #0
 294 0010 1800     		movs	r0, r3
 295 0012 FFF7FEFF 		bl	CapSense_CSD_SetUnscannedSensorState
 258:Generated_Source\PSoC4/CapSense_CSD.c ****     {
 296              		.loc 1 258 0 discriminator 3
 297 0016 7B68     		ldr	r3, [r7, #4]
 298 0018 0133     		adds	r3, r3, #1
 299 001a 7B60     		str	r3, [r7, #4]
 300              	.L2:
 258:Generated_Source\PSoC4/CapSense_CSD.c ****     {
 301              		.loc 1 258 0 is_stmt 0 discriminator 1
 302 001c 7B68     		ldr	r3, [r7, #4]
 303 001e 0C2B     		cmp	r3, #12
 304 0020 F4D9     		bls	.L3
ARM GAS  C:\Users\SHOZO\AppData\Local\Temp\ccpYscuc.s 			page 11


 261:Generated_Source\PSoC4/CapSense_CSD.c ****     }
 262:Generated_Source\PSoC4/CapSense_CSD.c **** 
 263:Generated_Source\PSoC4/CapSense_CSD.c ****     CapSense_CSD_CsdHwBlockInit();
 305              		.loc 1 263 0 is_stmt 1
 306 0022 FFF7FEFF 		bl	CapSense_CSD_CsdHwBlockInit
 264:Generated_Source\PSoC4/CapSense_CSD.c ****     CapSense_CSD_SetShieldDelay(CapSense_CSD_SHIELD_DELAY );
 307              		.loc 1 264 0
 308 0026 0020     		movs	r0, #0
 309 0028 FFF7FEFF 		bl	CapSense_CSD_SetShieldDelay
 265:Generated_Source\PSoC4/CapSense_CSD.c **** 
 266:Generated_Source\PSoC4/CapSense_CSD.c ****     /* Clear all sensors */
 267:Generated_Source\PSoC4/CapSense_CSD.c ****     CapSense_CSD_ClearSensors();
 310              		.loc 1 267 0
 311 002c FFF7FEFF 		bl	CapSense_CSD_ClearSensors
 268:Generated_Source\PSoC4/CapSense_CSD.c **** }
 312              		.loc 1 268 0
 313 0030 C046     		nop
 314 0032 BD46     		mov	sp, r7
 315 0034 02B0     		add	sp, sp, #8
 316              		@ sp needed
 317 0036 80BD     		pop	{r7, pc}
 318              		.cfi_endproc
 319              	.LFE32:
 320              		.size	CapSense_CSD_Init, .-CapSense_CSD_Init
 321              		.section	.text.CapSense_CSD_CsdHwBlockInit,"ax",%progbits
 322              		.align	2
 323              		.global	CapSense_CSD_CsdHwBlockInit
 324              		.code	16
 325              		.thumb_func
 326              		.type	CapSense_CSD_CsdHwBlockInit, %function
 327              	CapSense_CSD_CsdHwBlockInit:
 328              	.LFB33:
 269:Generated_Source\PSoC4/CapSense_CSD.c **** 
 270:Generated_Source\PSoC4/CapSense_CSD.c **** /*******************************************************************************
 271:Generated_Source\PSoC4/CapSense_CSD.c **** * Function Name: CapSense_CSD_CsdHwBlockInit
 272:Generated_Source\PSoC4/CapSense_CSD.c **** ********************************************************************************
 273:Generated_Source\PSoC4/CapSense_CSD.c **** *
 274:Generated_Source\PSoC4/CapSense_CSD.c **** * Summary:
 275:Generated_Source\PSoC4/CapSense_CSD.c **** *  Initialises the hardware parameters of the CSD block
 276:Generated_Source\PSoC4/CapSense_CSD.c **** *
 277:Generated_Source\PSoC4/CapSense_CSD.c **** * Parameters:
 278:Generated_Source\PSoC4/CapSense_CSD.c **** *  None
 279:Generated_Source\PSoC4/CapSense_CSD.c **** *
 280:Generated_Source\PSoC4/CapSense_CSD.c **** * Return:
 281:Generated_Source\PSoC4/CapSense_CSD.c **** *  None
 282:Generated_Source\PSoC4/CapSense_CSD.c **** *
 283:Generated_Source\PSoC4/CapSense_CSD.c **** * Global Variables:
 284:Generated_Source\PSoC4/CapSense_CSD.c **** *  CapSense_CSD_csdTrim1 - Contains IDAC trim register value for Sourcing Mode.
 285:Generated_Source\PSoC4/CapSense_CSD.c **** *  CapSense_CSD_csdTrim2 - Contains IDAC trim register value for Sinking Mode.
 286:Generated_Source\PSoC4/CapSense_CSD.c **** *
 287:Generated_Source\PSoC4/CapSense_CSD.c **** * Side Effects:
 288:Generated_Source\PSoC4/CapSense_CSD.c **** *  None
 289:Generated_Source\PSoC4/CapSense_CSD.c **** *
 290:Generated_Source\PSoC4/CapSense_CSD.c **** *******************************************************************************/
 291:Generated_Source\PSoC4/CapSense_CSD.c **** void CapSense_CSD_CsdHwBlockInit(void)
 292:Generated_Source\PSoC4/CapSense_CSD.c **** {
 329              		.loc 1 292 0
ARM GAS  C:\Users\SHOZO\AppData\Local\Temp\ccpYscuc.s 			page 12


 330              		.cfi_startproc
 331              		@ args = 0, pretend = 0, frame = 8
 332              		@ frame_needed = 1, uses_anonymous_args = 0
 333 0000 80B5     		push	{r7, lr}
 334              		.cfi_def_cfa_offset 8
 335              		.cfi_offset 7, -8
 336              		.cfi_offset 14, -4
 337 0002 82B0     		sub	sp, sp, #8
 338              		.cfi_def_cfa_offset 16
 339 0004 00AF     		add	r7, sp, #0
 340              		.cfi_def_cfa_register 7
 293:Generated_Source\PSoC4/CapSense_CSD.c ****     uint32 newRegValue;
 294:Generated_Source\PSoC4/CapSense_CSD.c **** 
 295:Generated_Source\PSoC4/CapSense_CSD.c ****         /* Set trim registers for CSD Mode */
 296:Generated_Source\PSoC4/CapSense_CSD.c ****     #if (CapSense_CSD_IDAC1_POLARITY == CapSense_CSD__IDAC_SINK)
 297:Generated_Source\PSoC4/CapSense_CSD.c ****         /* iDAC1 Sinking Mode */
 298:Generated_Source\PSoC4/CapSense_CSD.c ****         CapSense_CSD_csdTrim2 = (uint8)CapSense_CSD_CSD_TRIM2_REG;
 299:Generated_Source\PSoC4/CapSense_CSD.c ****         newRegValue = CapSense_CSD_csdTrim2;
 300:Generated_Source\PSoC4/CapSense_CSD.c ****         newRegValue &= CapSense_CSD_CSD_IDAC1_TRIM_MASK;
 301:Generated_Source\PSoC4/CapSense_CSD.c ****         newRegValue |= (uint32)((uint32)CapSense_CSD_SFLASH_CSD_TRIM2_REG & (uint32)CapSense_CSD_CS
 302:Generated_Source\PSoC4/CapSense_CSD.c **** 
 303:Generated_Source\PSoC4/CapSense_CSD.c ****         #if (CapSense_CSD_IDAC_CNT == 2u)
 304:Generated_Source\PSoC4/CapSense_CSD.c ****             /* iDAC2 Sinking Mode */
 305:Generated_Source\PSoC4/CapSense_CSD.c ****             newRegValue &= CapSense_CSD_CSD_IDAC2_TRIM_MASK;
 306:Generated_Source\PSoC4/CapSense_CSD.c ****             newRegValue |= (uint32)((uint32)CapSense_CSD_SFLASH_CSD_TRIM2_REG & (uint32)CapSense_CS
 307:Generated_Source\PSoC4/CapSense_CSD.c ****         #endif /* (CapSense_CSD_IDAC_CNT == 2u) */
 308:Generated_Source\PSoC4/CapSense_CSD.c ****         CapSense_CSD_CSD_TRIM2_REG = newRegValue;
 309:Generated_Source\PSoC4/CapSense_CSD.c ****     #else
 310:Generated_Source\PSoC4/CapSense_CSD.c ****         /* iDAC1 Sourcing Mode */
 311:Generated_Source\PSoC4/CapSense_CSD.c ****         CapSense_CSD_csdTrim1 = (uint8)CapSense_CSD_CSD_TRIM1_REG;
 341              		.loc 1 311 0
 342 0006 254B     		ldr	r3, .L5
 343 0008 1B68     		ldr	r3, [r3]
 344 000a DAB2     		uxtb	r2, r3
 345 000c 244B     		ldr	r3, .L5+4
 346 000e 1A70     		strb	r2, [r3]
 312:Generated_Source\PSoC4/CapSense_CSD.c ****         newRegValue = CapSense_CSD_csdTrim1;
 347              		.loc 1 312 0
 348 0010 234B     		ldr	r3, .L5+4
 349 0012 1B78     		ldrb	r3, [r3]
 350 0014 7B60     		str	r3, [r7, #4]
 313:Generated_Source\PSoC4/CapSense_CSD.c ****         newRegValue &= CapSense_CSD_CSD_IDAC1_TRIM_MASK;
 351              		.loc 1 313 0
 352 0016 7B68     		ldr	r3, [r7, #4]
 353 0018 0F22     		movs	r2, #15
 354 001a 9343     		bics	r3, r2
 355 001c 7B60     		str	r3, [r7, #4]
 314:Generated_Source\PSoC4/CapSense_CSD.c ****         newRegValue |= (uint32)((uint32)CapSense_CSD_SFLASH_CSD_TRIM1_REG & (uint32)CapSense_CSD_CS
 356              		.loc 1 314 0
 357 001e 214B     		ldr	r3, .L5+8
 358 0020 1B78     		ldrb	r3, [r3]
 359 0022 DBB2     		uxtb	r3, r3
 360 0024 1A00     		movs	r2, r3
 361 0026 0F23     		movs	r3, #15
 362 0028 1340     		ands	r3, r2
 363 002a 7A68     		ldr	r2, [r7, #4]
 364 002c 1343     		orrs	r3, r2
ARM GAS  C:\Users\SHOZO\AppData\Local\Temp\ccpYscuc.s 			page 13


 365 002e 7B60     		str	r3, [r7, #4]
 315:Generated_Source\PSoC4/CapSense_CSD.c ****         #if (CapSense_CSD_IDAC_CNT == 2u)
 316:Generated_Source\PSoC4/CapSense_CSD.c ****              /* iDAC2 Sourcing Mode */
 317:Generated_Source\PSoC4/CapSense_CSD.c ****             newRegValue &= CapSense_CSD_CSD_IDAC2_TRIM_MASK;
 366              		.loc 1 317 0
 367 0030 7B68     		ldr	r3, [r7, #4]
 368 0032 F022     		movs	r2, #240
 369 0034 9343     		bics	r3, r2
 370 0036 7B60     		str	r3, [r7, #4]
 318:Generated_Source\PSoC4/CapSense_CSD.c ****             newRegValue |= (uint32)((uint32)CapSense_CSD_SFLASH_CSD_TRIM1_REG & (uint32)CapSense_CS
 371              		.loc 1 318 0
 372 0038 1A4B     		ldr	r3, .L5+8
 373 003a 1B78     		ldrb	r3, [r3]
 374 003c DBB2     		uxtb	r3, r3
 375 003e 1A00     		movs	r2, r3
 376 0040 F023     		movs	r3, #240
 377 0042 1340     		ands	r3, r2
 378 0044 7A68     		ldr	r2, [r7, #4]
 379 0046 1343     		orrs	r3, r2
 380 0048 7B60     		str	r3, [r7, #4]
 319:Generated_Source\PSoC4/CapSense_CSD.c ****         #endif
 320:Generated_Source\PSoC4/CapSense_CSD.c ****         CapSense_CSD_CSD_TRIM1_REG = newRegValue;
 381              		.loc 1 320 0
 382 004a 144B     		ldr	r3, .L5
 383 004c 7A68     		ldr	r2, [r7, #4]
 384 004e 1A60     		str	r2, [r3]
 321:Generated_Source\PSoC4/CapSense_CSD.c ****     #endif /* (CapSense_CSD_IDAC1_POLARITY == CapSense_CSD__IDAC_SINK) */
 322:Generated_Source\PSoC4/CapSense_CSD.c **** 
 323:Generated_Source\PSoC4/CapSense_CSD.c ****     /* Configure CSD and IDAC */
 324:Generated_Source\PSoC4/CapSense_CSD.c ****     #if (CapSense_CSD_IDAC_CNT > 1u)
 325:Generated_Source\PSoC4/CapSense_CSD.c ****         CapSense_CSD_CSD_IDAC_REG = CapSense_CSD_DEFAULT_CSD_IDAC_CONFIG;
 385              		.loc 1 325 0
 386 0050 154B     		ldr	r3, .L5+12
 387 0052 164A     		ldr	r2, .L5+16
 388 0054 1A60     		str	r2, [r3]
 326:Generated_Source\PSoC4/CapSense_CSD.c ****         CapSense_CSD_CSD_CFG_REG = CapSense_CSD_DEFAULT_CSD_CONFIG;
 389              		.loc 1 326 0
 390 0056 164B     		ldr	r3, .L5+20
 391 0058 164A     		ldr	r2, .L5+24
 392 005a 1A60     		str	r2, [r3]
 327:Generated_Source\PSoC4/CapSense_CSD.c ****     #else
 328:Generated_Source\PSoC4/CapSense_CSD.c ****         CapSense_CSD_CSD_IDAC_REG &= ~(CapSense_CSD_CSD_IDAC1_MODE_MASK  | CapSense_CSD_CSD_IDAC1_D
 329:Generated_Source\PSoC4/CapSense_CSD.c ****         CapSense_CSD_CSD_IDAC_REG |= CapSense_CSD_DEFAULT_CSD_IDAC_CONFIG;
 330:Generated_Source\PSoC4/CapSense_CSD.c **** 
 331:Generated_Source\PSoC4/CapSense_CSD.c ****         CapSense_CSD_CSD_CFG_REG &= ~(CapSense_CSD_CSD_CONFIG_MASK);
 332:Generated_Source\PSoC4/CapSense_CSD.c ****         CapSense_CSD_CSD_CFG_REG |= (CapSense_CSD_DEFAULT_CSD_CONFIG);
 333:Generated_Source\PSoC4/CapSense_CSD.c ****     #endif /* (CapSense_CSD_IDAC_CNT > 1u) */
 334:Generated_Source\PSoC4/CapSense_CSD.c **** 
 335:Generated_Source\PSoC4/CapSense_CSD.c **** 
 336:Generated_Source\PSoC4/CapSense_CSD.c ****     /* Connect Cmod to AMUX bus */
 337:Generated_Source\PSoC4/CapSense_CSD.c ****     newRegValue = CapSense_CSD_CMOD_CONNECTION_REG;
 393              		.loc 1 337 0
 394 005c 164B     		ldr	r3, .L5+28
 395 005e 1B68     		ldr	r3, [r3]
 396 0060 7B60     		str	r3, [r7, #4]
 338:Generated_Source\PSoC4/CapSense_CSD.c ****     newRegValue &= ~(CapSense_CSD_CSD_CMOD_CONNECTION_MASK);
 397              		.loc 1 338 0
ARM GAS  C:\Users\SHOZO\AppData\Local\Temp\ccpYscuc.s 			page 14


 398 0062 7B68     		ldr	r3, [r7, #4]
 399 0064 154A     		ldr	r2, .L5+32
 400 0066 1340     		ands	r3, r2
 401 0068 7B60     		str	r3, [r7, #4]
 339:Generated_Source\PSoC4/CapSense_CSD.c ****     newRegValue |= CapSense_CSD_CSD_CMOD_TO_AMUXBUS_A;
 402              		.loc 1 339 0
 403 006a 7B68     		ldr	r3, [r7, #4]
 404 006c C022     		movs	r2, #192
 405 006e D200     		lsls	r2, r2, #3
 406 0070 1343     		orrs	r3, r2
 407 0072 7B60     		str	r3, [r7, #4]
 340:Generated_Source\PSoC4/CapSense_CSD.c ****     CapSense_CSD_CMOD_CONNECTION_REG = newRegValue;
 408              		.loc 1 340 0
 409 0074 104B     		ldr	r3, .L5+28
 410 0076 7A68     		ldr	r2, [r7, #4]
 411 0078 1A60     		str	r2, [r3]
 341:Generated_Source\PSoC4/CapSense_CSD.c **** 
 342:Generated_Source\PSoC4/CapSense_CSD.c ****     /* Configure Dead Band PWM if it is enabled */
 343:Generated_Source\PSoC4/CapSense_CSD.c ****     #if(CapSense_CSD_CSD_4B_PWM_MODE != CapSense_CSD__PWM_OFF)
 344:Generated_Source\PSoC4/CapSense_CSD.c ****         CapSense_CSD_CSD_4B_PWM_REG = CapSense_CSD_DEFAULT_CSD_4B_PWM_CONFIG;
 345:Generated_Source\PSoC4/CapSense_CSD.c ****     #endif /* (CapSense_CSD_CSD_4B_PWM_MODE != CapSense_CSD__PWM_OFF) */
 346:Generated_Source\PSoC4/CapSense_CSD.c **** 
 347:Generated_Source\PSoC4/CapSense_CSD.c ****     /* Setup ISR */
 348:Generated_Source\PSoC4/CapSense_CSD.c ****     CyIntDisable(CapSense_CSD_ISR_NUMBER);
 412              		.loc 1 348 0
 413 007a 0F20     		movs	r0, #15
 414 007c FFF7FEFF 		bl	CyIntDisable
 349:Generated_Source\PSoC4/CapSense_CSD.c ****     #if !defined(CY_EXTERNAL_INTERRUPT_CONFIG)
 350:Generated_Source\PSoC4/CapSense_CSD.c ****         (void)CyIntSetVector(CapSense_CSD_ISR_NUMBER, &CapSense_CSD_ISR);
 415              		.loc 1 350 0
 416 0080 0F4B     		ldr	r3, .L5+36
 417 0082 1900     		movs	r1, r3
 418 0084 0F20     		movs	r0, #15
 419 0086 FFF7FEFF 		bl	CyIntSetVector
 351:Generated_Source\PSoC4/CapSense_CSD.c ****         CyIntSetPriority(CapSense_CSD_ISR_NUMBER, CapSense_CSD_ISR_PRIORITY);
 420              		.loc 1 351 0
 421 008a 0321     		movs	r1, #3
 422 008c 0F20     		movs	r0, #15
 423 008e FFF7FEFF 		bl	CyIntSetPriority
 352:Generated_Source\PSoC4/CapSense_CSD.c ****     #endif /* (CY_EXTERNAL_INTERRUPT_CONFIG) */
 353:Generated_Source\PSoC4/CapSense_CSD.c **** }
 424              		.loc 1 353 0
 425 0092 C046     		nop
 426 0094 BD46     		mov	sp, r7
 427 0096 02B0     		add	sp, sp, #8
 428              		@ sp needed
 429 0098 80BD     		pop	{r7, pc}
 430              	.L6:
 431 009a C046     		.align	2
 432              	.L5:
 433 009c 00FF0840 		.word	1074331392
 434 00a0 00000000 		.word	CapSense_CSD_csdTrim1
 435 00a4 62F1FF0F 		.word	268431714
 436 00a8 08000840 		.word	1074266120
 437 00ac 00020001 		.word	16777728
 438 00b0 04000840 		.word	1074266116
 439 00b4 0008A001 		.word	27265024
ARM GAS  C:\Users\SHOZO\AppData\Local\Temp\ccpYscuc.s 			page 15


 440 00b8 10000140 		.word	1073807376
 441 00bc FFF0FFFF 		.word	-3841
 442 00c0 00000000 		.word	CapSense_CSD_ISR
 443              		.cfi_endproc
 444              	.LFE33:
 445              		.size	CapSense_CSD_CsdHwBlockInit, .-CapSense_CSD_CsdHwBlockInit
 446              		.section	.text.CapSense_CSD_Enable,"ax",%progbits
 447              		.align	2
 448              		.global	CapSense_CSD_Enable
 449              		.code	16
 450              		.thumb_func
 451              		.type	CapSense_CSD_Enable, %function
 452              	CapSense_CSD_Enable:
 453              	.LFB34:
 354:Generated_Source\PSoC4/CapSense_CSD.c **** 
 355:Generated_Source\PSoC4/CapSense_CSD.c **** 
 356:Generated_Source\PSoC4/CapSense_CSD.c **** /*******************************************************************************
 357:Generated_Source\PSoC4/CapSense_CSD.c **** * Function Name: CapSense_CSD_Enable
 358:Generated_Source\PSoC4/CapSense_CSD.c **** ********************************************************************************
 359:Generated_Source\PSoC4/CapSense_CSD.c **** *
 360:Generated_Source\PSoC4/CapSense_CSD.c **** * Summary:
 361:Generated_Source\PSoC4/CapSense_CSD.c **** *  Enables the CSD block and related resources to an active mode.
 362:Generated_Source\PSoC4/CapSense_CSD.c **** *
 363:Generated_Source\PSoC4/CapSense_CSD.c **** * Parameters:
 364:Generated_Source\PSoC4/CapSense_CSD.c **** *  None
 365:Generated_Source\PSoC4/CapSense_CSD.c **** *
 366:Generated_Source\PSoC4/CapSense_CSD.c **** * Return:
 367:Generated_Source\PSoC4/CapSense_CSD.c **** *  None
 368:Generated_Source\PSoC4/CapSense_CSD.c **** *
 369:Generated_Source\PSoC4/CapSense_CSD.c **** * Global Variables:
 370:Generated_Source\PSoC4/CapSense_CSD.c **** *  None.
 371:Generated_Source\PSoC4/CapSense_CSD.c **** *
 372:Generated_Source\PSoC4/CapSense_CSD.c **** * Side Effects:
 373:Generated_Source\PSoC4/CapSense_CSD.c **** *  None
 374:Generated_Source\PSoC4/CapSense_CSD.c **** *
 375:Generated_Source\PSoC4/CapSense_CSD.c **** *******************************************************************************/
 376:Generated_Source\PSoC4/CapSense_CSD.c **** void CapSense_CSD_Enable(void)
 377:Generated_Source\PSoC4/CapSense_CSD.c **** {
 454              		.loc 1 377 0
 455              		.cfi_startproc
 456              		@ args = 0, pretend = 0, frame = 8
 457              		@ frame_needed = 1, uses_anonymous_args = 0
 458 0000 80B5     		push	{r7, lr}
 459              		.cfi_def_cfa_offset 8
 460              		.cfi_offset 7, -8
 461              		.cfi_offset 14, -4
 462 0002 82B0     		sub	sp, sp, #8
 463              		.cfi_def_cfa_offset 16
 464 0004 00AF     		add	r7, sp, #0
 465              		.cfi_def_cfa_register 7
 378:Generated_Source\PSoC4/CapSense_CSD.c ****     uint32 newRegValue;
 379:Generated_Source\PSoC4/CapSense_CSD.c **** 
 380:Generated_Source\PSoC4/CapSense_CSD.c ****     /* Enable Clocks */
 381:Generated_Source\PSoC4/CapSense_CSD.c ****     CapSense_CSD_SenseClk_Stop();
 466              		.loc 1 381 0
 467 0006 FFF7FEFF 		bl	CapSense_CSD_SenseClk_Stop
 382:Generated_Source\PSoC4/CapSense_CSD.c ****     CapSense_CSD_SampleClk_Stop();
ARM GAS  C:\Users\SHOZO\AppData\Local\Temp\ccpYscuc.s 			page 16


 468              		.loc 1 382 0
 469 000a FFF7FEFF 		bl	CapSense_CSD_SampleClk_Stop
 383:Generated_Source\PSoC4/CapSense_CSD.c **** 
 384:Generated_Source\PSoC4/CapSense_CSD.c ****     CapSense_CSD_SampleClk_SetDividerValue((uint16)CapSense_CSD_INITIAL_CLK_DIVIDER);
 470              		.loc 1 384 0
 471 000e 0021     		movs	r1, #0
 472 0010 0020     		movs	r0, #0
 473 0012 FFF7FEFF 		bl	CapSense_CSD_SampleClk_SetFractionalDividerRegister
 385:Generated_Source\PSoC4/CapSense_CSD.c ****     CapSense_CSD_SenseClk_SetDividerValue((uint16)CapSense_CSD_INITIAL_CLK_DIVIDER);
 474              		.loc 1 385 0
 475 0016 0021     		movs	r1, #0
 476 0018 0020     		movs	r0, #0
 477 001a FFF7FEFF 		bl	CapSense_CSD_SenseClk_SetFractionalDividerRegister
 386:Generated_Source\PSoC4/CapSense_CSD.c **** 
 387:Generated_Source\PSoC4/CapSense_CSD.c ****     #if (0u == CapSense_CSD_IS_M0S8PERI_BLOCK)
 388:Generated_Source\PSoC4/CapSense_CSD.c ****         CapSense_CSD_SenseClk_Start();
 478              		.loc 1 388 0
 479 001e FFF7FEFF 		bl	CapSense_CSD_SenseClk_Start
 389:Generated_Source\PSoC4/CapSense_CSD.c ****         CapSense_CSD_SampleClk_Start();
 480              		.loc 1 389 0
 481 0022 FFF7FEFF 		bl	CapSense_CSD_SampleClk_Start
 390:Generated_Source\PSoC4/CapSense_CSD.c ****     #else
 391:Generated_Source\PSoC4/CapSense_CSD.c ****         CapSense_CSD_SampleClk_Start();
 392:Generated_Source\PSoC4/CapSense_CSD.c ****         CapSense_CSD_SenseClk_StartEx(CapSense_CSD_SampleClk__DIV_ID);
 393:Generated_Source\PSoC4/CapSense_CSD.c ****     #endif /* (0u == CapSense_CSD_IS_M0S8PERI_BLOCK) */
 394:Generated_Source\PSoC4/CapSense_CSD.c **** 
 395:Generated_Source\PSoC4/CapSense_CSD.c ****     /* Enable the CSD block */
 396:Generated_Source\PSoC4/CapSense_CSD.c ****     newRegValue = CapSense_CSD_CSD_CFG_REG;
 482              		.loc 1 396 0
 483 0026 084B     		ldr	r3, .L8
 484 0028 1B68     		ldr	r3, [r3]
 485 002a 7B60     		str	r3, [r7, #4]
 397:Generated_Source\PSoC4/CapSense_CSD.c ****     newRegValue |= (CapSense_CSD_CSD_CFG_ENABLE | CapSense_CSD_CSD_CFG_SENSE_COMP_EN
 486              		.loc 1 397 0
 487 002c 7B68     		ldr	r3, [r7, #4]
 488 002e 074A     		ldr	r2, .L8+4
 489 0030 1343     		orrs	r3, r2
 490 0032 7B60     		str	r3, [r7, #4]
 398:Generated_Source\PSoC4/CapSense_CSD.c ****                                                    | CapSense_CSD_CSD_CFG_SENSE_EN);
 399:Generated_Source\PSoC4/CapSense_CSD.c ****     CapSense_CSD_CSD_CFG_REG = newRegValue;
 491              		.loc 1 399 0
 492 0034 044B     		ldr	r3, .L8
 493 0036 7A68     		ldr	r2, [r7, #4]
 494 0038 1A60     		str	r2, [r3]
 400:Generated_Source\PSoC4/CapSense_CSD.c **** 
 401:Generated_Source\PSoC4/CapSense_CSD.c ****     /* Enable interrupt */
 402:Generated_Source\PSoC4/CapSense_CSD.c ****     CyIntEnable(CapSense_CSD_ISR_NUMBER);
 495              		.loc 1 402 0
 496 003a 0F20     		movs	r0, #15
 497 003c FFF7FEFF 		bl	CyIntEnable
 403:Generated_Source\PSoC4/CapSense_CSD.c **** }
 498              		.loc 1 403 0
 499 0040 C046     		nop
 500 0042 BD46     		mov	sp, r7
 501 0044 02B0     		add	sp, sp, #8
 502              		@ sp needed
 503 0046 80BD     		pop	{r7, pc}
ARM GAS  C:\Users\SHOZO\AppData\Local\Temp\ccpYscuc.s 			page 17


 504              	.L9:
 505              		.align	2
 506              	.L8:
 507 0048 04000840 		.word	1074266116
 508 004c 00100880 		.word	-2146955264
 509              		.cfi_endproc
 510              	.LFE34:
 511              		.size	CapSense_CSD_Enable, .-CapSense_CSD_Enable
 512              		.global	__aeabi_uidiv
 513              		.section	.text.CapSense_CSD_Start,"ax",%progbits
 514              		.align	2
 515              		.global	CapSense_CSD_Start
 516              		.code	16
 517              		.thumb_func
 518              		.type	CapSense_CSD_Start, %function
 519              	CapSense_CSD_Start:
 520              	.LFB35:
 404:Generated_Source\PSoC4/CapSense_CSD.c **** 
 405:Generated_Source\PSoC4/CapSense_CSD.c **** 
 406:Generated_Source\PSoC4/CapSense_CSD.c **** /*******************************************************************************
 407:Generated_Source\PSoC4/CapSense_CSD.c **** * Function Name: CapSense_CSD_Start
 408:Generated_Source\PSoC4/CapSense_CSD.c **** ********************************************************************************
 409:Generated_Source\PSoC4/CapSense_CSD.c **** *
 410:Generated_Source\PSoC4/CapSense_CSD.c **** * Summary:
 411:Generated_Source\PSoC4/CapSense_CSD.c **** *  This is the preferred method to begin the component operation. CapSense_Start()
 412:Generated_Source\PSoC4/CapSense_CSD.c **** *  calls the CapSense_Init() function, and then calls the CapSense_Enable()
 413:Generated_Source\PSoC4/CapSense_CSD.c **** *  function. Initializes the registers and starts the CSD method of the CapSense
 414:Generated_Source\PSoC4/CapSense_CSD.c **** *  component. Resets all the sensors to an inactive state. Enables interrupts for
 415:Generated_Source\PSoC4/CapSense_CSD.c **** *  sensors scanning. When the SmartSense tuning mode is selected, the tuning procedure
 416:Generated_Source\PSoC4/CapSense_CSD.c **** *  is applied for all the sensors. The CapSense_Start() routine must be called before
 417:Generated_Source\PSoC4/CapSense_CSD.c **** *  any other API routines.
 418:Generated_Source\PSoC4/CapSense_CSD.c **** *
 419:Generated_Source\PSoC4/CapSense_CSD.c **** * Parameters:
 420:Generated_Source\PSoC4/CapSense_CSD.c **** *  None
 421:Generated_Source\PSoC4/CapSense_CSD.c **** *
 422:Generated_Source\PSoC4/CapSense_CSD.c **** * Return:
 423:Generated_Source\PSoC4/CapSense_CSD.c **** *  None
 424:Generated_Source\PSoC4/CapSense_CSD.c **** *
 425:Generated_Source\PSoC4/CapSense_CSD.c **** * Global Variables:
 426:Generated_Source\PSoC4/CapSense_CSD.c **** *   CapSense_CSD_initVar - used to check the initial configuration,
 427:Generated_Source\PSoC4/CapSense_CSD.c **** *   modified on the first function call.
 428:Generated_Source\PSoC4/CapSense_CSD.c **** *  CapSense_CSD_lowLevelTuningDone - Used to notify the Tuner GUI that
 429:Generated_Source\PSoC4/CapSense_CSD.c **** *   tuning of the scanning parameters is done.
 430:Generated_Source\PSoC4/CapSense_CSD.c **** *
 431:Generated_Source\PSoC4/CapSense_CSD.c **** * Side Effects:
 432:Generated_Source\PSoC4/CapSense_CSD.c **** *  None
 433:Generated_Source\PSoC4/CapSense_CSD.c **** *
 434:Generated_Source\PSoC4/CapSense_CSD.c **** *******************************************************************************/
 435:Generated_Source\PSoC4/CapSense_CSD.c **** void CapSense_CSD_Start(void)
 436:Generated_Source\PSoC4/CapSense_CSD.c **** {
 521              		.loc 1 436 0
 522              		.cfi_startproc
 523              		@ args = 0, pretend = 0, frame = 16
 524              		@ frame_needed = 1, uses_anonymous_args = 0
 525 0000 80B5     		push	{r7, lr}
 526              		.cfi_def_cfa_offset 8
 527              		.cfi_offset 7, -8
ARM GAS  C:\Users\SHOZO\AppData\Local\Temp\ccpYscuc.s 			page 18


 528              		.cfi_offset 14, -4
 529 0002 84B0     		sub	sp, sp, #16
 530              		.cfi_def_cfa_offset 24
 531 0004 00AF     		add	r7, sp, #0
 532              		.cfi_def_cfa_register 7
 437:Generated_Source\PSoC4/CapSense_CSD.c **** 
 438:Generated_Source\PSoC4/CapSense_CSD.c ****     static uint8 CapSense_CSD_initVar = 0u;
 439:Generated_Source\PSoC4/CapSense_CSD.c **** 
 440:Generated_Source\PSoC4/CapSense_CSD.c ****     #if((0u != CapSense_CSD_AUTOCALIBRATION_ENABLE) && (CapSense_CSD_TUNING_METHOD != CapSense_CSD_
 441:Generated_Source\PSoC4/CapSense_CSD.c ****         uint32 curSensor;
 442:Generated_Source\PSoC4/CapSense_CSD.c ****         uint32 rawLevel;
 443:Generated_Source\PSoC4/CapSense_CSD.c ****         uint32 widget;
 444:Generated_Source\PSoC4/CapSense_CSD.c ****     #endif /* ((0u != CapSense_CSD_AUTOCALIBRATION_ENABLE) && (CapSense_CSD_TUNING_METHOD != CapSen
 445:Generated_Source\PSoC4/CapSense_CSD.c **** 
 446:Generated_Source\PSoC4/CapSense_CSD.c ****     if (CapSense_CSD_initVar == 0u)
 533              		.loc 1 446 0
 534 0006 344B     		ldr	r3, .L16
 535 0008 1B78     		ldrb	r3, [r3]
 536 000a 002B     		cmp	r3, #0
 537 000c 04D1     		bne	.L11
 447:Generated_Source\PSoC4/CapSense_CSD.c ****     {
 448:Generated_Source\PSoC4/CapSense_CSD.c ****         CapSense_CSD_Init();
 538              		.loc 1 448 0
 539 000e FFF7FEFF 		bl	CapSense_CSD_Init
 449:Generated_Source\PSoC4/CapSense_CSD.c ****         CapSense_CSD_initVar = 1u;
 540              		.loc 1 449 0
 541 0012 314B     		ldr	r3, .L16
 542 0014 0122     		movs	r2, #1
 543 0016 1A70     		strb	r2, [r3]
 544              	.L11:
 450:Generated_Source\PSoC4/CapSense_CSD.c ****     }
 451:Generated_Source\PSoC4/CapSense_CSD.c ****     CapSense_CSD_Enable();
 545              		.loc 1 451 0
 546 0018 FFF7FEFF 		bl	CapSense_CSD_Enable
 452:Generated_Source\PSoC4/CapSense_CSD.c **** 
 453:Generated_Source\PSoC4/CapSense_CSD.c ****     /* AutoTunning start */
 454:Generated_Source\PSoC4/CapSense_CSD.c ****     #if(CapSense_CSD_TUNING_METHOD == CapSense_CSD__TUNING_AUTO)
 455:Generated_Source\PSoC4/CapSense_CSD.c ****         #if(0u != CapSense_CSD_CSHL_API_GENERATE)
 456:Generated_Source\PSoC4/CapSense_CSD.c ****             CapSense_CSD_AutoTune();
 457:Generated_Source\PSoC4/CapSense_CSD.c ****             CapSense_CSD_lowLevelTuningDone = 1u;
 458:Generated_Source\PSoC4/CapSense_CSD.c ****         #endif /* (0u != CapSense_CSD_CSHL_API_GENERATE) */
 459:Generated_Source\PSoC4/CapSense_CSD.c ****     #else
 460:Generated_Source\PSoC4/CapSense_CSD.c ****         #if(0u != CapSense_CSD_AUTOCALIBRATION_ENABLE)
 461:Generated_Source\PSoC4/CapSense_CSD.c **** 
 462:Generated_Source\PSoC4/CapSense_CSD.c ****             #if(CapSense_CSD_IDAC_CNT > 1u)
 463:Generated_Source\PSoC4/CapSense_CSD.c ****                 CapSense_CSD_CSD_IDAC_REG &= ~(CapSense_CSD_CSD_IDAC2_MODE_MASK);
 547              		.loc 1 463 0
 548 001c 2F4B     		ldr	r3, .L16+4
 549 001e 2F4A     		ldr	r2, .L16+4
 550 0020 1268     		ldr	r2, [r2]
 551 0022 2F49     		ldr	r1, .L16+8
 552 0024 0A40     		ands	r2, r1
 553 0026 1A60     		str	r2, [r3]
 464:Generated_Source\PSoC4/CapSense_CSD.c ****             #endif /* (CapSense_CSD_IDAC_CNT > 1u) */
 465:Generated_Source\PSoC4/CapSense_CSD.c **** 
 466:Generated_Source\PSoC4/CapSense_CSD.c ****             for(curSensor = 0u; curSensor < CapSense_CSD_TOTAL_SCANSLOT_COUNT; curSensor++)
 554              		.loc 1 466 0
ARM GAS  C:\Users\SHOZO\AppData\Local\Temp\ccpYscuc.s 			page 19


 555 0028 0023     		movs	r3, #0
 556 002a FB60     		str	r3, [r7, #12]
 557 002c 1FE0     		b	.L12
 558              	.L13:
 467:Generated_Source\PSoC4/CapSense_CSD.c ****             {
 468:Generated_Source\PSoC4/CapSense_CSD.c ****                 widget = CapSense_CSD_widgetNumber[curSensor];
 559              		.loc 1 468 0 discriminator 3
 560 002e 2D4A     		ldr	r2, .L16+12
 561 0030 FB68     		ldr	r3, [r7, #12]
 562 0032 D318     		adds	r3, r2, r3
 563 0034 1B78     		ldrb	r3, [r3]
 564 0036 BB60     		str	r3, [r7, #8]
 469:Generated_Source\PSoC4/CapSense_CSD.c ****                 rawLevel = CapSense_CSD_widgetResolution[widget] >> CapSense_CSD_RESOLUTION_OFFSET;
 565              		.loc 1 469 0 discriminator 3
 566 0038 2B4B     		ldr	r3, .L16+16
 567 003a BA68     		ldr	r2, [r7, #8]
 568 003c 9200     		lsls	r2, r2, #2
 569 003e D358     		ldr	r3, [r2, r3]
 570 0040 1B0C     		lsrs	r3, r3, #16
 571 0042 7B60     		str	r3, [r7, #4]
 470:Generated_Source\PSoC4/CapSense_CSD.c **** 
 471:Generated_Source\PSoC4/CapSense_CSD.c ****                 /* Calibration level should be equal to 85% from scanning resolution */
 472:Generated_Source\PSoC4/CapSense_CSD.c ****                 rawLevel = (rawLevel * 85u) / 100u;
 572              		.loc 1 472 0 discriminator 3
 573 0044 7A68     		ldr	r2, [r7, #4]
 574 0046 1300     		movs	r3, r2
 575 0048 9B00     		lsls	r3, r3, #2
 576 004a 9B18     		adds	r3, r3, r2
 577 004c 1A01     		lsls	r2, r3, #4
 578 004e 9B18     		adds	r3, r3, r2
 579 0050 6421     		movs	r1, #100
 580 0052 1800     		movs	r0, r3
 581 0054 FFF7FEFF 		bl	__aeabi_uidiv
 582 0058 0300     		movs	r3, r0
 583 005a 7B60     		str	r3, [r7, #4]
 473:Generated_Source\PSoC4/CapSense_CSD.c **** 
 474:Generated_Source\PSoC4/CapSense_CSD.c ****                 CapSense_CSD_CalibrateSensor(curSensor, rawLevel, CapSense_CSD_modulationIDAC);
 584              		.loc 1 474 0 discriminator 3
 585 005c 234A     		ldr	r2, .L16+20
 586 005e 7968     		ldr	r1, [r7, #4]
 587 0060 FB68     		ldr	r3, [r7, #12]
 588 0062 1800     		movs	r0, r3
 589 0064 FFF7FEFF 		bl	CapSense_CSD_CalibrateSensor
 466:Generated_Source\PSoC4/CapSense_CSD.c ****             {
 590              		.loc 1 466 0 discriminator 3
 591 0068 FB68     		ldr	r3, [r7, #12]
 592 006a 0133     		adds	r3, r3, #1
 593 006c FB60     		str	r3, [r7, #12]
 594              	.L12:
 466:Generated_Source\PSoC4/CapSense_CSD.c ****             {
 595              		.loc 1 466 0 is_stmt 0 discriminator 1
 596 006e FB68     		ldr	r3, [r7, #12]
 597 0070 0C2B     		cmp	r3, #12
 598 0072 DCD9     		bls	.L13
 475:Generated_Source\PSoC4/CapSense_CSD.c ****             }
 476:Generated_Source\PSoC4/CapSense_CSD.c **** 
 477:Generated_Source\PSoC4/CapSense_CSD.c ****             #if(0u != CapSense_CSD_TOTAL_CENTROIDS_COUNT)
ARM GAS  C:\Users\SHOZO\AppData\Local\Temp\ccpYscuc.s 			page 20


 478:Generated_Source\PSoC4/CapSense_CSD.c ****                 CapSense_CSD_NormalizeWidgets(CapSense_CSD_END_OF_WIDGETS_INDEX, CapSense_CSD_modul
 479:Generated_Source\PSoC4/CapSense_CSD.c ****             #endif /* (0u != CapSense_CSD_TOTAL_CENTROIDS_COUNT)  */
 480:Generated_Source\PSoC4/CapSense_CSD.c **** 
 481:Generated_Source\PSoC4/CapSense_CSD.c ****             #if(CapSense_CSD_IDAC_CNT > 1u)
 482:Generated_Source\PSoC4/CapSense_CSD.c ****                 for(curSensor = 0u; curSensor < CapSense_CSD_TOTAL_SCANSLOT_COUNT; curSensor++)
 599              		.loc 1 482 0 is_stmt 1
 600 0074 0023     		movs	r3, #0
 601 0076 FB60     		str	r3, [r7, #12]
 602 0078 19E0     		b	.L14
 603              	.L15:
 483:Generated_Source\PSoC4/CapSense_CSD.c ****                 {
 484:Generated_Source\PSoC4/CapSense_CSD.c ****                     CapSense_CSD_compensationIDAC[curSensor] = CapSense_CSD_modulationIDAC[curSenso
 604              		.loc 1 484 0 discriminator 3
 605 007a 1C4A     		ldr	r2, .L16+20
 606 007c FB68     		ldr	r3, [r7, #12]
 607 007e D318     		adds	r3, r2, r3
 608 0080 1B78     		ldrb	r3, [r3]
 609 0082 5B08     		lsrs	r3, r3, #1
 610 0084 D9B2     		uxtb	r1, r3
 611 0086 1A4A     		ldr	r2, .L16+24
 612 0088 FB68     		ldr	r3, [r7, #12]
 613 008a D318     		adds	r3, r2, r3
 614 008c 0A1C     		adds	r2, r1, #0
 615 008e 1A70     		strb	r2, [r3]
 485:Generated_Source\PSoC4/CapSense_CSD.c ****                     CapSense_CSD_modulationIDAC[curSensor] = (CapSense_CSD_modulationIDAC[curSensor
 616              		.loc 1 485 0 discriminator 3
 617 0090 164A     		ldr	r2, .L16+20
 618 0092 FB68     		ldr	r3, [r7, #12]
 619 0094 D318     		adds	r3, r2, r3
 620 0096 1B78     		ldrb	r3, [r3]
 621 0098 0133     		adds	r3, r3, #1
 622 009a 5B08     		lsrs	r3, r3, #1
 623 009c D9B2     		uxtb	r1, r3
 624 009e 134A     		ldr	r2, .L16+20
 625 00a0 FB68     		ldr	r3, [r7, #12]
 626 00a2 D318     		adds	r3, r2, r3
 627 00a4 0A1C     		adds	r2, r1, #0
 628 00a6 1A70     		strb	r2, [r3]
 482:Generated_Source\PSoC4/CapSense_CSD.c ****                 {
 629              		.loc 1 482 0 discriminator 3
 630 00a8 FB68     		ldr	r3, [r7, #12]
 631 00aa 0133     		adds	r3, r3, #1
 632 00ac FB60     		str	r3, [r7, #12]
 633              	.L14:
 482:Generated_Source\PSoC4/CapSense_CSD.c ****                 {
 634              		.loc 1 482 0 is_stmt 0 discriminator 1
 635 00ae FB68     		ldr	r3, [r7, #12]
 636 00b0 0C2B     		cmp	r3, #12
 637 00b2 E2D9     		bls	.L15
 486:Generated_Source\PSoC4/CapSense_CSD.c ****                 }
 487:Generated_Source\PSoC4/CapSense_CSD.c ****                 CapSense_CSD_CSD_IDAC_REG |= CapSense_CSD_CSD_IDAC2_MODE_FIXED;
 638              		.loc 1 487 0 is_stmt 1
 639 00b4 094B     		ldr	r3, .L16+4
 640 00b6 094A     		ldr	r2, .L16+4
 641 00b8 1268     		ldr	r2, [r2]
 642 00ba 8021     		movs	r1, #128
 643 00bc 4904     		lsls	r1, r1, #17
ARM GAS  C:\Users\SHOZO\AppData\Local\Temp\ccpYscuc.s 			page 21


 644 00be 0A43     		orrs	r2, r1
 645 00c0 1A60     		str	r2, [r3]
 488:Generated_Source\PSoC4/CapSense_CSD.c ****             #endif /* (CapSense_CSD_IDAC_CNT > 1u) */
 489:Generated_Source\PSoC4/CapSense_CSD.c **** 
 490:Generated_Source\PSoC4/CapSense_CSD.c ****         #endif /* (0u != CapSense_CSD_AUTOCALIBRATION_ENABLE) */
 491:Generated_Source\PSoC4/CapSense_CSD.c **** 
 492:Generated_Source\PSoC4/CapSense_CSD.c ****     #endif /* ((CapSense_CSD_TUNING_METHOD == CapSense_CSD__TUNING_AUTO) */
 493:Generated_Source\PSoC4/CapSense_CSD.c **** 
 494:Generated_Source\PSoC4/CapSense_CSD.c ****     /* Initialize Advanced Centroid */
 495:Generated_Source\PSoC4/CapSense_CSD.c ****     #if(CapSense_CSD_TOTAL_TRACKPAD_GESTURES_COUNT > 0u)
 496:Generated_Source\PSoC4/CapSense_CSD.c ****         CapSense_CSD_AdvancedCentroidInit();
 497:Generated_Source\PSoC4/CapSense_CSD.c ****     #endif /* (CapSense_CSD_TOTAL_TRACKPAD_GESTURES_COUNT > 0u) */
 498:Generated_Source\PSoC4/CapSense_CSD.c **** 
 499:Generated_Source\PSoC4/CapSense_CSD.c ****     /* Connect sense comparator input to AMUXA */
 500:Generated_Source\PSoC4/CapSense_CSD.c ****     CapSense_CSD_CSD_CFG_REG |= CapSense_CSD_CSD_CFG_SENSE_INSEL;
 646              		.loc 1 500 0
 647 00c2 0C4B     		ldr	r3, .L16+28
 648 00c4 0B4A     		ldr	r2, .L16+28
 649 00c6 1268     		ldr	r2, [r2]
 650 00c8 8021     		movs	r1, #128
 651 00ca C903     		lsls	r1, r1, #15
 652 00cc 0A43     		orrs	r2, r1
 653 00ce 1A60     		str	r2, [r3]
 501:Generated_Source\PSoC4/CapSense_CSD.c **** }
 654              		.loc 1 501 0
 655 00d0 C046     		nop
 656 00d2 BD46     		mov	sp, r7
 657 00d4 04B0     		add	sp, sp, #16
 658              		@ sp needed
 659 00d6 80BD     		pop	{r7, pc}
 660              	.L17:
 661              		.align	2
 662              	.L16:
 663 00d8 1E000000 		.word	CapSense_CSD_initVar.5377
 664 00dc 08000840 		.word	1074266120
 665 00e0 FFFFFFFC 		.word	-50331649
 666 00e4 00000000 		.word	CapSense_CSD_widgetNumber
 667 00e8 00000000 		.word	CapSense_CSD_widgetResolution
 668 00ec 00000000 		.word	CapSense_CSD_modulationIDAC
 669 00f0 00000000 		.word	CapSense_CSD_compensationIDAC
 670 00f4 04000840 		.word	1074266116
 671              		.cfi_endproc
 672              	.LFE35:
 673              		.size	CapSense_CSD_Start, .-CapSense_CSD_Start
 674              		.section	.text.CapSense_CSD_Stop,"ax",%progbits
 675              		.align	2
 676              		.global	CapSense_CSD_Stop
 677              		.code	16
 678              		.thumb_func
 679              		.type	CapSense_CSD_Stop, %function
 680              	CapSense_CSD_Stop:
 681              	.LFB36:
 502:Generated_Source\PSoC4/CapSense_CSD.c **** 
 503:Generated_Source\PSoC4/CapSense_CSD.c **** 
 504:Generated_Source\PSoC4/CapSense_CSD.c **** /*******************************************************************************
 505:Generated_Source\PSoC4/CapSense_CSD.c **** * Function Name: CapSense_CSD_Stop
 506:Generated_Source\PSoC4/CapSense_CSD.c **** ********************************************************************************
ARM GAS  C:\Users\SHOZO\AppData\Local\Temp\ccpYscuc.s 			page 22


 507:Generated_Source\PSoC4/CapSense_CSD.c **** *
 508:Generated_Source\PSoC4/CapSense_CSD.c **** * Summary:
 509:Generated_Source\PSoC4/CapSense_CSD.c **** *  Stops the sensor scanning, disables component interrupts, and resets all the
 510:Generated_Source\PSoC4/CapSense_CSD.c **** *  sensors to an inactive state. Disables the Active mode power template bits for
 511:Generated_Source\PSoC4/CapSense_CSD.c **** *  the subcomponents used within CapSense.
 512:Generated_Source\PSoC4/CapSense_CSD.c **** *
 513:Generated_Source\PSoC4/CapSense_CSD.c **** * Parameters:
 514:Generated_Source\PSoC4/CapSense_CSD.c **** *  None
 515:Generated_Source\PSoC4/CapSense_CSD.c **** *
 516:Generated_Source\PSoC4/CapSense_CSD.c **** * Return:
 517:Generated_Source\PSoC4/CapSense_CSD.c **** *  None
 518:Generated_Source\PSoC4/CapSense_CSD.c **** *
 519:Generated_Source\PSoC4/CapSense_CSD.c **** * Global Variables:
 520:Generated_Source\PSoC4/CapSense_CSD.c **** *  CapSense_CSD_csdTrim1 - Contains the IDAC trim register value for the Sourcing Mode.
 521:Generated_Source\PSoC4/CapSense_CSD.c **** *  CapSense_CSD_csdTrim2 - Contains the IDAC trim register value for vSinking Mode.
 522:Generated_Source\PSoC4/CapSense_CSD.c **** *
 523:Generated_Source\PSoC4/CapSense_CSD.c **** * Side Effects:
 524:Generated_Source\PSoC4/CapSense_CSD.c **** *  This function should be called after scans are completed.
 525:Generated_Source\PSoC4/CapSense_CSD.c **** *
 526:Generated_Source\PSoC4/CapSense_CSD.c **** *******************************************************************************/
 527:Generated_Source\PSoC4/CapSense_CSD.c **** void CapSense_CSD_Stop(void)
 528:Generated_Source\PSoC4/CapSense_CSD.c **** {
 682              		.loc 1 528 0
 683              		.cfi_startproc
 684              		@ args = 0, pretend = 0, frame = 0
 685              		@ frame_needed = 1, uses_anonymous_args = 0
 686 0000 80B5     		push	{r7, lr}
 687              		.cfi_def_cfa_offset 8
 688              		.cfi_offset 7, -8
 689              		.cfi_offset 14, -4
 690 0002 00AF     		add	r7, sp, #0
 691              		.cfi_def_cfa_register 7
 529:Generated_Source\PSoC4/CapSense_CSD.c ****     /* Disable interrupt */
 530:Generated_Source\PSoC4/CapSense_CSD.c ****     CyIntDisable(CapSense_CSD_ISR_NUMBER);
 692              		.loc 1 530 0
 693 0004 0F20     		movs	r0, #15
 694 0006 FFF7FEFF 		bl	CyIntDisable
 531:Generated_Source\PSoC4/CapSense_CSD.c **** 
 532:Generated_Source\PSoC4/CapSense_CSD.c ****     CapSense_CSD_CSD_CFG_REG &= ~(CapSense_CSD_CSD_CFG_SENSE_COMP_EN | CapSense_CSD_CSD_CFG_SENSE_E
 695              		.loc 1 532 0
 696 000a 094B     		ldr	r3, .L19
 697 000c 084A     		ldr	r2, .L19
 698 000e 1268     		ldr	r2, [r2]
 699 0010 0849     		ldr	r1, .L19+4
 700 0012 0A40     		ands	r2, r1
 701 0014 1A60     		str	r2, [r3]
 533:Generated_Source\PSoC4/CapSense_CSD.c **** 
 534:Generated_Source\PSoC4/CapSense_CSD.c ****     #if(CapSense_CSD_IDAC_CNT == 2u)
 535:Generated_Source\PSoC4/CapSense_CSD.c ****         CapSense_CSD_CSD_CFG_REG &= ~(CapSense_CSD_CSD_CFG_ENABLE);
 702              		.loc 1 535 0
 703 0016 064B     		ldr	r3, .L19
 704 0018 054A     		ldr	r2, .L19
 705 001a 1268     		ldr	r2, [r2]
 706 001c 5200     		lsls	r2, r2, #1
 707 001e 5208     		lsrs	r2, r2, #1
 708 0020 1A60     		str	r2, [r3]
 536:Generated_Source\PSoC4/CapSense_CSD.c ****     #endif /* (CapSense_CSD_IDAC_CNT == 2u) */
ARM GAS  C:\Users\SHOZO\AppData\Local\Temp\ccpYscuc.s 			page 23


 537:Generated_Source\PSoC4/CapSense_CSD.c **** 
 538:Generated_Source\PSoC4/CapSense_CSD.c ****     /* Disable the Clocks */
 539:Generated_Source\PSoC4/CapSense_CSD.c ****     CapSense_CSD_SenseClk_Stop();
 709              		.loc 1 539 0
 710 0022 FFF7FEFF 		bl	CapSense_CSD_SenseClk_Stop
 540:Generated_Source\PSoC4/CapSense_CSD.c ****     CapSense_CSD_SampleClk_Stop();
 711              		.loc 1 540 0
 712 0026 FFF7FEFF 		bl	CapSense_CSD_SampleClk_Stop
 541:Generated_Source\PSoC4/CapSense_CSD.c **** }
 713              		.loc 1 541 0
 714 002a C046     		nop
 715 002c BD46     		mov	sp, r7
 716              		@ sp needed
 717 002e 80BD     		pop	{r7, pc}
 718              	.L20:
 719              		.align	2
 720              	.L19:
 721 0030 04000840 		.word	1074266116
 722 0034 FFEFF7FF 		.word	-528385
 723              		.cfi_endproc
 724              	.LFE36:
 725              		.size	CapSense_CSD_Stop, .-CapSense_CSD_Stop
 726              		.section	.text.CapSense_CSD_FindNextSensor,"ax",%progbits
 727              		.align	2
 728              		.global	CapSense_CSD_FindNextSensor
 729              		.code	16
 730              		.thumb_func
 731              		.type	CapSense_CSD_FindNextSensor, %function
 732              	CapSense_CSD_FindNextSensor:
 733              	.LFB37:
 542:Generated_Source\PSoC4/CapSense_CSD.c **** 
 543:Generated_Source\PSoC4/CapSense_CSD.c **** 
 544:Generated_Source\PSoC4/CapSense_CSD.c **** /*******************************************************************************
 545:Generated_Source\PSoC4/CapSense_CSD.c **** * Function Name: CapSense_CSD_FindNextSensor
 546:Generated_Source\PSoC4/CapSense_CSD.c **** ********************************************************************************
 547:Generated_Source\PSoC4/CapSense_CSD.c **** *
 548:Generated_Source\PSoC4/CapSense_CSD.c **** * Summary:
 549:Generated_Source\PSoC4/CapSense_CSD.c **** *  Finds the next sensor to scan.
 550:Generated_Source\PSoC4/CapSense_CSD.c **** *
 551:Generated_Source\PSoC4/CapSense_CSD.c **** * Parameters:
 552:Generated_Source\PSoC4/CapSense_CSD.c **** *  snsIndex:  Current index of sensor.
 553:Generated_Source\PSoC4/CapSense_CSD.c **** *
 554:Generated_Source\PSoC4/CapSense_CSD.c **** * Return:
 555:Generated_Source\PSoC4/CapSense_CSD.c **** *  Returns the next sensor index to scan.
 556:Generated_Source\PSoC4/CapSense_CSD.c **** *
 557:Generated_Source\PSoC4/CapSense_CSD.c **** * Global Variables:
 558:Generated_Source\PSoC4/CapSense_CSD.c **** *  CapSense_CSD_sensorEnableMask[] - used to store bit masks of the enabled sensors.
 559:Generated_Source\PSoC4/CapSense_CSD.c **** *
 560:Generated_Source\PSoC4/CapSense_CSD.c **** * Side Effects:
 561:Generated_Source\PSoC4/CapSense_CSD.c **** *  This function affects the  current scanning and should not
 562:Generated_Source\PSoC4/CapSense_CSD.c **** *  be used outside the component.
 563:Generated_Source\PSoC4/CapSense_CSD.c **** *
 564:Generated_Source\PSoC4/CapSense_CSD.c **** *******************************************************************************/
 565:Generated_Source\PSoC4/CapSense_CSD.c **** uint8 CapSense_CSD_FindNextSensor(uint8 snsIndex)
 566:Generated_Source\PSoC4/CapSense_CSD.c **** {
 734              		.loc 1 566 0
 735              		.cfi_startproc
ARM GAS  C:\Users\SHOZO\AppData\Local\Temp\ccpYscuc.s 			page 24


 736              		@ args = 0, pretend = 0, frame = 16
 737              		@ frame_needed = 1, uses_anonymous_args = 0
 738 0000 80B5     		push	{r7, lr}
 739              		.cfi_def_cfa_offset 8
 740              		.cfi_offset 7, -8
 741              		.cfi_offset 14, -4
 742 0002 84B0     		sub	sp, sp, #16
 743              		.cfi_def_cfa_offset 24
 744 0004 00AF     		add	r7, sp, #0
 745              		.cfi_def_cfa_register 7
 746 0006 0200     		movs	r2, r0
 747 0008 FB1D     		adds	r3, r7, #7
 748 000a 1A70     		strb	r2, [r3]
 749              	.L24:
 567:Generated_Source\PSoC4/CapSense_CSD.c ****     uint32 enableFlag;
 568:Generated_Source\PSoC4/CapSense_CSD.c **** 
 569:Generated_Source\PSoC4/CapSense_CSD.c ****     /* Check if sensor enabled */
 570:Generated_Source\PSoC4/CapSense_CSD.c ****     do
 571:Generated_Source\PSoC4/CapSense_CSD.c ****     {
 572:Generated_Source\PSoC4/CapSense_CSD.c ****         /* Proceed with next sensor */
 573:Generated_Source\PSoC4/CapSense_CSD.c ****         snsIndex++;
 750              		.loc 1 573 0
 751 000c FB1D     		adds	r3, r7, #7
 752 000e 1A78     		ldrb	r2, [r3]
 753 0010 FB1D     		adds	r3, r7, #7
 754 0012 0132     		adds	r2, r2, #1
 755 0014 1A70     		strb	r2, [r3]
 574:Generated_Source\PSoC4/CapSense_CSD.c ****         if(snsIndex == CapSense_CSD_TOTAL_SENSOR_COUNT)
 756              		.loc 1 574 0
 757 0016 FB1D     		adds	r3, r7, #7
 758 0018 1B78     		ldrb	r3, [r3]
 759 001a 0D2B     		cmp	r3, #13
 760 001c 0CD0     		beq	.L26
 575:Generated_Source\PSoC4/CapSense_CSD.c ****         {
 576:Generated_Source\PSoC4/CapSense_CSD.c ****             break;
 577:Generated_Source\PSoC4/CapSense_CSD.c ****         }
 578:Generated_Source\PSoC4/CapSense_CSD.c ****         enableFlag = CapSense_CSD_GetBitValue(CapSense_CSD_sensorEnableMask, (uint32)snsIndex);
 761              		.loc 1 578 0
 762 001e FB1D     		adds	r3, r7, #7
 763 0020 1A78     		ldrb	r2, [r3]
 764 0022 094B     		ldr	r3, .L27
 765 0024 1100     		movs	r1, r2
 766 0026 1800     		movs	r0, r3
 767 0028 FFF7FEFF 		bl	CapSense_CSD_GetBitValue
 768 002c 0300     		movs	r3, r0
 769 002e FB60     		str	r3, [r7, #12]
 579:Generated_Source\PSoC4/CapSense_CSD.c ****     }
 580:Generated_Source\PSoC4/CapSense_CSD.c ****     while(enableFlag == 0u);
 770              		.loc 1 580 0
 771 0030 FB68     		ldr	r3, [r7, #12]
 772 0032 002B     		cmp	r3, #0
 773 0034 EAD0     		beq	.L24
 774 0036 00E0     		b	.L23
 775              	.L26:
 576:Generated_Source\PSoC4/CapSense_CSD.c ****         }
 776              		.loc 1 576 0
 777 0038 C046     		nop
ARM GAS  C:\Users\SHOZO\AppData\Local\Temp\ccpYscuc.s 			page 25


 778              	.L23:
 581:Generated_Source\PSoC4/CapSense_CSD.c **** 
 582:Generated_Source\PSoC4/CapSense_CSD.c ****     return ((uint8)snsIndex);
 779              		.loc 1 582 0
 780 003a FB1D     		adds	r3, r7, #7
 781 003c 1B78     		ldrb	r3, [r3]
 583:Generated_Source\PSoC4/CapSense_CSD.c **** }
 782              		.loc 1 583 0
 783 003e 1800     		movs	r0, r3
 784 0040 BD46     		mov	sp, r7
 785 0042 04B0     		add	sp, sp, #16
 786              		@ sp needed
 787 0044 80BD     		pop	{r7, pc}
 788              	.L28:
 789 0046 C046     		.align	2
 790              	.L27:
 791 0048 00000000 		.word	CapSense_CSD_sensorEnableMask
 792              		.cfi_endproc
 793              	.LFE37:
 794              		.size	CapSense_CSD_FindNextSensor, .-CapSense_CSD_FindNextSensor
 795              		.section	.text.CapSense_CSD_ScanSensor,"ax",%progbits
 796              		.align	2
 797              		.global	CapSense_CSD_ScanSensor
 798              		.code	16
 799              		.thumb_func
 800              		.type	CapSense_CSD_ScanSensor, %function
 801              	CapSense_CSD_ScanSensor:
 802              	.LFB38:
 584:Generated_Source\PSoC4/CapSense_CSD.c **** 
 585:Generated_Source\PSoC4/CapSense_CSD.c **** 
 586:Generated_Source\PSoC4/CapSense_CSD.c **** /*******************************************************************************
 587:Generated_Source\PSoC4/CapSense_CSD.c **** * Function Name: CapSense_CSD_ScanSensor
 588:Generated_Source\PSoC4/CapSense_CSD.c **** ********************************************************************************
 589:Generated_Source\PSoC4/CapSense_CSD.c **** *
 590:Generated_Source\PSoC4/CapSense_CSD.c **** * Summary:
 591:Generated_Source\PSoC4/CapSense_CSD.c **** *  Sets the scan settings and starts scanning a sensor. After scanning is complete,
 592:Generated_Source\PSoC4/CapSense_CSD.c **** *  the ISR copies the measured sensor raw data to the global raw sensor array.
 593:Generated_Source\PSoC4/CapSense_CSD.c **** *  Use of the ISR ensures this function is non-blocking.
 594:Generated_Source\PSoC4/CapSense_CSD.c **** *  Each sensor has a unique number within the sensor array.
 595:Generated_Source\PSoC4/CapSense_CSD.c **** *  This number is assigned by the CapSense customizer in sequence.
 596:Generated_Source\PSoC4/CapSense_CSD.c **** *
 597:Generated_Source\PSoC4/CapSense_CSD.c **** * Parameters:
 598:Generated_Source\PSoC4/CapSense_CSD.c **** *  sensor:  Sensor number.
 599:Generated_Source\PSoC4/CapSense_CSD.c **** *
 600:Generated_Source\PSoC4/CapSense_CSD.c **** * Return:
 601:Generated_Source\PSoC4/CapSense_CSD.c **** *  None
 602:Generated_Source\PSoC4/CapSense_CSD.c **** *
 603:Generated_Source\PSoC4/CapSense_CSD.c **** * Global Variables:
 604:Generated_Source\PSoC4/CapSense_CSD.c **** *  CapSense_CSD_csdStatusVar - used to provide the status and mode of the scanning process.
 605:Generated_Source\PSoC4/CapSense_CSD.c **** *  Sets the busy status(scan in progress) and mode of scan as single scan.
 606:Generated_Source\PSoC4/CapSense_CSD.c **** *  CapSense_CSD_sensorIndex - used to store a sensor scanning sensor number.
 607:Generated_Source\PSoC4/CapSense_CSD.c **** *  Sets to the provided sensor argument.
 608:Generated_Source\PSoC4/CapSense_CSD.c **** *
 609:Generated_Source\PSoC4/CapSense_CSD.c **** * Side Effects:
 610:Generated_Source\PSoC4/CapSense_CSD.c **** *  None
 611:Generated_Source\PSoC4/CapSense_CSD.c **** *
 612:Generated_Source\PSoC4/CapSense_CSD.c **** *******************************************************************************/
ARM GAS  C:\Users\SHOZO\AppData\Local\Temp\ccpYscuc.s 			page 26


 613:Generated_Source\PSoC4/CapSense_CSD.c **** void CapSense_CSD_ScanSensor(uint32 sensor)
 614:Generated_Source\PSoC4/CapSense_CSD.c **** {
 803              		.loc 1 614 0
 804              		.cfi_startproc
 805              		@ args = 0, pretend = 0, frame = 8
 806              		@ frame_needed = 1, uses_anonymous_args = 0
 807 0000 80B5     		push	{r7, lr}
 808              		.cfi_def_cfa_offset 8
 809              		.cfi_offset 7, -8
 810              		.cfi_offset 14, -4
 811 0002 82B0     		sub	sp, sp, #8
 812              		.cfi_def_cfa_offset 16
 813 0004 00AF     		add	r7, sp, #0
 814              		.cfi_def_cfa_register 7
 815 0006 7860     		str	r0, [r7, #4]
 615:Generated_Source\PSoC4/CapSense_CSD.c ****     /* Clears status/control variable and set sensorIndex */
 616:Generated_Source\PSoC4/CapSense_CSD.c ****     CapSense_CSD_csdStatusVar = 0u;
 816              		.loc 1 616 0
 817 0008 084B     		ldr	r3, .L30
 818 000a 0022     		movs	r2, #0
 819 000c 1A70     		strb	r2, [r3]
 617:Generated_Source\PSoC4/CapSense_CSD.c ****     CapSense_CSD_sensorIndex = (uint8)sensor;
 820              		.loc 1 617 0
 821 000e 7B68     		ldr	r3, [r7, #4]
 822 0010 DAB2     		uxtb	r2, r3
 823 0012 074B     		ldr	r3, .L30+4
 824 0014 1A70     		strb	r2, [r3]
 618:Generated_Source\PSoC4/CapSense_CSD.c **** 
 619:Generated_Source\PSoC4/CapSense_CSD.c ****     /* Start of sensor scan */
 620:Generated_Source\PSoC4/CapSense_CSD.c ****     CapSense_CSD_csdStatusVar = (CapSense_CSD_SW_STS_BUSY | CapSense_CSD_SW_CTRL_SINGLE_SCAN);
 825              		.loc 1 620 0
 826 0016 054B     		ldr	r3, .L30
 827 0018 8122     		movs	r2, #129
 828 001a 1A70     		strb	r2, [r3]
 621:Generated_Source\PSoC4/CapSense_CSD.c ****     CapSense_CSD_PreScan(sensor);
 829              		.loc 1 621 0
 830 001c 7B68     		ldr	r3, [r7, #4]
 831 001e 1800     		movs	r0, r3
 832 0020 FFF7FEFF 		bl	CapSense_CSD_PreScan
 622:Generated_Source\PSoC4/CapSense_CSD.c **** }
 833              		.loc 1 622 0
 834 0024 C046     		nop
 835 0026 BD46     		mov	sp, r7
 836 0028 02B0     		add	sp, sp, #8
 837              		@ sp needed
 838 002a 80BD     		pop	{r7, pc}
 839              	.L31:
 840              		.align	2
 841              	.L30:
 842 002c 00000000 		.word	CapSense_CSD_csdStatusVar
 843 0030 00000000 		.word	CapSense_CSD_sensorIndex
 844              		.cfi_endproc
 845              	.LFE38:
 846              		.size	CapSense_CSD_ScanSensor, .-CapSense_CSD_ScanSensor
 847              		.section	.text.CapSense_CSD_ScanWidget,"ax",%progbits
 848              		.align	2
 849              		.global	CapSense_CSD_ScanWidget
ARM GAS  C:\Users\SHOZO\AppData\Local\Temp\ccpYscuc.s 			page 27


 850              		.code	16
 851              		.thumb_func
 852              		.type	CapSense_CSD_ScanWidget, %function
 853              	CapSense_CSD_ScanWidget:
 854              	.LFB39:
 623:Generated_Source\PSoC4/CapSense_CSD.c **** 
 624:Generated_Source\PSoC4/CapSense_CSD.c **** 
 625:Generated_Source\PSoC4/CapSense_CSD.c **** #if(0u != CapSense_CSD_CSHL_API_GENERATE)
 626:Generated_Source\PSoC4/CapSense_CSD.c **** /*******************************************************************************
 627:Generated_Source\PSoC4/CapSense_CSD.c **** * Function Name: CapSense_CSD_ScanWidget
 628:Generated_Source\PSoC4/CapSense_CSD.c **** ********************************************************************************
 629:Generated_Source\PSoC4/CapSense_CSD.c **** *
 630:Generated_Source\PSoC4/CapSense_CSD.c **** * Summary:
 631:Generated_Source\PSoC4/CapSense_CSD.c **** *  Sets the scan settings and starts scanning a widget.
 632:Generated_Source\PSoC4/CapSense_CSD.c **** *
 633:Generated_Source\PSoC4/CapSense_CSD.c **** * Parameters:
 634:Generated_Source\PSoC4/CapSense_CSD.c **** *  uint32 widget: Widget number.
 635:Generated_Source\PSoC4/CapSense_CSD.c **** *
 636:Generated_Source\PSoC4/CapSense_CSD.c **** * Return:
 637:Generated_Source\PSoC4/CapSense_CSD.c **** *  None
 638:Generated_Source\PSoC4/CapSense_CSD.c **** *
 639:Generated_Source\PSoC4/CapSense_CSD.c **** * Global Variables:
 640:Generated_Source\PSoC4/CapSense_CSD.c **** *  CapSense_CSD_csdStatusVar - used to provide the status and mode of the scanning process.
 641:Generated_Source\PSoC4/CapSense_CSD.c **** *  Sets the busy status(scan in progress) and clears the single scan mode.
 642:Generated_Source\PSoC4/CapSense_CSD.c **** *  CapSense_CSD_sensorIndex - used to store a sensor scanning sensor number.
 643:Generated_Source\PSoC4/CapSense_CSD.c **** *  Sets to 0xFF and provided to function CapSense_CSD_FindNextSensor or
 644:Generated_Source\PSoC4/CapSense_CSD.c **** *  CapSense_CSD_sensorEnableMask[] - used to store bit masks of the enabled sensors.
 645:Generated_Source\PSoC4/CapSense_CSD.c **** *  CapSense_CSD_sensorEnableMaskBackup[] - used to backup bit masks of the enabled
 646:Generated_Source\PSoC4/CapSense_CSD.c **** *   sensors.
 647:Generated_Source\PSoC4/CapSense_CSD.c **** *
 648:Generated_Source\PSoC4/CapSense_CSD.c **** * Side Effects:
 649:Generated_Source\PSoC4/CapSense_CSD.c **** *  None
 650:Generated_Source\PSoC4/CapSense_CSD.c **** *
 651:Generated_Source\PSoC4/CapSense_CSD.c **** *******************************************************************************/
 652:Generated_Source\PSoC4/CapSense_CSD.c **** void CapSense_CSD_ScanWidget(uint32 widget)
 653:Generated_Source\PSoC4/CapSense_CSD.c **** {
 855              		.loc 1 653 0
 856              		.cfi_startproc
 857              		@ args = 0, pretend = 0, frame = 24
 858              		@ frame_needed = 1, uses_anonymous_args = 0
 859 0000 80B5     		push	{r7, lr}
 860              		.cfi_def_cfa_offset 8
 861              		.cfi_offset 7, -8
 862              		.cfi_offset 14, -4
 863 0002 86B0     		sub	sp, sp, #24
 864              		.cfi_def_cfa_offset 32
 865 0004 00AF     		add	r7, sp, #0
 866              		.cfi_def_cfa_register 7
 867 0006 7860     		str	r0, [r7, #4]
 654:Generated_Source\PSoC4/CapSense_CSD.c ****     uint32 sensorsPerWidget;
 655:Generated_Source\PSoC4/CapSense_CSD.c ****     uint32 lastSensor;
 656:Generated_Source\PSoC4/CapSense_CSD.c ****     uint32 snsIndex;
 657:Generated_Source\PSoC4/CapSense_CSD.c **** 
 658:Generated_Source\PSoC4/CapSense_CSD.c ****     /* Get first sensor in widget */
 659:Generated_Source\PSoC4/CapSense_CSD.c ****     CapSense_CSD_sensorIndex = CapSense_CSD_rawDataIndex[widget];
 868              		.loc 1 659 0
 869 0008 2E4A     		ldr	r2, .L42
ARM GAS  C:\Users\SHOZO\AppData\Local\Temp\ccpYscuc.s 			page 28


 870 000a 7B68     		ldr	r3, [r7, #4]
 871 000c D318     		adds	r3, r2, r3
 872 000e 1A78     		ldrb	r2, [r3]
 873 0010 2D4B     		ldr	r3, .L42+4
 874 0012 1A70     		strb	r2, [r3]
 660:Generated_Source\PSoC4/CapSense_CSD.c **** 
 661:Generated_Source\PSoC4/CapSense_CSD.c ****     /* Get number of sensors in widget */
 662:Generated_Source\PSoC4/CapSense_CSD.c ****     sensorsPerWidget = CapSense_CSD_numberOfSensors[widget];
 875              		.loc 1 662 0
 876 0014 2D4A     		ldr	r2, .L42+8
 877 0016 7B68     		ldr	r3, [r7, #4]
 878 0018 D318     		adds	r3, r2, r3
 879 001a 1B78     		ldrb	r3, [r3]
 880 001c 7B61     		str	r3, [r7, #20]
 663:Generated_Source\PSoC4/CapSense_CSD.c **** 
 664:Generated_Source\PSoC4/CapSense_CSD.c ****     /* Check if generic Sensor */
 665:Generated_Source\PSoC4/CapSense_CSD.c ****     if(sensorsPerWidget == 0u)
 881              		.loc 1 665 0
 882 001e 7B69     		ldr	r3, [r7, #20]
 883 0020 002B     		cmp	r3, #0
 884 0022 01D1     		bne	.L33
 666:Generated_Source\PSoC4/CapSense_CSD.c ****     {
 667:Generated_Source\PSoC4/CapSense_CSD.c ****         sensorsPerWidget = 1u;
 885              		.loc 1 667 0
 886 0024 0123     		movs	r3, #1
 887 0026 7B61     		str	r3, [r7, #20]
 888              	.L33:
 668:Generated_Source\PSoC4/CapSense_CSD.c ****     }
 669:Generated_Source\PSoC4/CapSense_CSD.c **** 
 670:Generated_Source\PSoC4/CapSense_CSD.c ****     /* Get last sensor in widget */
 671:Generated_Source\PSoC4/CapSense_CSD.c ****     lastSensor = (CapSense_CSD_rawDataIndex[widget] + sensorsPerWidget) - 1u;
 889              		.loc 1 671 0
 890 0028 264A     		ldr	r2, .L42
 891 002a 7B68     		ldr	r3, [r7, #4]
 892 002c D318     		adds	r3, r2, r3
 893 002e 1B78     		ldrb	r3, [r3]
 894 0030 1A00     		movs	r2, r3
 895 0032 7B69     		ldr	r3, [r7, #20]
 896 0034 D318     		adds	r3, r2, r3
 897 0036 013B     		subs	r3, r3, #1
 898 0038 FB60     		str	r3, [r7, #12]
 672:Generated_Source\PSoC4/CapSense_CSD.c **** 
 673:Generated_Source\PSoC4/CapSense_CSD.c ****     /* Backup sensorEnableMask array */
 674:Generated_Source\PSoC4/CapSense_CSD.c ****     for(snsIndex = 0u; snsIndex < CapSense_CSD_TOTAL_SENSOR_MASK; snsIndex++)
 899              		.loc 1 674 0
 900 003a 0023     		movs	r3, #0
 901 003c 3B61     		str	r3, [r7, #16]
 902 003e 0BE0     		b	.L34
 903              	.L35:
 675:Generated_Source\PSoC4/CapSense_CSD.c ****     {
 676:Generated_Source\PSoC4/CapSense_CSD.c ****         /* Backup sensorEnableMask array */
 677:Generated_Source\PSoC4/CapSense_CSD.c ****         CapSense_CSD_sensorEnableMaskBackup[snsIndex] = CapSense_CSD_sensorEnableMask[snsIndex];
 904              		.loc 1 677 0 discriminator 3
 905 0040 234A     		ldr	r2, .L42+12
 906 0042 3B69     		ldr	r3, [r7, #16]
 907 0044 D318     		adds	r3, r2, r3
 908 0046 1978     		ldrb	r1, [r3]
ARM GAS  C:\Users\SHOZO\AppData\Local\Temp\ccpYscuc.s 			page 29


 909 0048 224A     		ldr	r2, .L42+16
 910 004a 3B69     		ldr	r3, [r7, #16]
 911 004c D318     		adds	r3, r2, r3
 912 004e 0A1C     		adds	r2, r1, #0
 913 0050 1A70     		strb	r2, [r3]
 674:Generated_Source\PSoC4/CapSense_CSD.c ****     {
 914              		.loc 1 674 0 discriminator 3
 915 0052 3B69     		ldr	r3, [r7, #16]
 916 0054 0133     		adds	r3, r3, #1
 917 0056 3B61     		str	r3, [r7, #16]
 918              	.L34:
 674:Generated_Source\PSoC4/CapSense_CSD.c ****     {
 919              		.loc 1 674 0 is_stmt 0 discriminator 1
 920 0058 3B69     		ldr	r3, [r7, #16]
 921 005a 012B     		cmp	r3, #1
 922 005c F0D9     		bls	.L35
 678:Generated_Source\PSoC4/CapSense_CSD.c ****     }
 679:Generated_Source\PSoC4/CapSense_CSD.c **** 
 680:Generated_Source\PSoC4/CapSense_CSD.c ****     /* Update sensorEnableMask to scan the sensors that belong to widget */
 681:Generated_Source\PSoC4/CapSense_CSD.c ****     for(snsIndex = 0u; snsIndex < CapSense_CSD_TOTAL_SENSOR_COUNT; snsIndex++)
 923              		.loc 1 681 0 is_stmt 1
 924 005e 0023     		movs	r3, #0
 925 0060 3B61     		str	r3, [r7, #16]
 926 0062 1AE0     		b	.L36
 927              	.L39:
 682:Generated_Source\PSoC4/CapSense_CSD.c ****     {
 683:Generated_Source\PSoC4/CapSense_CSD.c ****         /* Update sensorEnableMask array bits to scan the widget only */
 684:Generated_Source\PSoC4/CapSense_CSD.c ****         if((snsIndex >= CapSense_CSD_sensorIndex) && (snsIndex <= lastSensor))
 928              		.loc 1 684 0
 929 0064 184B     		ldr	r3, .L42+4
 930 0066 1B78     		ldrb	r3, [r3]
 931 0068 DBB2     		uxtb	r3, r3
 932 006a 1A00     		movs	r2, r3
 933 006c 3B69     		ldr	r3, [r7, #16]
 934 006e 9A42     		cmp	r2, r3
 935 0070 0AD8     		bhi	.L37
 936              		.loc 1 684 0 is_stmt 0 discriminator 1
 937 0072 3A69     		ldr	r2, [r7, #16]
 938 0074 FB68     		ldr	r3, [r7, #12]
 939 0076 9A42     		cmp	r2, r3
 940 0078 06D8     		bhi	.L37
 685:Generated_Source\PSoC4/CapSense_CSD.c ****         {
 686:Generated_Source\PSoC4/CapSense_CSD.c ****             /* Set sensor bit to scan */
 687:Generated_Source\PSoC4/CapSense_CSD.c ****             CapSense_CSD_SetBitValue(CapSense_CSD_sensorEnableMask, snsIndex, 1u);
 941              		.loc 1 687 0 is_stmt 1
 942 007a 3969     		ldr	r1, [r7, #16]
 943 007c 144B     		ldr	r3, .L42+12
 944 007e 0122     		movs	r2, #1
 945 0080 1800     		movs	r0, r3
 946 0082 FFF7FEFF 		bl	CapSense_CSD_SetBitValue
 947 0086 05E0     		b	.L38
 948              	.L37:
 688:Generated_Source\PSoC4/CapSense_CSD.c ****         }
 689:Generated_Source\PSoC4/CapSense_CSD.c ****         else
 690:Generated_Source\PSoC4/CapSense_CSD.c ****         {
 691:Generated_Source\PSoC4/CapSense_CSD.c ****             /* Reset sensor bit to do not scan */
 692:Generated_Source\PSoC4/CapSense_CSD.c ****             CapSense_CSD_SetBitValue(CapSense_CSD_sensorEnableMask, snsIndex, 0u);
ARM GAS  C:\Users\SHOZO\AppData\Local\Temp\ccpYscuc.s 			page 30


 949              		.loc 1 692 0
 950 0088 3969     		ldr	r1, [r7, #16]
 951 008a 114B     		ldr	r3, .L42+12
 952 008c 0022     		movs	r2, #0
 953 008e 1800     		movs	r0, r3
 954 0090 FFF7FEFF 		bl	CapSense_CSD_SetBitValue
 955              	.L38:
 681:Generated_Source\PSoC4/CapSense_CSD.c ****     {
 956              		.loc 1 681 0 discriminator 2
 957 0094 3B69     		ldr	r3, [r7, #16]
 958 0096 0133     		adds	r3, r3, #1
 959 0098 3B61     		str	r3, [r7, #16]
 960              	.L36:
 681:Generated_Source\PSoC4/CapSense_CSD.c ****     {
 961              		.loc 1 681 0 is_stmt 0 discriminator 1
 962 009a 3B69     		ldr	r3, [r7, #16]
 963 009c 0C2B     		cmp	r3, #12
 964 009e E1D9     		bls	.L39
 693:Generated_Source\PSoC4/CapSense_CSD.c ****         }
 694:Generated_Source\PSoC4/CapSense_CSD.c ****     }
 695:Generated_Source\PSoC4/CapSense_CSD.c **** 
 696:Generated_Source\PSoC4/CapSense_CSD.c ****     /* Check end of scan condition */
 697:Generated_Source\PSoC4/CapSense_CSD.c ****     if(CapSense_CSD_sensorIndex < CapSense_CSD_TOTAL_SENSOR_COUNT)
 965              		.loc 1 697 0 is_stmt 1
 966 00a0 094B     		ldr	r3, .L42+4
 967 00a2 1B78     		ldrb	r3, [r3]
 968 00a4 DBB2     		uxtb	r3, r3
 969 00a6 0C2B     		cmp	r3, #12
 970 00a8 08D8     		bhi	.L41
 698:Generated_Source\PSoC4/CapSense_CSD.c ****     {
 699:Generated_Source\PSoC4/CapSense_CSD.c ****         /* Set widget busy bit in status/control variable*/
 700:Generated_Source\PSoC4/CapSense_CSD.c ****         CapSense_CSD_csdStatusVar = (CapSense_CSD_SW_STS_BUSY | CapSense_CSD_SW_CTRL_WIDGET_SCAN);
 971              		.loc 1 700 0
 972 00aa 0B4B     		ldr	r3, .L42+20
 973 00ac 4122     		movs	r2, #65
 974 00ae 1A70     		strb	r2, [r3]
 701:Generated_Source\PSoC4/CapSense_CSD.c ****         /* Scan first sensor of widget*/
 702:Generated_Source\PSoC4/CapSense_CSD.c ****         CapSense_CSD_PreScan((uint32)CapSense_CSD_sensorIndex);
 975              		.loc 1 702 0
 976 00b0 054B     		ldr	r3, .L42+4
 977 00b2 1B78     		ldrb	r3, [r3]
 978 00b4 DBB2     		uxtb	r3, r3
 979 00b6 1800     		movs	r0, r3
 980 00b8 FFF7FEFF 		bl	CapSense_CSD_PreScan
 981              	.L41:
 703:Generated_Source\PSoC4/CapSense_CSD.c ****     }
 704:Generated_Source\PSoC4/CapSense_CSD.c **** }
 982              		.loc 1 704 0
 983 00bc C046     		nop
 984 00be BD46     		mov	sp, r7
 985 00c0 06B0     		add	sp, sp, #24
 986              		@ sp needed
 987 00c2 80BD     		pop	{r7, pc}
 988              	.L43:
 989              		.align	2
 990              	.L42:
 991 00c4 00000000 		.word	CapSense_CSD_rawDataIndex
ARM GAS  C:\Users\SHOZO\AppData\Local\Temp\ccpYscuc.s 			page 31


 992 00c8 00000000 		.word	CapSense_CSD_sensorIndex
 993 00cc 00000000 		.word	CapSense_CSD_numberOfSensors
 994 00d0 00000000 		.word	CapSense_CSD_sensorEnableMask
 995 00d4 00000000 		.word	CapSense_CSD_sensorEnableMaskBackup
 996 00d8 00000000 		.word	CapSense_CSD_csdStatusVar
 997              		.cfi_endproc
 998              	.LFE39:
 999              		.size	CapSense_CSD_ScanWidget, .-CapSense_CSD_ScanWidget
 1000              		.section	.text.CapSense_CSD_ScanEnabledWidgets,"ax",%progbits
 1001              		.align	2
 1002              		.global	CapSense_CSD_ScanEnabledWidgets
 1003              		.code	16
 1004              		.thumb_func
 1005              		.type	CapSense_CSD_ScanEnabledWidgets, %function
 1006              	CapSense_CSD_ScanEnabledWidgets:
 1007              	.LFB40:
 705:Generated_Source\PSoC4/CapSense_CSD.c **** #endif /* (0u != CapSense_CSD_CSHL_API_GENERATE) */
 706:Generated_Source\PSoC4/CapSense_CSD.c **** 
 707:Generated_Source\PSoC4/CapSense_CSD.c **** 
 708:Generated_Source\PSoC4/CapSense_CSD.c **** /*******************************************************************************
 709:Generated_Source\PSoC4/CapSense_CSD.c **** * Function Name: CapSense_CSD_ScanEnableWidgets
 710:Generated_Source\PSoC4/CapSense_CSD.c **** ********************************************************************************
 711:Generated_Source\PSoC4/CapSense_CSD.c **** *
 712:Generated_Source\PSoC4/CapSense_CSD.c **** * Summary:
 713:Generated_Source\PSoC4/CapSense_CSD.c **** *  This is the preferred method to scan all of the enabled widgets.
 714:Generated_Source\PSoC4/CapSense_CSD.c **** *  The API starts scanning a sensor within the enabled widgets.
 715:Generated_Source\PSoC4/CapSense_CSD.c **** *  The ISR continues scanning the sensors until all the enabled widgets are scanned.
 716:Generated_Source\PSoC4/CapSense_CSD.c **** *  Use of the ISR ensures this function is non-blocking.
 717:Generated_Source\PSoC4/CapSense_CSD.c **** *  All the widgets are enabled by default except proximity widgets.
 718:Generated_Source\PSoC4/CapSense_CSD.c **** *  The proximity widgets must be manually enabled as their long scan time
 719:Generated_Source\PSoC4/CapSense_CSD.c **** *  is incompatible with a fast response required of other widget types.
 720:Generated_Source\PSoC4/CapSense_CSD.c **** *
 721:Generated_Source\PSoC4/CapSense_CSD.c **** * Parameters:
 722:Generated_Source\PSoC4/CapSense_CSD.c **** *  None
 723:Generated_Source\PSoC4/CapSense_CSD.c **** *
 724:Generated_Source\PSoC4/CapSense_CSD.c **** * Return:
 725:Generated_Source\PSoC4/CapSense_CSD.c **** *  None
 726:Generated_Source\PSoC4/CapSense_CSD.c **** *
 727:Generated_Source\PSoC4/CapSense_CSD.c **** * Global Variables:
 728:Generated_Source\PSoC4/CapSense_CSD.c **** *  CapSense_CSD_csdStatusVar - used to provide the status and mode of the scanning process.
 729:Generated_Source\PSoC4/CapSense_CSD.c **** *  Sets the busy status(scan in progress) and clears the single scan mode.
 730:Generated_Source\PSoC4/CapSense_CSD.c **** *  CapSense_CSD_sensorIndex - used to store a sensor scanning sensor number.
 731:Generated_Source\PSoC4/CapSense_CSD.c **** *  Sets to 0xFF and provided to function CapSense_CSD_FindNextSensor or
 732:Generated_Source\PSoC4/CapSense_CSD.c **** *
 733:Generated_Source\PSoC4/CapSense_CSD.c **** * Side Effects:
 734:Generated_Source\PSoC4/CapSense_CSD.c **** *  None
 735:Generated_Source\PSoC4/CapSense_CSD.c **** *
 736:Generated_Source\PSoC4/CapSense_CSD.c **** *******************************************************************************/
 737:Generated_Source\PSoC4/CapSense_CSD.c **** void CapSense_CSD_ScanEnabledWidgets(void)
 738:Generated_Source\PSoC4/CapSense_CSD.c **** {
 1008              		.loc 1 738 0
 1009              		.cfi_startproc
 1010              		@ args = 0, pretend = 0, frame = 0
 1011              		@ frame_needed = 1, uses_anonymous_args = 0
 1012 0000 80B5     		push	{r7, lr}
 1013              		.cfi_def_cfa_offset 8
 1014              		.cfi_offset 7, -8
ARM GAS  C:\Users\SHOZO\AppData\Local\Temp\ccpYscuc.s 			page 32


 1015              		.cfi_offset 14, -4
 1016 0002 00AF     		add	r7, sp, #0
 1017              		.cfi_def_cfa_register 7
 739:Generated_Source\PSoC4/CapSense_CSD.c ****     /* Clears status/control variable and set sensorIndex */
 740:Generated_Source\PSoC4/CapSense_CSD.c ****     CapSense_CSD_csdStatusVar = 0u;
 1018              		.loc 1 740 0
 1019 0004 124B     		ldr	r3, .L47
 1020 0006 0022     		movs	r2, #0
 1021 0008 1A70     		strb	r2, [r3]
 741:Generated_Source\PSoC4/CapSense_CSD.c ****     CapSense_CSD_sensorIndex = 0xFFu;
 1022              		.loc 1 741 0
 1023 000a 124B     		ldr	r3, .L47+4
 1024 000c FF22     		movs	r2, #255
 1025 000e 1A70     		strb	r2, [r3]
 742:Generated_Source\PSoC4/CapSense_CSD.c **** 
 743:Generated_Source\PSoC4/CapSense_CSD.c ****     /* Find next sensor */
 744:Generated_Source\PSoC4/CapSense_CSD.c ****     CapSense_CSD_sensorIndex = (uint8)CapSense_CSD_FindNextSensor(CapSense_CSD_sensorIndex);
 1026              		.loc 1 744 0
 1027 0010 104B     		ldr	r3, .L47+4
 1028 0012 1B78     		ldrb	r3, [r3]
 1029 0014 DBB2     		uxtb	r3, r3
 1030 0016 1800     		movs	r0, r3
 1031 0018 FFF7FEFF 		bl	CapSense_CSD_FindNextSensor
 1032 001c 0300     		movs	r3, r0
 1033 001e 1A00     		movs	r2, r3
 1034 0020 0C4B     		ldr	r3, .L47+4
 1035 0022 1A70     		strb	r2, [r3]
 745:Generated_Source\PSoC4/CapSense_CSD.c **** 
 746:Generated_Source\PSoC4/CapSense_CSD.c ****     /* Check end of scan condition */
 747:Generated_Source\PSoC4/CapSense_CSD.c ****     if(CapSense_CSD_sensorIndex < CapSense_CSD_TOTAL_SENSOR_COUNT)
 1036              		.loc 1 747 0
 1037 0024 0B4B     		ldr	r3, .L47+4
 1038 0026 1B78     		ldrb	r3, [r3]
 1039 0028 DBB2     		uxtb	r3, r3
 1040 002a 0C2B     		cmp	r3, #12
 1041 002c 0DD8     		bhi	.L46
 748:Generated_Source\PSoC4/CapSense_CSD.c ****     {
 749:Generated_Source\PSoC4/CapSense_CSD.c ****         CapSense_CSD_csdStatusVar |= CapSense_CSD_SW_STS_BUSY;
 1042              		.loc 1 749 0
 1043 002e 084B     		ldr	r3, .L47
 1044 0030 1B78     		ldrb	r3, [r3]
 1045 0032 DBB2     		uxtb	r3, r3
 1046 0034 0122     		movs	r2, #1
 1047 0036 1343     		orrs	r3, r2
 1048 0038 DAB2     		uxtb	r2, r3
 1049 003a 054B     		ldr	r3, .L47
 1050 003c 1A70     		strb	r2, [r3]
 750:Generated_Source\PSoC4/CapSense_CSD.c ****         CapSense_CSD_PreScan((uint32)CapSense_CSD_sensorIndex);
 1051              		.loc 1 750 0
 1052 003e 054B     		ldr	r3, .L47+4
 1053 0040 1B78     		ldrb	r3, [r3]
 1054 0042 DBB2     		uxtb	r3, r3
 1055 0044 1800     		movs	r0, r3
 1056 0046 FFF7FEFF 		bl	CapSense_CSD_PreScan
 1057              	.L46:
 751:Generated_Source\PSoC4/CapSense_CSD.c ****     }
 752:Generated_Source\PSoC4/CapSense_CSD.c **** }
ARM GAS  C:\Users\SHOZO\AppData\Local\Temp\ccpYscuc.s 			page 33


 1058              		.loc 1 752 0
 1059 004a C046     		nop
 1060 004c BD46     		mov	sp, r7
 1061              		@ sp needed
 1062 004e 80BD     		pop	{r7, pc}
 1063              	.L48:
 1064              		.align	2
 1065              	.L47:
 1066 0050 00000000 		.word	CapSense_CSD_csdStatusVar
 1067 0054 00000000 		.word	CapSense_CSD_sensorIndex
 1068              		.cfi_endproc
 1069              	.LFE40:
 1070              		.size	CapSense_CSD_ScanEnabledWidgets, .-CapSense_CSD_ScanEnabledWidgets
 1071              		.section	.text.CapSense_CSD_IsBusy,"ax",%progbits
 1072              		.align	2
 1073              		.global	CapSense_CSD_IsBusy
 1074              		.code	16
 1075              		.thumb_func
 1076              		.type	CapSense_CSD_IsBusy, %function
 1077              	CapSense_CSD_IsBusy:
 1078              	.LFB41:
 753:Generated_Source\PSoC4/CapSense_CSD.c **** 
 754:Generated_Source\PSoC4/CapSense_CSD.c **** 
 755:Generated_Source\PSoC4/CapSense_CSD.c **** /*******************************************************************************
 756:Generated_Source\PSoC4/CapSense_CSD.c **** * Function Name: CapSense_CSD_IsBusy
 757:Generated_Source\PSoC4/CapSense_CSD.c **** ********************************************************************************
 758:Generated_Source\PSoC4/CapSense_CSD.c **** *
 759:Generated_Source\PSoC4/CapSense_CSD.c **** * Summary:
 760:Generated_Source\PSoC4/CapSense_CSD.c **** *  Returns the state of the CapSense component. 1 means that scanning in
 761:Generated_Source\PSoC4/CapSense_CSD.c **** *  progress and 0 means that scanning is complete.
 762:Generated_Source\PSoC4/CapSense_CSD.c **** *
 763:Generated_Source\PSoC4/CapSense_CSD.c **** * Parameters:
 764:Generated_Source\PSoC4/CapSense_CSD.c **** *  None
 765:Generated_Source\PSoC4/CapSense_CSD.c **** *
 766:Generated_Source\PSoC4/CapSense_CSD.c **** * Return:
 767:Generated_Source\PSoC4/CapSense_CSD.c **** *  Returns the state of scanning. 1 - scanning in progress, 0 - scanning
 768:Generated_Source\PSoC4/CapSense_CSD.c **** *  completed.
 769:Generated_Source\PSoC4/CapSense_CSD.c **** *
 770:Generated_Source\PSoC4/CapSense_CSD.c **** * Global Variables:
 771:Generated_Source\PSoC4/CapSense_CSD.c **** *  CapSense_CSD_csdStatusVar - used to provide the status and mode of the scanning process.
 772:Generated_Source\PSoC4/CapSense_CSD.c **** *  Checks the busy status.
 773:Generated_Source\PSoC4/CapSense_CSD.c **** *
 774:Generated_Source\PSoC4/CapSense_CSD.c **** * Side Effects:
 775:Generated_Source\PSoC4/CapSense_CSD.c **** *  None
 776:Generated_Source\PSoC4/CapSense_CSD.c **** *
 777:Generated_Source\PSoC4/CapSense_CSD.c **** *******************************************************************************/
 778:Generated_Source\PSoC4/CapSense_CSD.c **** uint32 CapSense_CSD_IsBusy(void)
 779:Generated_Source\PSoC4/CapSense_CSD.c **** {
 1079              		.loc 1 779 0
 1080              		.cfi_startproc
 1081              		@ args = 0, pretend = 0, frame = 0
 1082              		@ frame_needed = 1, uses_anonymous_args = 0
 1083 0000 80B5     		push	{r7, lr}
 1084              		.cfi_def_cfa_offset 8
 1085              		.cfi_offset 7, -8
 1086              		.cfi_offset 14, -4
 1087 0002 00AF     		add	r7, sp, #0
ARM GAS  C:\Users\SHOZO\AppData\Local\Temp\ccpYscuc.s 			page 34


 1088              		.cfi_def_cfa_register 7
 780:Generated_Source\PSoC4/CapSense_CSD.c ****     return ((uint32)((0u != (CapSense_CSD_csdStatusVar & CapSense_CSD_SW_STS_BUSY)) ? 1u : 0u));
 1089              		.loc 1 780 0
 1090 0004 044B     		ldr	r3, .L51
 1091 0006 1B78     		ldrb	r3, [r3]
 1092 0008 DBB2     		uxtb	r3, r3
 1093 000a 1A00     		movs	r2, r3
 1094 000c 0123     		movs	r3, #1
 1095 000e 1340     		ands	r3, r2
 781:Generated_Source\PSoC4/CapSense_CSD.c **** }
 1096              		.loc 1 781 0
 1097 0010 1800     		movs	r0, r3
 1098 0012 BD46     		mov	sp, r7
 1099              		@ sp needed
 1100 0014 80BD     		pop	{r7, pc}
 1101              	.L52:
 1102 0016 C046     		.align	2
 1103              	.L51:
 1104 0018 00000000 		.word	CapSense_CSD_csdStatusVar
 1105              		.cfi_endproc
 1106              	.LFE41:
 1107              		.size	CapSense_CSD_IsBusy, .-CapSense_CSD_IsBusy
 1108              		.section	.text.CapSense_CSD_ReadSensorRaw,"ax",%progbits
 1109              		.align	2
 1110              		.global	CapSense_CSD_ReadSensorRaw
 1111              		.code	16
 1112              		.thumb_func
 1113              		.type	CapSense_CSD_ReadSensorRaw, %function
 1114              	CapSense_CSD_ReadSensorRaw:
 1115              	.LFB42:
 782:Generated_Source\PSoC4/CapSense_CSD.c **** 
 783:Generated_Source\PSoC4/CapSense_CSD.c **** 
 784:Generated_Source\PSoC4/CapSense_CSD.c **** /*******************************************************************************
 785:Generated_Source\PSoC4/CapSense_CSD.c **** * Function Name: CapSense_CSD_ReadSensorRaw
 786:Generated_Source\PSoC4/CapSense_CSD.c **** ********************************************************************************
 787:Generated_Source\PSoC4/CapSense_CSD.c **** *
 788:Generated_Source\PSoC4/CapSense_CSD.c **** * Summary:
 789:Generated_Source\PSoC4/CapSense_CSD.c **** *  Returns sensor raw data from the global CapSense_sensorRaw[ ] array.
 790:Generated_Source\PSoC4/CapSense_CSD.c **** *  Each scan sensor has a unique number within the sensor array.
 791:Generated_Source\PSoC4/CapSense_CSD.c **** *  This number is assigned by the CapSense customizer in sequence.
 792:Generated_Source\PSoC4/CapSense_CSD.c **** *  Raw data can be used to perform calculations outside of the CapSense
 793:Generated_Source\PSoC4/CapSense_CSD.c **** *  provided framework.
 794:Generated_Source\PSoC4/CapSense_CSD.c **** *
 795:Generated_Source\PSoC4/CapSense_CSD.c **** * Parameters:
 796:Generated_Source\PSoC4/CapSense_CSD.c **** *  sensor:  Sensor number.
 797:Generated_Source\PSoC4/CapSense_CSD.c **** *
 798:Generated_Source\PSoC4/CapSense_CSD.c **** * Return:
 799:Generated_Source\PSoC4/CapSense_CSD.c **** *  Returns the current raw data value for a defined sensor number.
 800:Generated_Source\PSoC4/CapSense_CSD.c **** *
 801:Generated_Source\PSoC4/CapSense_CSD.c **** * Global Variables:
 802:Generated_Source\PSoC4/CapSense_CSD.c **** *  CapSense_CSD_sensorRaw[] - used to store sensors raw data.
 803:Generated_Source\PSoC4/CapSense_CSD.c **** *
 804:Generated_Source\PSoC4/CapSense_CSD.c **** * Side Effects:
 805:Generated_Source\PSoC4/CapSense_CSD.c **** *  None
 806:Generated_Source\PSoC4/CapSense_CSD.c **** *
 807:Generated_Source\PSoC4/CapSense_CSD.c **** *******************************************************************************/
 808:Generated_Source\PSoC4/CapSense_CSD.c **** uint16 CapSense_CSD_ReadSensorRaw(uint32 sensor)
ARM GAS  C:\Users\SHOZO\AppData\Local\Temp\ccpYscuc.s 			page 35


 809:Generated_Source\PSoC4/CapSense_CSD.c **** {
 1116              		.loc 1 809 0
 1117              		.cfi_startproc
 1118              		@ args = 0, pretend = 0, frame = 8
 1119              		@ frame_needed = 1, uses_anonymous_args = 0
 1120 0000 80B5     		push	{r7, lr}
 1121              		.cfi_def_cfa_offset 8
 1122              		.cfi_offset 7, -8
 1123              		.cfi_offset 14, -4
 1124 0002 82B0     		sub	sp, sp, #8
 1125              		.cfi_def_cfa_offset 16
 1126 0004 00AF     		add	r7, sp, #0
 1127              		.cfi_def_cfa_register 7
 1128 0006 7860     		str	r0, [r7, #4]
 810:Generated_Source\PSoC4/CapSense_CSD.c ****     return CapSense_CSD_sensorRaw[sensor];
 1129              		.loc 1 810 0
 1130 0008 034B     		ldr	r3, .L55
 1131 000a 7A68     		ldr	r2, [r7, #4]
 1132 000c 5200     		lsls	r2, r2, #1
 1133 000e D35A     		ldrh	r3, [r2, r3]
 811:Generated_Source\PSoC4/CapSense_CSD.c **** }
 1134              		.loc 1 811 0
 1135 0010 1800     		movs	r0, r3
 1136 0012 BD46     		mov	sp, r7
 1137 0014 02B0     		add	sp, sp, #8
 1138              		@ sp needed
 1139 0016 80BD     		pop	{r7, pc}
 1140              	.L56:
 1141              		.align	2
 1142              	.L55:
 1143 0018 00000000 		.word	CapSense_CSD_sensorRaw
 1144              		.cfi_endproc
 1145              	.LFE42:
 1146              		.size	CapSense_CSD_ReadSensorRaw, .-CapSense_CSD_ReadSensorRaw
 1147              		.section	.text.CapSense_CSD_WriteSensorRaw,"ax",%progbits
 1148              		.align	2
 1149              		.global	CapSense_CSD_WriteSensorRaw
 1150              		.code	16
 1151              		.thumb_func
 1152              		.type	CapSense_CSD_WriteSensorRaw, %function
 1153              	CapSense_CSD_WriteSensorRaw:
 1154              	.LFB43:
 812:Generated_Source\PSoC4/CapSense_CSD.c **** 
 813:Generated_Source\PSoC4/CapSense_CSD.c **** 
 814:Generated_Source\PSoC4/CapSense_CSD.c **** /*******************************************************************************
 815:Generated_Source\PSoC4/CapSense_CSD.c **** * Function Name: CapSense_CSD_WriteSensorRaw
 816:Generated_Source\PSoC4/CapSense_CSD.c **** ********************************************************************************
 817:Generated_Source\PSoC4/CapSense_CSD.c **** *
 818:Generated_Source\PSoC4/CapSense_CSD.c **** * Summary:
 819:Generated_Source\PSoC4/CapSense_CSD.c **** *  This API writes the raw count value passed as an argument to the sensor Raw count array.
 820:Generated_Source\PSoC4/CapSense_CSD.c **** *
 821:Generated_Source\PSoC4/CapSense_CSD.c **** * Parameters:
 822:Generated_Source\PSoC4/CapSense_CSD.c **** *  sensor:  Sensor number.
 823:Generated_Source\PSoC4/CapSense_CSD.c **** *  value: Raw count value.
 824:Generated_Source\PSoC4/CapSense_CSD.c **** *
 825:Generated_Source\PSoC4/CapSense_CSD.c **** * Global Variables:
 826:Generated_Source\PSoC4/CapSense_CSD.c **** *  CapSense_CSD_sensorRaw[] - used to store sensors raw data.
ARM GAS  C:\Users\SHOZO\AppData\Local\Temp\ccpYscuc.s 			page 36


 827:Generated_Source\PSoC4/CapSense_CSD.c **** *
 828:Generated_Source\PSoC4/CapSense_CSD.c **** * Return:
 829:Generated_Source\PSoC4/CapSense_CSD.c **** *  None
 830:Generated_Source\PSoC4/CapSense_CSD.c **** *
 831:Generated_Source\PSoC4/CapSense_CSD.c **** * Side Effects:
 832:Generated_Source\PSoC4/CapSense_CSD.c **** *  None
 833:Generated_Source\PSoC4/CapSense_CSD.c **** *
 834:Generated_Source\PSoC4/CapSense_CSD.c **** *******************************************************************************/
 835:Generated_Source\PSoC4/CapSense_CSD.c **** void CapSense_CSD_WriteSensorRaw(uint32 sensor, uint16 value)
 836:Generated_Source\PSoC4/CapSense_CSD.c **** {
 1155              		.loc 1 836 0
 1156              		.cfi_startproc
 1157              		@ args = 0, pretend = 0, frame = 8
 1158              		@ frame_needed = 1, uses_anonymous_args = 0
 1159 0000 80B5     		push	{r7, lr}
 1160              		.cfi_def_cfa_offset 8
 1161              		.cfi_offset 7, -8
 1162              		.cfi_offset 14, -4
 1163 0002 82B0     		sub	sp, sp, #8
 1164              		.cfi_def_cfa_offset 16
 1165 0004 00AF     		add	r7, sp, #0
 1166              		.cfi_def_cfa_register 7
 1167 0006 7860     		str	r0, [r7, #4]
 1168 0008 0A00     		movs	r2, r1
 1169 000a BB1C     		adds	r3, r7, #2
 1170 000c 1A80     		strh	r2, [r3]
 837:Generated_Source\PSoC4/CapSense_CSD.c ****     CapSense_CSD_sensorRaw[sensor] = value;
 1171              		.loc 1 837 0
 1172 000e 054B     		ldr	r3, .L58
 1173 0010 7A68     		ldr	r2, [r7, #4]
 1174 0012 5200     		lsls	r2, r2, #1
 1175 0014 B91C     		adds	r1, r7, #2
 1176 0016 0988     		ldrh	r1, [r1]
 1177 0018 D152     		strh	r1, [r2, r3]
 838:Generated_Source\PSoC4/CapSense_CSD.c **** }
 1178              		.loc 1 838 0
 1179 001a C046     		nop
 1180 001c BD46     		mov	sp, r7
 1181 001e 02B0     		add	sp, sp, #8
 1182              		@ sp needed
 1183 0020 80BD     		pop	{r7, pc}
 1184              	.L59:
 1185 0022 C046     		.align	2
 1186              	.L58:
 1187 0024 00000000 		.word	CapSense_CSD_sensorRaw
 1188              		.cfi_endproc
 1189              	.LFE43:
 1190              		.size	CapSense_CSD_WriteSensorRaw, .-CapSense_CSD_WriteSensorRaw
 1191              		.section	.text.CapSense_CSD_SetScanResolution,"ax",%progbits
 1192              		.align	2
 1193              		.global	CapSense_CSD_SetScanResolution
 1194              		.code	16
 1195              		.thumb_func
 1196              		.type	CapSense_CSD_SetScanResolution, %function
 1197              	CapSense_CSD_SetScanResolution:
 1198              	.LFB44:
 839:Generated_Source\PSoC4/CapSense_CSD.c **** 
ARM GAS  C:\Users\SHOZO\AppData\Local\Temp\ccpYscuc.s 			page 37


 840:Generated_Source\PSoC4/CapSense_CSD.c **** 
 841:Generated_Source\PSoC4/CapSense_CSD.c **** #if (CapSense_CSD_TUNING_METHOD != CapSense_CSD__TUNING_NONE)
 842:Generated_Source\PSoC4/CapSense_CSD.c ****     /*******************************************************************************
 843:Generated_Source\PSoC4/CapSense_CSD.c ****     * Function Name: CapSense_CSD_SetScanResolution
 844:Generated_Source\PSoC4/CapSense_CSD.c ****     ********************************************************************************
 845:Generated_Source\PSoC4/CapSense_CSD.c ****     *
 846:Generated_Source\PSoC4/CapSense_CSD.c ****     * Summary:
 847:Generated_Source\PSoC4/CapSense_CSD.c ****     *  Sets a value of the sensor scan resolution for a widget.
 848:Generated_Source\PSoC4/CapSense_CSD.c ****     *  The MIN resolution can be set 8-bit. The MAX Resolution can be set 16 bit.
 849:Generated_Source\PSoC4/CapSense_CSD.c ****     *  This function is not available for the tuning mode "None".
 850:Generated_Source\PSoC4/CapSense_CSD.c ****     *
 851:Generated_Source\PSoC4/CapSense_CSD.c ****     * Parameters:
 852:Generated_Source\PSoC4/CapSense_CSD.c ****     *  widget:     Widget index.
 853:Generated_Source\PSoC4/CapSense_CSD.c ****     *  resolution: Represents the resolution value. The following defines which are available in th
 854:Generated_Source\PSoC4/CapSense_CSD.c ****     *              CapSense_CSD.h file should be used:
 855:Generated_Source\PSoC4/CapSense_CSD.c ****     *              CapSense_CSD_RESOLUTION_6_BITS
 856:Generated_Source\PSoC4/CapSense_CSD.c ****     *              CapSense_CSD_RESOLUTION_7_BITS
 857:Generated_Source\PSoC4/CapSense_CSD.c ****     *              CapSense_CSD_RESOLUTION_8_BITS
 858:Generated_Source\PSoC4/CapSense_CSD.c ****     *              CapSense_CSD_RESOLUTION_9_BITS
 859:Generated_Source\PSoC4/CapSense_CSD.c ****     *              CapSense_CSD_RESOLUTION_10_BITS
 860:Generated_Source\PSoC4/CapSense_CSD.c ****     *              CapSense_CSD_RESOLUTION_11_BITS
 861:Generated_Source\PSoC4/CapSense_CSD.c ****     *              CapSense_CSD_RESOLUTION_12_BITS
 862:Generated_Source\PSoC4/CapSense_CSD.c ****     *              CapSense_CSD_RESOLUTION_13_BITS
 863:Generated_Source\PSoC4/CapSense_CSD.c ****     *              CapSense_CSD_RESOLUTION_14_BITS
 864:Generated_Source\PSoC4/CapSense_CSD.c ****     *              CapSense_CSD_RESOLUTION_15_BITS
 865:Generated_Source\PSoC4/CapSense_CSD.c ****     *              CapSense_CSD_RESOLUTION_16_BITS
 866:Generated_Source\PSoC4/CapSense_CSD.c ****     *
 867:Generated_Source\PSoC4/CapSense_CSD.c ****     * Return:
 868:Generated_Source\PSoC4/CapSense_CSD.c ****     *  None
 869:Generated_Source\PSoC4/CapSense_CSD.c ****     *
 870:Generated_Source\PSoC4/CapSense_CSD.c ****     * Global Variables:
 871:Generated_Source\PSoC4/CapSense_CSD.c ****     *  CapSense_CSD_widgetResolution[] - used to store scan resolution of each widget.
 872:Generated_Source\PSoC4/CapSense_CSD.c ****     *
 873:Generated_Source\PSoC4/CapSense_CSD.c ****     * Side Effects:
 874:Generated_Source\PSoC4/CapSense_CSD.c ****     *  None
 875:Generated_Source\PSoC4/CapSense_CSD.c ****     *
 876:Generated_Source\PSoC4/CapSense_CSD.c ****     *******************************************************************************/
 877:Generated_Source\PSoC4/CapSense_CSD.c ****     void CapSense_CSD_SetScanResolution(uint32 widget, uint32 resolution)
 878:Generated_Source\PSoC4/CapSense_CSD.c ****     {
 1199              		.loc 1 878 0
 1200              		.cfi_startproc
 1201              		@ args = 0, pretend = 0, frame = 8
 1202              		@ frame_needed = 1, uses_anonymous_args = 0
 1203 0000 80B5     		push	{r7, lr}
 1204              		.cfi_def_cfa_offset 8
 1205              		.cfi_offset 7, -8
 1206              		.cfi_offset 14, -4
 1207 0002 82B0     		sub	sp, sp, #8
 1208              		.cfi_def_cfa_offset 16
 1209 0004 00AF     		add	r7, sp, #0
 1210              		.cfi_def_cfa_register 7
 1211 0006 7860     		str	r0, [r7, #4]
 1212 0008 3960     		str	r1, [r7]
 879:Generated_Source\PSoC4/CapSense_CSD.c ****         CapSense_CSD_widgetResolution[widget] = resolution;
 1213              		.loc 1 879 0
 1214 000a 044B     		ldr	r3, .L61
 1215 000c 7A68     		ldr	r2, [r7, #4]
ARM GAS  C:\Users\SHOZO\AppData\Local\Temp\ccpYscuc.s 			page 38


 1216 000e 9200     		lsls	r2, r2, #2
 1217 0010 3968     		ldr	r1, [r7]
 1218 0012 D150     		str	r1, [r2, r3]
 880:Generated_Source\PSoC4/CapSense_CSD.c ****     }
 1219              		.loc 1 880 0
 1220 0014 C046     		nop
 1221 0016 BD46     		mov	sp, r7
 1222 0018 02B0     		add	sp, sp, #8
 1223              		@ sp needed
 1224 001a 80BD     		pop	{r7, pc}
 1225              	.L62:
 1226              		.align	2
 1227              	.L61:
 1228 001c 00000000 		.word	CapSense_CSD_widgetResolution
 1229              		.cfi_endproc
 1230              	.LFE44:
 1231              		.size	CapSense_CSD_SetScanResolution, .-CapSense_CSD_SetScanResolution
 1232              		.section	.text.CapSense_CSD_GetScanResolution,"ax",%progbits
 1233              		.align	2
 1234              		.global	CapSense_CSD_GetScanResolution
 1235              		.code	16
 1236              		.thumb_func
 1237              		.type	CapSense_CSD_GetScanResolution, %function
 1238              	CapSense_CSD_GetScanResolution:
 1239              	.LFB45:
 881:Generated_Source\PSoC4/CapSense_CSD.c **** #endif /* (CapSense_CSD_TUNING_METHOD != CapSense_CSD__TUNING_NONE) */
 882:Generated_Source\PSoC4/CapSense_CSD.c **** 
 883:Generated_Source\PSoC4/CapSense_CSD.c **** 
 884:Generated_Source\PSoC4/CapSense_CSD.c **** /*******************************************************************************
 885:Generated_Source\PSoC4/CapSense_CSD.c **** * Function Name: CapSense_CSD_GetScanResolution
 886:Generated_Source\PSoC4/CapSense_CSD.c **** ********************************************************************************
 887:Generated_Source\PSoC4/CapSense_CSD.c **** *
 888:Generated_Source\PSoC4/CapSense_CSD.c **** * Summary:
 889:Generated_Source\PSoC4/CapSense_CSD.c **** *  Returns the resolution value for the appropriate sensor.
 890:Generated_Source\PSoC4/CapSense_CSD.c **** *  This function is not available for tuning mode "None".
 891:Generated_Source\PSoC4/CapSense_CSD.c **** *
 892:Generated_Source\PSoC4/CapSense_CSD.c **** * Parameters:
 893:Generated_Source\PSoC4/CapSense_CSD.c **** *  widget:     Widget index.
 894:Generated_Source\PSoC4/CapSense_CSD.c **** *
 895:Generated_Source\PSoC4/CapSense_CSD.c **** * Return:
 896:Generated_Source\PSoC4/CapSense_CSD.c **** *  resolution: Returns the resolution value for the appropriate sensor.
 897:Generated_Source\PSoC4/CapSense_CSD.c **** *              The resolution values are defined in the CapSense_CSD.h file
 898:Generated_Source\PSoC4/CapSense_CSD.c **** *              The defines are encountered below:
 899:Generated_Source\PSoC4/CapSense_CSD.c **** *              CapSense_CSD_RESOLUTION_6_BITS
 900:Generated_Source\PSoC4/CapSense_CSD.c **** *              CapSense_CSD_RESOLUTION_7_BITS
 901:Generated_Source\PSoC4/CapSense_CSD.c **** *              CapSense_CSD_RESOLUTION_8_BITS
 902:Generated_Source\PSoC4/CapSense_CSD.c **** *              CapSense_CSD_RESOLUTION_9_BITS
 903:Generated_Source\PSoC4/CapSense_CSD.c **** *              CapSense_CSD_RESOLUTION_10_BITS
 904:Generated_Source\PSoC4/CapSense_CSD.c **** *              CapSense_CSD_RESOLUTION_11_BITS
 905:Generated_Source\PSoC4/CapSense_CSD.c **** *              CapSense_CSD_RESOLUTION_12_BITS
 906:Generated_Source\PSoC4/CapSense_CSD.c **** *              CapSense_CSD_RESOLUTION_13_BITS
 907:Generated_Source\PSoC4/CapSense_CSD.c **** *              CapSense_CSD_RESOLUTION_14_BITS
 908:Generated_Source\PSoC4/CapSense_CSD.c **** *              CapSense_CSD_RESOLUTION_15_BITS
 909:Generated_Source\PSoC4/CapSense_CSD.c **** *              CapSense_CSD_RESOLUTION_16_BITS
 910:Generated_Source\PSoC4/CapSense_CSD.c **** *
 911:Generated_Source\PSoC4/CapSense_CSD.c **** * Global Variables:
 912:Generated_Source\PSoC4/CapSense_CSD.c **** *  CapSense_CSD_widgetResolution[] - used to store scan resolution of every widget.
ARM GAS  C:\Users\SHOZO\AppData\Local\Temp\ccpYscuc.s 			page 39


 913:Generated_Source\PSoC4/CapSense_CSD.c **** *
 914:Generated_Source\PSoC4/CapSense_CSD.c **** * Side Effects:
 915:Generated_Source\PSoC4/CapSense_CSD.c **** *  None
 916:Generated_Source\PSoC4/CapSense_CSD.c **** *
 917:Generated_Source\PSoC4/CapSense_CSD.c **** *******************************************************************************/
 918:Generated_Source\PSoC4/CapSense_CSD.c **** uint32 CapSense_CSD_GetScanResolution(uint32 widget)
 919:Generated_Source\PSoC4/CapSense_CSD.c **** {
 1240              		.loc 1 919 0
 1241              		.cfi_startproc
 1242              		@ args = 0, pretend = 0, frame = 8
 1243              		@ frame_needed = 1, uses_anonymous_args = 0
 1244 0000 80B5     		push	{r7, lr}
 1245              		.cfi_def_cfa_offset 8
 1246              		.cfi_offset 7, -8
 1247              		.cfi_offset 14, -4
 1248 0002 82B0     		sub	sp, sp, #8
 1249              		.cfi_def_cfa_offset 16
 1250 0004 00AF     		add	r7, sp, #0
 1251              		.cfi_def_cfa_register 7
 1252 0006 7860     		str	r0, [r7, #4]
 920:Generated_Source\PSoC4/CapSense_CSD.c ****     return(CapSense_CSD_widgetResolution[widget]);
 1253              		.loc 1 920 0
 1254 0008 034B     		ldr	r3, .L65
 1255 000a 7A68     		ldr	r2, [r7, #4]
 1256 000c 9200     		lsls	r2, r2, #2
 1257 000e D358     		ldr	r3, [r2, r3]
 921:Generated_Source\PSoC4/CapSense_CSD.c **** }
 1258              		.loc 1 921 0
 1259 0010 1800     		movs	r0, r3
 1260 0012 BD46     		mov	sp, r7
 1261 0014 02B0     		add	sp, sp, #8
 1262              		@ sp needed
 1263 0016 80BD     		pop	{r7, pc}
 1264              	.L66:
 1265              		.align	2
 1266              	.L65:
 1267 0018 00000000 		.word	CapSense_CSD_widgetResolution
 1268              		.cfi_endproc
 1269              	.LFE45:
 1270              		.size	CapSense_CSD_GetScanResolution, .-CapSense_CSD_GetScanResolution
 1271              		.section	.text.CapSense_CSD_ClearSensors,"ax",%progbits
 1272              		.align	2
 1273              		.global	CapSense_CSD_ClearSensors
 1274              		.code	16
 1275              		.thumb_func
 1276              		.type	CapSense_CSD_ClearSensors, %function
 1277              	CapSense_CSD_ClearSensors:
 1278              	.LFB46:
 922:Generated_Source\PSoC4/CapSense_CSD.c **** 
 923:Generated_Source\PSoC4/CapSense_CSD.c **** 
 924:Generated_Source\PSoC4/CapSense_CSD.c **** /*******************************************************************************
 925:Generated_Source\PSoC4/CapSense_CSD.c **** * Function Name: CapSense_CSD_ClearSensors
 926:Generated_Source\PSoC4/CapSense_CSD.c **** ********************************************************************************
 927:Generated_Source\PSoC4/CapSense_CSD.c **** *
 928:Generated_Source\PSoC4/CapSense_CSD.c **** * Summary:
 929:Generated_Source\PSoC4/CapSense_CSD.c **** *  Resets all the sensors to the non-sampling state by sequentially disconnecting
 930:Generated_Source\PSoC4/CapSense_CSD.c **** *  all the sensors from Analog MUX Bus and putting them to an inactive state.
ARM GAS  C:\Users\SHOZO\AppData\Local\Temp\ccpYscuc.s 			page 40


 931:Generated_Source\PSoC4/CapSense_CSD.c **** *
 932:Generated_Source\PSoC4/CapSense_CSD.c **** * Parameters:
 933:Generated_Source\PSoC4/CapSense_CSD.c **** *  None
 934:Generated_Source\PSoC4/CapSense_CSD.c **** *
 935:Generated_Source\PSoC4/CapSense_CSD.c **** * Return:
 936:Generated_Source\PSoC4/CapSense_CSD.c **** *  None
 937:Generated_Source\PSoC4/CapSense_CSD.c **** *
 938:Generated_Source\PSoC4/CapSense_CSD.c **** * Global Variables:
 939:Generated_Source\PSoC4/CapSense_CSD.c **** *  None
 940:Generated_Source\PSoC4/CapSense_CSD.c **** *
 941:Generated_Source\PSoC4/CapSense_CSD.c **** * Side Effects:
 942:Generated_Source\PSoC4/CapSense_CSD.c **** *  None
 943:Generated_Source\PSoC4/CapSense_CSD.c **** *
 944:Generated_Source\PSoC4/CapSense_CSD.c **** *******************************************************************************/
 945:Generated_Source\PSoC4/CapSense_CSD.c **** void CapSense_CSD_ClearSensors(void)
 946:Generated_Source\PSoC4/CapSense_CSD.c **** {
 1279              		.loc 1 946 0
 1280              		.cfi_startproc
 1281              		@ args = 0, pretend = 0, frame = 8
 1282              		@ frame_needed = 1, uses_anonymous_args = 0
 1283 0000 80B5     		push	{r7, lr}
 1284              		.cfi_def_cfa_offset 8
 1285              		.cfi_offset 7, -8
 1286              		.cfi_offset 14, -4
 1287 0002 82B0     		sub	sp, sp, #8
 1288              		.cfi_def_cfa_offset 16
 1289 0004 00AF     		add	r7, sp, #0
 1290              		.cfi_def_cfa_register 7
 947:Generated_Source\PSoC4/CapSense_CSD.c ****     uint32 snsIndex;
 948:Generated_Source\PSoC4/CapSense_CSD.c **** 
 949:Generated_Source\PSoC4/CapSense_CSD.c ****     for (snsIndex = 0u; snsIndex < CapSense_CSD_TOTAL_SENSOR_COUNT; snsIndex++)
 1291              		.loc 1 949 0
 1292 0006 0023     		movs	r3, #0
 1293 0008 7B60     		str	r3, [r7, #4]
 1294 000a 06E0     		b	.L68
 1295              	.L69:
 950:Generated_Source\PSoC4/CapSense_CSD.c ****     {
 951:Generated_Source\PSoC4/CapSense_CSD.c ****         CapSense_CSD_DisableScanSlot(snsIndex);
 1296              		.loc 1 951 0 discriminator 3
 1297 000c 7B68     		ldr	r3, [r7, #4]
 1298 000e 1800     		movs	r0, r3
 1299 0010 FFF7FEFF 		bl	CapSense_CSD_DisableSensor
 949:Generated_Source\PSoC4/CapSense_CSD.c ****     {
 1300              		.loc 1 949 0 discriminator 3
 1301 0014 7B68     		ldr	r3, [r7, #4]
 1302 0016 0133     		adds	r3, r3, #1
 1303 0018 7B60     		str	r3, [r7, #4]
 1304              	.L68:
 949:Generated_Source\PSoC4/CapSense_CSD.c ****     {
 1305              		.loc 1 949 0 is_stmt 0 discriminator 1
 1306 001a 7B68     		ldr	r3, [r7, #4]
 1307 001c 0C2B     		cmp	r3, #12
 1308 001e F5D9     		bls	.L69
 952:Generated_Source\PSoC4/CapSense_CSD.c ****     }
 953:Generated_Source\PSoC4/CapSense_CSD.c **** }
 1309              		.loc 1 953 0 is_stmt 1
 1310 0020 C046     		nop
ARM GAS  C:\Users\SHOZO\AppData\Local\Temp\ccpYscuc.s 			page 41


 1311 0022 BD46     		mov	sp, r7
 1312 0024 02B0     		add	sp, sp, #8
 1313              		@ sp needed
 1314 0026 80BD     		pop	{r7, pc}
 1315              		.cfi_endproc
 1316              	.LFE46:
 1317              		.size	CapSense_CSD_ClearSensors, .-CapSense_CSD_ClearSensors
 1318              		.section	.text.CapSense_CSD_EnableSensor,"ax",%progbits
 1319              		.align	2
 1320              		.global	CapSense_CSD_EnableSensor
 1321              		.code	16
 1322              		.thumb_func
 1323              		.type	CapSense_CSD_EnableSensor, %function
 1324              	CapSense_CSD_EnableSensor:
 1325              	.LFB47:
 954:Generated_Source\PSoC4/CapSense_CSD.c **** 
 955:Generated_Source\PSoC4/CapSense_CSD.c **** 
 956:Generated_Source\PSoC4/CapSense_CSD.c **** #if (CapSense_CSD_IS_COMPLEX_SCANSLOTS)
 957:Generated_Source\PSoC4/CapSense_CSD.c ****     /*******************************************************************************
 958:Generated_Source\PSoC4/CapSense_CSD.c ****     * Function Name: CapSense_CSD_EnableScanSlot
 959:Generated_Source\PSoC4/CapSense_CSD.c ****     ********************************************************************************
 960:Generated_Source\PSoC4/CapSense_CSD.c ****     *
 961:Generated_Source\PSoC4/CapSense_CSD.c ****     * Summary:
 962:Generated_Source\PSoC4/CapSense_CSD.c ****     *  Configures the selected slot to measure during the next measurement
 963:Generated_Source\PSoC4/CapSense_CSD.c ****     *  cycle. The corresponding pin/pins are set to Analog High-Z mode and
 964:Generated_Source\PSoC4/CapSense_CSD.c ****     *  connected to the Analog Mux Bus. This also enables the comparator function.
 965:Generated_Source\PSoC4/CapSense_CSD.c ****     *
 966:Generated_Source\PSoC4/CapSense_CSD.c ****     * Parameters:
 967:Generated_Source\PSoC4/CapSense_CSD.c ****     *  slot:  Slot number.
 968:Generated_Source\PSoC4/CapSense_CSD.c ****     *
 969:Generated_Source\PSoC4/CapSense_CSD.c ****     * Return:
 970:Generated_Source\PSoC4/CapSense_CSD.c ****     *  None
 971:Generated_Source\PSoC4/CapSense_CSD.c ****     *
 972:Generated_Source\PSoC4/CapSense_CSD.c ****     * Global Constants:
 973:Generated_Source\PSoC4/CapSense_CSD.c ****     *  CapSense_CSD_portTable[]  - used to store the port number that pin
 974:Generated_Source\PSoC4/CapSense_CSD.c ****     *  belongs to for each sensor.
 975:Generated_Source\PSoC4/CapSense_CSD.c ****     *  CapSense_CSD_maskTable[]  - used to store the pin within the port for
 976:Generated_Source\PSoC4/CapSense_CSD.c ****     *  each sensor.
 977:Generated_Source\PSoC4/CapSense_CSD.c ****     *  CapSense_CSD_indexTable[] - used to store indexes of complex sensors.
 978:Generated_Source\PSoC4/CapSense_CSD.c ****     *  The offset and position in this array are stored in a port and mask table for
 979:Generated_Source\PSoC4/CapSense_CSD.c ****     *  complex sensors.
 980:Generated_Source\PSoC4/CapSense_CSD.c ****     *  Bit 7 (msb) is used to define the sensor type: single or complex.
 981:Generated_Source\PSoC4/CapSense_CSD.c ****     *
 982:Generated_Source\PSoC4/CapSense_CSD.c ****     * Side Effects:
 983:Generated_Source\PSoC4/CapSense_CSD.c ****     *  None
 984:Generated_Source\PSoC4/CapSense_CSD.c ****     *
 985:Generated_Source\PSoC4/CapSense_CSD.c ****     *******************************************************************************/
 986:Generated_Source\PSoC4/CapSense_CSD.c ****     void CapSense_CSD_EnableScanSlot(uint32 slot)
 987:Generated_Source\PSoC4/CapSense_CSD.c ****     {
 988:Generated_Source\PSoC4/CapSense_CSD.c ****         uint8 j;
 989:Generated_Source\PSoC4/CapSense_CSD.c ****         uint8 snsNumber;
 990:Generated_Source\PSoC4/CapSense_CSD.c ****         const uint8 *index;
 991:Generated_Source\PSoC4/CapSense_CSD.c ****         /* Read sensor type: single or complex */
 992:Generated_Source\PSoC4/CapSense_CSD.c ****         uint8 snsType = CapSense_CSD_portTable[slot];
 993:Generated_Source\PSoC4/CapSense_CSD.c **** 
 994:Generated_Source\PSoC4/CapSense_CSD.c ****         /* Check if sensor is complex */
 995:Generated_Source\PSoC4/CapSense_CSD.c ****         if ((snsType & CapSense_CSD_COMPLEX_SS_FLAG) == 0u)
ARM GAS  C:\Users\SHOZO\AppData\Local\Temp\ccpYscuc.s 			page 42


 996:Generated_Source\PSoC4/CapSense_CSD.c ****         {
 997:Generated_Source\PSoC4/CapSense_CSD.c ****             /* Enable sensor (single) */
 998:Generated_Source\PSoC4/CapSense_CSD.c ****             CapSense_CSD_EnableSensor(slot);
 999:Generated_Source\PSoC4/CapSense_CSD.c ****         }
1000:Generated_Source\PSoC4/CapSense_CSD.c ****         else
1001:Generated_Source\PSoC4/CapSense_CSD.c ****         {
1002:Generated_Source\PSoC4/CapSense_CSD.c ****             /* Enable complex sensor */
1003:Generated_Source\PSoC4/CapSense_CSD.c ****             snsType &= ~CapSense_CSD_COMPLEX_SS_FLAG;
1004:Generated_Source\PSoC4/CapSense_CSD.c ****             index = &CapSense_CSD_indexTable[snsType];
1005:Generated_Source\PSoC4/CapSense_CSD.c ****             snsNumber = CapSense_CSD_maskTable[slot];
1006:Generated_Source\PSoC4/CapSense_CSD.c **** 
1007:Generated_Source\PSoC4/CapSense_CSD.c ****             for (j = 0u; j < snsNumber; j++)
1008:Generated_Source\PSoC4/CapSense_CSD.c ****             {
1009:Generated_Source\PSoC4/CapSense_CSD.c ****                 CapSense_CSD_EnableSensor(index[j]);
1010:Generated_Source\PSoC4/CapSense_CSD.c ****             }
1011:Generated_Source\PSoC4/CapSense_CSD.c ****         }
1012:Generated_Source\PSoC4/CapSense_CSD.c ****     }
1013:Generated_Source\PSoC4/CapSense_CSD.c **** 
1014:Generated_Source\PSoC4/CapSense_CSD.c **** 
1015:Generated_Source\PSoC4/CapSense_CSD.c ****     /*******************************************************************************
1016:Generated_Source\PSoC4/CapSense_CSD.c ****     * Function Name: CapSense_CSD_DisableScanSlot
1017:Generated_Source\PSoC4/CapSense_CSD.c ****     ********************************************************************************
1018:Generated_Source\PSoC4/CapSense_CSD.c ****     *
1019:Generated_Source\PSoC4/CapSense_CSD.c ****     * Summary:
1020:Generated_Source\PSoC4/CapSense_CSD.c ****     *  Disables the selected slot. The corresponding pin/pins is/are disconnected
1021:Generated_Source\PSoC4/CapSense_CSD.c ****     *  from the Analog Mux Bus and connected to GND, High_Z or Shield electrode.
1022:Generated_Source\PSoC4/CapSense_CSD.c ****     *
1023:Generated_Source\PSoC4/CapSense_CSD.c ****     * Parameters:
1024:Generated_Source\PSoC4/CapSense_CSD.c ****     *  slot:  Slot number.
1025:Generated_Source\PSoC4/CapSense_CSD.c ****     *
1026:Generated_Source\PSoC4/CapSense_CSD.c ****     * Return:
1027:Generated_Source\PSoC4/CapSense_CSD.c ****     *  None
1028:Generated_Source\PSoC4/CapSense_CSD.c ****     *
1029:Generated_Source\PSoC4/CapSense_CSD.c ****     * Global Variables:
1030:Generated_Source\PSoC4/CapSense_CSD.c ****     *  CapSense_CSD_portTable[]  - used to store the port number that pin
1031:Generated_Source\PSoC4/CapSense_CSD.c ****     *  belongs to for each sensor.
1032:Generated_Source\PSoC4/CapSense_CSD.c ****     *  CapSense_CSD_maskTable[]  - used to store the pin within the port for
1033:Generated_Source\PSoC4/CapSense_CSD.c ****     *  each sensor.
1034:Generated_Source\PSoC4/CapSense_CSD.c ****     *  CapSense_CSD_indexTable[] - used to store indexes of complex sensors.
1035:Generated_Source\PSoC4/CapSense_CSD.c ****     *  The offset and position in this array are stored in a port and mask table for
1036:Generated_Source\PSoC4/CapSense_CSD.c ****     *  complex sensors.
1037:Generated_Source\PSoC4/CapSense_CSD.c ****     *  7bit(msb) is used to define the sensor type: single or complex.
1038:Generated_Source\PSoC4/CapSense_CSD.c ****     *
1039:Generated_Source\PSoC4/CapSense_CSD.c ****     * Side Effects:
1040:Generated_Source\PSoC4/CapSense_CSD.c ****     *  None
1041:Generated_Source\PSoC4/CapSense_CSD.c ****     *
1042:Generated_Source\PSoC4/CapSense_CSD.c ****     *******************************************************************************/
1043:Generated_Source\PSoC4/CapSense_CSD.c ****     void CapSense_CSD_DisableScanSlot(uint32 slot)
1044:Generated_Source\PSoC4/CapSense_CSD.c ****     {
1045:Generated_Source\PSoC4/CapSense_CSD.c ****         uint8 j;
1046:Generated_Source\PSoC4/CapSense_CSD.c ****         uint8 snsNumber;
1047:Generated_Source\PSoC4/CapSense_CSD.c ****         const uint8 *index;
1048:Generated_Source\PSoC4/CapSense_CSD.c **** 
1049:Generated_Source\PSoC4/CapSense_CSD.c ****         /* Read sensor type: single or complex */
1050:Generated_Source\PSoC4/CapSense_CSD.c ****         uint8 snsType = CapSense_CSD_portTable[slot];
1051:Generated_Source\PSoC4/CapSense_CSD.c **** 
1052:Generated_Source\PSoC4/CapSense_CSD.c ****         /* Check if sensor is complex */
ARM GAS  C:\Users\SHOZO\AppData\Local\Temp\ccpYscuc.s 			page 43


1053:Generated_Source\PSoC4/CapSense_CSD.c ****         if ((snsType & CapSense_CSD_COMPLEX_SS_FLAG) == 0u)
1054:Generated_Source\PSoC4/CapSense_CSD.c ****         {
1055:Generated_Source\PSoC4/CapSense_CSD.c ****             /* Disable sensor (single) */
1056:Generated_Source\PSoC4/CapSense_CSD.c ****             CapSense_CSD_DisableSensor(slot);
1057:Generated_Source\PSoC4/CapSense_CSD.c ****         }
1058:Generated_Source\PSoC4/CapSense_CSD.c ****         else
1059:Generated_Source\PSoC4/CapSense_CSD.c ****         {
1060:Generated_Source\PSoC4/CapSense_CSD.c ****             /* Disable complex sensor */
1061:Generated_Source\PSoC4/CapSense_CSD.c ****             snsType &= ~CapSense_CSD_COMPLEX_SS_FLAG;
1062:Generated_Source\PSoC4/CapSense_CSD.c ****             index = &CapSense_CSD_indexTable[snsType];
1063:Generated_Source\PSoC4/CapSense_CSD.c ****             snsNumber = CapSense_CSD_maskTable[slot];
1064:Generated_Source\PSoC4/CapSense_CSD.c **** 
1065:Generated_Source\PSoC4/CapSense_CSD.c ****             for (j=0; j < snsNumber; j++)
1066:Generated_Source\PSoC4/CapSense_CSD.c ****             {
1067:Generated_Source\PSoC4/CapSense_CSD.c ****                 CapSense_CSD_DisableSensor(index[j]);
1068:Generated_Source\PSoC4/CapSense_CSD.c ****             }
1069:Generated_Source\PSoC4/CapSense_CSD.c ****         }
1070:Generated_Source\PSoC4/CapSense_CSD.c ****     }
1071:Generated_Source\PSoC4/CapSense_CSD.c **** #endif  /* CapSense_CSD_IS_COMPLEX_SCANSLOTS */
1072:Generated_Source\PSoC4/CapSense_CSD.c **** 
1073:Generated_Source\PSoC4/CapSense_CSD.c **** 
1074:Generated_Source\PSoC4/CapSense_CSD.c **** /*******************************************************************************
1075:Generated_Source\PSoC4/CapSense_CSD.c **** * Function Name: CapSense_CSD_EnableSensor
1076:Generated_Source\PSoC4/CapSense_CSD.c **** ********************************************************************************
1077:Generated_Source\PSoC4/CapSense_CSD.c **** *
1078:Generated_Source\PSoC4/CapSense_CSD.c **** * Summary:
1079:Generated_Source\PSoC4/CapSense_CSD.c **** *  Configures the selected sensor to measure during the next measurement cycle.
1080:Generated_Source\PSoC4/CapSense_CSD.c **** *  The corresponding pins are set to Analog High-Z mode and connected to the
1081:Generated_Source\PSoC4/CapSense_CSD.c **** *  Analog Mux Bus. This also enables the comparator function.
1082:Generated_Source\PSoC4/CapSense_CSD.c **** *
1083:Generated_Source\PSoC4/CapSense_CSD.c **** * Parameters:
1084:Generated_Source\PSoC4/CapSense_CSD.c **** *  sensor:  Sensor number.
1085:Generated_Source\PSoC4/CapSense_CSD.c **** *
1086:Generated_Source\PSoC4/CapSense_CSD.c **** * Return:
1087:Generated_Source\PSoC4/CapSense_CSD.c **** *  None
1088:Generated_Source\PSoC4/CapSense_CSD.c **** *
1089:Generated_Source\PSoC4/CapSense_CSD.c **** * Global Variables:
1090:Generated_Source\PSoC4/CapSense_CSD.c **** *  CapSense_CSD_portTable[] - used to store the port number that pin
1091:Generated_Source\PSoC4/CapSense_CSD.c **** *  belongs to for each sensor.
1092:Generated_Source\PSoC4/CapSense_CSD.c **** *  CapSense_CSD_pinShiftTbl[] - used to store position of pin that
1093:Generated_Source\PSoC4/CapSense_CSD.c **** *  configured as sensor in port.
1094:Generated_Source\PSoC4/CapSense_CSD.c **** *  CapSense_CSD_prtSelTbl[] - Contains pointers to the HSIOM
1095:Generated_Source\PSoC4/CapSense_CSD.c **** *  registers for each port.
1096:Generated_Source\PSoC4/CapSense_CSD.c **** *  CapSense_CSD_PrtCfgTb[] - Contains pointers to the port config
1097:Generated_Source\PSoC4/CapSense_CSD.c **** *  registers for each port.
1098:Generated_Source\PSoC4/CapSense_CSD.c **** *
1099:Generated_Source\PSoC4/CapSense_CSD.c **** * Side Effects:
1100:Generated_Source\PSoC4/CapSense_CSD.c **** *  None
1101:Generated_Source\PSoC4/CapSense_CSD.c **** *
1102:Generated_Source\PSoC4/CapSense_CSD.c **** *******************************************************************************/
1103:Generated_Source\PSoC4/CapSense_CSD.c **** void CapSense_CSD_EnableSensor(uint32 sensor)
1104:Generated_Source\PSoC4/CapSense_CSD.c **** {
 1326              		.loc 1 1104 0
 1327              		.cfi_startproc
 1328              		@ args = 0, pretend = 0, frame = 24
 1329              		@ frame_needed = 1, uses_anonymous_args = 0
 1330 0000 90B5     		push	{r4, r7, lr}
ARM GAS  C:\Users\SHOZO\AppData\Local\Temp\ccpYscuc.s 			page 44


 1331              		.cfi_def_cfa_offset 12
 1332              		.cfi_offset 4, -12
 1333              		.cfi_offset 7, -8
 1334              		.cfi_offset 14, -4
 1335 0002 87B0     		sub	sp, sp, #28
 1336              		.cfi_def_cfa_offset 40
 1337 0004 00AF     		add	r7, sp, #0
 1338              		.cfi_def_cfa_register 7
 1339 0006 7860     		str	r0, [r7, #4]
1105:Generated_Source\PSoC4/CapSense_CSD.c ****     uint8  pinModeShift;
1106:Generated_Source\PSoC4/CapSense_CSD.c ****     uint8  pinHSIOMShift;
1107:Generated_Source\PSoC4/CapSense_CSD.c ****     uint8 interruptState;
1108:Generated_Source\PSoC4/CapSense_CSD.c ****     uint32 newRegisterValue;
1109:Generated_Source\PSoC4/CapSense_CSD.c ****     uint32 port;
1110:Generated_Source\PSoC4/CapSense_CSD.c **** 
1111:Generated_Source\PSoC4/CapSense_CSD.c ****     port = (uint32) CapSense_CSD_portTable[sensor];
 1340              		.loc 1 1111 0
 1341 0008 2C4A     		ldr	r2, .L71
 1342 000a 7B68     		ldr	r3, [r7, #4]
 1343 000c D318     		adds	r3, r2, r3
 1344 000e 1B78     		ldrb	r3, [r3]
 1345 0010 7B61     		str	r3, [r7, #20]
1112:Generated_Source\PSoC4/CapSense_CSD.c ****     pinModeShift = CapSense_CSD_pinShiftTbl[sensor]  * CapSense_CSD_PC_PIN_CFG_SIZE;
 1346              		.loc 1 1112 0
 1347 0012 2B4A     		ldr	r2, .L71+4
 1348 0014 7B68     		ldr	r3, [r7, #4]
 1349 0016 D318     		adds	r3, r2, r3
 1350 0018 1B78     		ldrb	r3, [r3]
 1351 001a 1322     		movs	r2, #19
 1352 001c BA18     		adds	r2, r7, r2
 1353 001e 191C     		adds	r1, r3, #0
 1354 0020 0B1C     		adds	r3, r1, #0
 1355 0022 DB18     		adds	r3, r3, r3
 1356 0024 5B18     		adds	r3, r3, r1
 1357 0026 1370     		strb	r3, [r2]
1113:Generated_Source\PSoC4/CapSense_CSD.c ****     pinHSIOMShift = CapSense_CSD_pinShiftTbl[sensor] * CapSense_CSD_HSIOM_PIN_CFG_SIZE;
 1358              		.loc 1 1113 0
 1359 0028 254A     		ldr	r2, .L71+4
 1360 002a 7B68     		ldr	r3, [r7, #4]
 1361 002c D318     		adds	r3, r2, r3
 1362 002e 1A78     		ldrb	r2, [r3]
 1363 0030 1223     		movs	r3, #18
 1364 0032 FB18     		adds	r3, r7, r3
 1365 0034 9200     		lsls	r2, r2, #2
 1366 0036 1A70     		strb	r2, [r3]
1114:Generated_Source\PSoC4/CapSense_CSD.c **** 
1115:Generated_Source\PSoC4/CapSense_CSD.c ****     interruptState = CyEnterCriticalSection();
 1367              		.loc 1 1115 0
 1368 0038 1123     		movs	r3, #17
 1369 003a FC18     		adds	r4, r7, r3
 1370 003c FFF7FEFF 		bl	CyEnterCriticalSection
 1371 0040 0300     		movs	r3, r0
 1372 0042 2370     		strb	r3, [r4]
1116:Generated_Source\PSoC4/CapSense_CSD.c **** 
1117:Generated_Source\PSoC4/CapSense_CSD.c ****     newRegisterValue = *CapSense_CSD_prtSelTbl[port];
 1373              		.loc 1 1117 0
 1374 0044 1F4B     		ldr	r3, .L71+8
ARM GAS  C:\Users\SHOZO\AppData\Local\Temp\ccpYscuc.s 			page 45


 1375 0046 7A69     		ldr	r2, [r7, #20]
 1376 0048 9200     		lsls	r2, r2, #2
 1377 004a D358     		ldr	r3, [r2, r3]
 1378 004c 1B68     		ldr	r3, [r3]
 1379 004e FB60     		str	r3, [r7, #12]
1118:Generated_Source\PSoC4/CapSense_CSD.c ****     newRegisterValue &= ~(CapSense_CSD_CSD_HSIOM_MASK << pinHSIOMShift);
 1380              		.loc 1 1118 0
 1381 0050 1223     		movs	r3, #18
 1382 0052 FB18     		adds	r3, r7, r3
 1383 0054 1B78     		ldrb	r3, [r3]
 1384 0056 0F22     		movs	r2, #15
 1385 0058 9A40     		lsls	r2, r2, r3
 1386 005a 1300     		movs	r3, r2
 1387 005c DA43     		mvns	r2, r3
 1388 005e FB68     		ldr	r3, [r7, #12]
 1389 0060 1340     		ands	r3, r2
 1390 0062 FB60     		str	r3, [r7, #12]
1119:Generated_Source\PSoC4/CapSense_CSD.c ****     newRegisterValue |= (uint32)((uint32)CapSense_CSD_CSD_SENSE_PORT_MODE << pinHSIOMShift);
 1391              		.loc 1 1119 0
 1392 0064 1223     		movs	r3, #18
 1393 0066 FB18     		adds	r3, r7, r3
 1394 0068 1B78     		ldrb	r3, [r3]
 1395 006a 0422     		movs	r2, #4
 1396 006c 9A40     		lsls	r2, r2, r3
 1397 006e 1300     		movs	r3, r2
 1398 0070 FA68     		ldr	r2, [r7, #12]
 1399 0072 1343     		orrs	r3, r2
 1400 0074 FB60     		str	r3, [r7, #12]
1120:Generated_Source\PSoC4/CapSense_CSD.c **** 
1121:Generated_Source\PSoC4/CapSense_CSD.c ****     *CapSense_CSD_prtCfgTbl[port] &= (uint32)~((uint32)CapSense_CSD_CSD_PIN_MODE_MASK << pinModeShi
 1401              		.loc 1 1121 0
 1402 0076 144B     		ldr	r3, .L71+12
 1403 0078 7A69     		ldr	r2, [r7, #20]
 1404 007a 9200     		lsls	r2, r2, #2
 1405 007c D358     		ldr	r3, [r2, r3]
 1406 007e 124A     		ldr	r2, .L71+12
 1407 0080 7969     		ldr	r1, [r7, #20]
 1408 0082 8900     		lsls	r1, r1, #2
 1409 0084 8A58     		ldr	r2, [r1, r2]
 1410 0086 1268     		ldr	r2, [r2]
 1411 0088 1321     		movs	r1, #19
 1412 008a 7918     		adds	r1, r7, r1
 1413 008c 0978     		ldrb	r1, [r1]
 1414 008e 0720     		movs	r0, #7
 1415 0090 8840     		lsls	r0, r0, r1
 1416 0092 0100     		movs	r1, r0
 1417 0094 C943     		mvns	r1, r1
 1418 0096 0A40     		ands	r2, r1
 1419 0098 1A60     		str	r2, [r3]
1122:Generated_Source\PSoC4/CapSense_CSD.c ****     *CapSense_CSD_prtSelTbl[port] = newRegisterValue;
 1420              		.loc 1 1122 0
 1421 009a 0A4B     		ldr	r3, .L71+8
 1422 009c 7A69     		ldr	r2, [r7, #20]
 1423 009e 9200     		lsls	r2, r2, #2
 1424 00a0 D358     		ldr	r3, [r2, r3]
 1425 00a2 FA68     		ldr	r2, [r7, #12]
 1426 00a4 1A60     		str	r2, [r3]
ARM GAS  C:\Users\SHOZO\AppData\Local\Temp\ccpYscuc.s 			page 46


1123:Generated_Source\PSoC4/CapSense_CSD.c **** 
1124:Generated_Source\PSoC4/CapSense_CSD.c ****     CyExitCriticalSection(interruptState);
 1427              		.loc 1 1124 0
 1428 00a6 1123     		movs	r3, #17
 1429 00a8 FB18     		adds	r3, r7, r3
 1430 00aa 1B78     		ldrb	r3, [r3]
 1431 00ac 1800     		movs	r0, r3
 1432 00ae FFF7FEFF 		bl	CyExitCriticalSection
1125:Generated_Source\PSoC4/CapSense_CSD.c **** }
 1433              		.loc 1 1125 0
 1434 00b2 C046     		nop
 1435 00b4 BD46     		mov	sp, r7
 1436 00b6 07B0     		add	sp, sp, #28
 1437              		@ sp needed
 1438 00b8 90BD     		pop	{r4, r7, pc}
 1439              	.L72:
 1440 00ba C046     		.align	2
 1441              	.L71:
 1442 00bc 00000000 		.word	CapSense_CSD_portTable
 1443 00c0 00000000 		.word	CapSense_CSD_pinShiftTbl
 1444 00c4 00000000 		.word	CapSense_CSD_prtSelTbl
 1445 00c8 00000000 		.word	CapSense_CSD_prtCfgTbl
 1446              		.cfi_endproc
 1447              	.LFE47:
 1448              		.size	CapSense_CSD_EnableSensor, .-CapSense_CSD_EnableSensor
 1449              		.section	.text.CapSense_CSD_DisableSensor,"ax",%progbits
 1450              		.align	2
 1451              		.global	CapSense_CSD_DisableSensor
 1452              		.code	16
 1453              		.thumb_func
 1454              		.type	CapSense_CSD_DisableSensor, %function
 1455              	CapSense_CSD_DisableSensor:
 1456              	.LFB48:
1126:Generated_Source\PSoC4/CapSense_CSD.c **** 
1127:Generated_Source\PSoC4/CapSense_CSD.c **** 
1128:Generated_Source\PSoC4/CapSense_CSD.c **** /*******************************************************************************
1129:Generated_Source\PSoC4/CapSense_CSD.c **** * Function Name: CapSense_CSD_DisableSensor
1130:Generated_Source\PSoC4/CapSense_CSD.c **** ********************************************************************************
1131:Generated_Source\PSoC4/CapSense_CSD.c **** *
1132:Generated_Source\PSoC4/CapSense_CSD.c **** * Summary:
1133:Generated_Source\PSoC4/CapSense_CSD.c **** *  Disables the selected sensor. The corresponding pin is disconnected from the
1134:Generated_Source\PSoC4/CapSense_CSD.c **** *  Analog Mux Bus and connected to GND, High_Z or Shield electrode.
1135:Generated_Source\PSoC4/CapSense_CSD.c **** *
1136:Generated_Source\PSoC4/CapSense_CSD.c **** * Parameters:
1137:Generated_Source\PSoC4/CapSense_CSD.c **** *  sensor:  Sensor number
1138:Generated_Source\PSoC4/CapSense_CSD.c **** *
1139:Generated_Source\PSoC4/CapSense_CSD.c **** * Return:
1140:Generated_Source\PSoC4/CapSense_CSD.c **** *  None
1141:Generated_Source\PSoC4/CapSense_CSD.c **** *
1142:Generated_Source\PSoC4/CapSense_CSD.c **** * Global Variables:
1143:Generated_Source\PSoC4/CapSense_CSD.c **** *  CapSense_CSD_portTable[] - used to store the port number that pin
1144:Generated_Source\PSoC4/CapSense_CSD.c **** *  belongs to for each sensor.
1145:Generated_Source\PSoC4/CapSense_CSD.c **** *  CapSense_CSD_pinShiftTbl[] - used to store position of pin that
1146:Generated_Source\PSoC4/CapSense_CSD.c **** *  configured as a sensor in the port.
1147:Generated_Source\PSoC4/CapSense_CSD.c **** *  CapSense_CSD_prtSelTbl[] - Contains pointers to the HSIOM
1148:Generated_Source\PSoC4/CapSense_CSD.c **** *  registers for each port.
1149:Generated_Source\PSoC4/CapSense_CSD.c **** *  CapSense_CSD_PrtCfgTb[] - Contains pointers to the port config
ARM GAS  C:\Users\SHOZO\AppData\Local\Temp\ccpYscuc.s 			page 47


1150:Generated_Source\PSoC4/CapSense_CSD.c **** *  registers for each port.
1151:Generated_Source\PSoC4/CapSense_CSD.c **** *
1152:Generated_Source\PSoC4/CapSense_CSD.c **** * Side Effects:
1153:Generated_Source\PSoC4/CapSense_CSD.c **** *  None
1154:Generated_Source\PSoC4/CapSense_CSD.c **** *
1155:Generated_Source\PSoC4/CapSense_CSD.c **** *******************************************************************************/
1156:Generated_Source\PSoC4/CapSense_CSD.c **** void CapSense_CSD_DisableSensor(uint32 sensor)
1157:Generated_Source\PSoC4/CapSense_CSD.c **** {
 1457              		.loc 1 1157 0
 1458              		.cfi_startproc
 1459              		@ args = 0, pretend = 0, frame = 32
 1460              		@ frame_needed = 1, uses_anonymous_args = 0
 1461 0000 90B5     		push	{r4, r7, lr}
 1462              		.cfi_def_cfa_offset 12
 1463              		.cfi_offset 4, -12
 1464              		.cfi_offset 7, -8
 1465              		.cfi_offset 14, -4
 1466 0002 89B0     		sub	sp, sp, #36
 1467              		.cfi_def_cfa_offset 48
 1468 0004 00AF     		add	r7, sp, #0
 1469              		.cfi_def_cfa_register 7
 1470 0006 7860     		str	r0, [r7, #4]
1158:Generated_Source\PSoC4/CapSense_CSD.c ****     uint8 interruptState;
1159:Generated_Source\PSoC4/CapSense_CSD.c ****     uint32 newRegisterValue;
1160:Generated_Source\PSoC4/CapSense_CSD.c **** 
1161:Generated_Source\PSoC4/CapSense_CSD.c ****     uint32 port = (uint32) CapSense_CSD_portTable[sensor];
 1471              		.loc 1 1161 0
 1472 0008 3E4A     		ldr	r2, .L76
 1473 000a 7B68     		ldr	r3, [r7, #4]
 1474 000c D318     		adds	r3, r2, r3
 1475 000e 1B78     		ldrb	r3, [r3]
 1476 0010 7B61     		str	r3, [r7, #20]
1162:Generated_Source\PSoC4/CapSense_CSD.c ****     uint8  pinHSIOMShift = CapSense_CSD_pinShiftTbl[sensor] * CapSense_CSD_HSIOM_PIN_CFG_SIZE;
 1477              		.loc 1 1162 0
 1478 0012 3D4A     		ldr	r2, .L76+4
 1479 0014 7B68     		ldr	r3, [r7, #4]
 1480 0016 D318     		adds	r3, r2, r3
 1481 0018 1A78     		ldrb	r2, [r3]
 1482 001a 1323     		movs	r3, #19
 1483 001c FB18     		adds	r3, r7, r3
 1484 001e 9200     		lsls	r2, r2, #2
 1485 0020 1A70     		strb	r2, [r3]
1163:Generated_Source\PSoC4/CapSense_CSD.c ****     uint8  pinModeShift = CapSense_CSD_pinShiftTbl[sensor]  * CapSense_CSD_PC_PIN_CFG_SIZE;
 1486              		.loc 1 1163 0
 1487 0022 394A     		ldr	r2, .L76+4
 1488 0024 7B68     		ldr	r3, [r7, #4]
 1489 0026 D318     		adds	r3, r2, r3
 1490 0028 1B78     		ldrb	r3, [r3]
 1491 002a 1222     		movs	r2, #18
 1492 002c BA18     		adds	r2, r7, r2
 1493 002e 191C     		adds	r1, r3, #0
 1494 0030 0B1C     		adds	r3, r1, #0
 1495 0032 DB18     		adds	r3, r3, r3
 1496 0034 5B18     		adds	r3, r3, r1
 1497 0036 1370     		strb	r3, [r2]
1164:Generated_Source\PSoC4/CapSense_CSD.c **** 
1165:Generated_Source\PSoC4/CapSense_CSD.c ****     uint32 inactiveConnect = CapSense_CSD_SNS_HIZANALOG_CONNECT;
ARM GAS  C:\Users\SHOZO\AppData\Local\Temp\ccpYscuc.s 			page 48


 1498              		.loc 1 1165 0
 1499 0038 0023     		movs	r3, #0
 1500 003a FB61     		str	r3, [r7, #28]
1166:Generated_Source\PSoC4/CapSense_CSD.c ****     uint32 sensorState = CapSense_CSD_unscannedSnsDriveMode[sensor];
 1501              		.loc 1 1166 0
 1502 003c 334A     		ldr	r2, .L76+8
 1503 003e 7B68     		ldr	r3, [r7, #4]
 1504 0040 D318     		adds	r3, r2, r3
 1505 0042 1B78     		ldrb	r3, [r3]
 1506 0044 BB61     		str	r3, [r7, #24]
1167:Generated_Source\PSoC4/CapSense_CSD.c **** 
1168:Generated_Source\PSoC4/CapSense_CSD.c ****     *CapSense_CSD_prtSelTbl[port] &= ~(CapSense_CSD_CSD_HSIOM_MASK << pinHSIOMShift);
 1507              		.loc 1 1168 0
 1508 0046 324B     		ldr	r3, .L76+12
 1509 0048 7A69     		ldr	r2, [r7, #20]
 1510 004a 9200     		lsls	r2, r2, #2
 1511 004c D358     		ldr	r3, [r2, r3]
 1512 004e 304A     		ldr	r2, .L76+12
 1513 0050 7969     		ldr	r1, [r7, #20]
 1514 0052 8900     		lsls	r1, r1, #2
 1515 0054 8A58     		ldr	r2, [r1, r2]
 1516 0056 1268     		ldr	r2, [r2]
 1517 0058 1321     		movs	r1, #19
 1518 005a 7918     		adds	r1, r7, r1
 1519 005c 0978     		ldrb	r1, [r1]
 1520 005e 0F20     		movs	r0, #15
 1521 0060 8840     		lsls	r0, r0, r1
 1522 0062 0100     		movs	r1, r0
 1523 0064 C943     		mvns	r1, r1
 1524 0066 0A40     		ands	r2, r1
 1525 0068 1A60     		str	r2, [r3]
1169:Generated_Source\PSoC4/CapSense_CSD.c **** 
1170:Generated_Source\PSoC4/CapSense_CSD.c ****     #if(CapSense_CSD_IS_SHIELD_ENABLE != 0)
1171:Generated_Source\PSoC4/CapSense_CSD.c ****     if(sensorState != (uint32)CapSense_CSD__SHIELD)
1172:Generated_Source\PSoC4/CapSense_CSD.c ****     {
1173:Generated_Source\PSoC4/CapSense_CSD.c ****     #else
1174:Generated_Source\PSoC4/CapSense_CSD.c ****         /* Connected to Ground if shield is disabled */
1175:Generated_Source\PSoC4/CapSense_CSD.c ****         if(sensorState == (uint32)CapSense_CSD__SHIELD)
 1526              		.loc 1 1175 0
 1527 006a BB69     		ldr	r3, [r7, #24]
 1528 006c 022B     		cmp	r3, #2
 1529 006e 01D1     		bne	.L74
1176:Generated_Source\PSoC4/CapSense_CSD.c ****         {
1177:Generated_Source\PSoC4/CapSense_CSD.c ****             sensorState = (uint32)CapSense_CSD__GROUND;
 1530              		.loc 1 1177 0
 1531 0070 0023     		movs	r3, #0
 1532 0072 BB61     		str	r3, [r7, #24]
 1533              	.L74:
1178:Generated_Source\PSoC4/CapSense_CSD.c ****         }
1179:Generated_Source\PSoC4/CapSense_CSD.c ****     #endif /* (CapSense_CSD_IS_SHIELD_ENABLE) */
1180:Generated_Source\PSoC4/CapSense_CSD.c ****         if(sensorState != (uint32)CapSense_CSD__HIZ_ANALOG)
 1534              		.loc 1 1180 0
 1535 0074 BB69     		ldr	r3, [r7, #24]
 1536 0076 012B     		cmp	r3, #1
 1537 0078 01D0     		beq	.L75
1181:Generated_Source\PSoC4/CapSense_CSD.c ****         {
1182:Generated_Source\PSoC4/CapSense_CSD.c ****             /* Connected to Ground */
ARM GAS  C:\Users\SHOZO\AppData\Local\Temp\ccpYscuc.s 			page 49


1183:Generated_Source\PSoC4/CapSense_CSD.c ****             inactiveConnect = (uint32)CapSense_CSD_SNS_GROUND_CONNECT;
 1538              		.loc 1 1183 0
 1539 007a 0623     		movs	r3, #6
 1540 007c FB61     		str	r3, [r7, #28]
 1541              	.L75:
1184:Generated_Source\PSoC4/CapSense_CSD.c ****         }
1185:Generated_Source\PSoC4/CapSense_CSD.c **** 
1186:Generated_Source\PSoC4/CapSense_CSD.c ****         interruptState = CyEnterCriticalSection();
 1542              		.loc 1 1186 0
 1543 007e 1123     		movs	r3, #17
 1544 0080 FC18     		adds	r4, r7, r3
 1545 0082 FFF7FEFF 		bl	CyEnterCriticalSection
 1546 0086 0300     		movs	r3, r0
 1547 0088 2370     		strb	r3, [r4]
1187:Generated_Source\PSoC4/CapSense_CSD.c **** 
1188:Generated_Source\PSoC4/CapSense_CSD.c ****         /* Set drive mode */
1189:Generated_Source\PSoC4/CapSense_CSD.c ****         newRegisterValue = *CapSense_CSD_prtCfgTbl[port];
 1548              		.loc 1 1189 0
 1549 008a 224B     		ldr	r3, .L76+16
 1550 008c 7A69     		ldr	r2, [r7, #20]
 1551 008e 9200     		lsls	r2, r2, #2
 1552 0090 D358     		ldr	r3, [r2, r3]
 1553 0092 1B68     		ldr	r3, [r3]
 1554 0094 FB60     		str	r3, [r7, #12]
1190:Generated_Source\PSoC4/CapSense_CSD.c ****         newRegisterValue &= ~(CapSense_CSD_CSD_PIN_MODE_MASK << pinModeShift);
 1555              		.loc 1 1190 0
 1556 0096 1223     		movs	r3, #18
 1557 0098 FB18     		adds	r3, r7, r3
 1558 009a 1B78     		ldrb	r3, [r3]
 1559 009c 0722     		movs	r2, #7
 1560 009e 9A40     		lsls	r2, r2, r3
 1561 00a0 1300     		movs	r3, r2
 1562 00a2 DA43     		mvns	r2, r3
 1563 00a4 FB68     		ldr	r3, [r7, #12]
 1564 00a6 1340     		ands	r3, r2
 1565 00a8 FB60     		str	r3, [r7, #12]
1191:Generated_Source\PSoC4/CapSense_CSD.c ****         newRegisterValue |=  (uint32)(inactiveConnect << pinModeShift);
 1566              		.loc 1 1191 0
 1567 00aa 1223     		movs	r3, #18
 1568 00ac FB18     		adds	r3, r7, r3
 1569 00ae 1B78     		ldrb	r3, [r3]
 1570 00b0 FA69     		ldr	r2, [r7, #28]
 1571 00b2 9A40     		lsls	r2, r2, r3
 1572 00b4 1300     		movs	r3, r2
 1573 00b6 FA68     		ldr	r2, [r7, #12]
 1574 00b8 1343     		orrs	r3, r2
 1575 00ba FB60     		str	r3, [r7, #12]
1192:Generated_Source\PSoC4/CapSense_CSD.c ****         *CapSense_CSD_prtCfgTbl[port] =  newRegisterValue;
 1576              		.loc 1 1192 0
 1577 00bc 154B     		ldr	r3, .L76+16
 1578 00be 7A69     		ldr	r2, [r7, #20]
 1579 00c0 9200     		lsls	r2, r2, #2
 1580 00c2 D358     		ldr	r3, [r2, r3]
 1581 00c4 FA68     		ldr	r2, [r7, #12]
 1582 00c6 1A60     		str	r2, [r3]
1193:Generated_Source\PSoC4/CapSense_CSD.c **** 
1194:Generated_Source\PSoC4/CapSense_CSD.c ****         CyExitCriticalSection(interruptState);
ARM GAS  C:\Users\SHOZO\AppData\Local\Temp\ccpYscuc.s 			page 50


 1583              		.loc 1 1194 0
 1584 00c8 1123     		movs	r3, #17
 1585 00ca FB18     		adds	r3, r7, r3
 1586 00cc 1B78     		ldrb	r3, [r3]
 1587 00ce 1800     		movs	r0, r3
 1588 00d0 FFF7FEFF 		bl	CyExitCriticalSection
1195:Generated_Source\PSoC4/CapSense_CSD.c **** 
1196:Generated_Source\PSoC4/CapSense_CSD.c ****         *CapSense_CSD_prtDRTbl[port]  &=  (uint32)~(uint32)((uint32)1u << CapSense_CSD_pinShiftTbl[
 1589              		.loc 1 1196 0
 1590 00d4 104B     		ldr	r3, .L76+20
 1591 00d6 7A69     		ldr	r2, [r7, #20]
 1592 00d8 9200     		lsls	r2, r2, #2
 1593 00da D358     		ldr	r3, [r2, r3]
 1594 00dc 0E4A     		ldr	r2, .L76+20
 1595 00de 7969     		ldr	r1, [r7, #20]
 1596 00e0 8900     		lsls	r1, r1, #2
 1597 00e2 8A58     		ldr	r2, [r1, r2]
 1598 00e4 1268     		ldr	r2, [r2]
 1599 00e6 0848     		ldr	r0, .L76+4
 1600 00e8 7968     		ldr	r1, [r7, #4]
 1601 00ea 4118     		adds	r1, r0, r1
 1602 00ec 0978     		ldrb	r1, [r1]
 1603 00ee 0800     		movs	r0, r1
 1604 00f0 0121     		movs	r1, #1
 1605 00f2 8140     		lsls	r1, r1, r0
 1606 00f4 C943     		mvns	r1, r1
 1607 00f6 0A40     		ands	r2, r1
 1608 00f8 1A60     		str	r2, [r3]
1197:Generated_Source\PSoC4/CapSense_CSD.c ****     #if(CapSense_CSD_IS_SHIELD_ENABLE != 0)
1198:Generated_Source\PSoC4/CapSense_CSD.c ****     }
1199:Generated_Source\PSoC4/CapSense_CSD.c ****     else
1200:Generated_Source\PSoC4/CapSense_CSD.c ****     {
1201:Generated_Source\PSoC4/CapSense_CSD.c ****         /* Connect to Shield */
1202:Generated_Source\PSoC4/CapSense_CSD.c ****         *CapSense_CSD_prtSelTbl[port] |= (CapSense_CSD_CSD_SHIELD_PORT_MODE << pinHSIOMShift);
1203:Generated_Source\PSoC4/CapSense_CSD.c ****     }
1204:Generated_Source\PSoC4/CapSense_CSD.c ****     #endif /* (CapSense_CSD_IS_SHIELD_ENABLE) */
1205:Generated_Source\PSoC4/CapSense_CSD.c **** }
 1609              		.loc 1 1205 0
 1610 00fa C046     		nop
 1611 00fc BD46     		mov	sp, r7
 1612 00fe 09B0     		add	sp, sp, #36
 1613              		@ sp needed
 1614 0100 90BD     		pop	{r4, r7, pc}
 1615              	.L77:
 1616 0102 C046     		.align	2
 1617              	.L76:
 1618 0104 00000000 		.word	CapSense_CSD_portTable
 1619 0108 00000000 		.word	CapSense_CSD_pinShiftTbl
 1620 010c 00000000 		.word	CapSense_CSD_unscannedSnsDriveMode
 1621 0110 00000000 		.word	CapSense_CSD_prtSelTbl
 1622 0114 00000000 		.word	CapSense_CSD_prtCfgTbl
 1623 0118 00000000 		.word	CapSense_CSD_prtDRTbl
 1624              		.cfi_endproc
 1625              	.LFE48:
 1626              		.size	CapSense_CSD_DisableSensor, .-CapSense_CSD_DisableSensor
 1627              		.section	.text.CapSense_CSD_SetDriveModeAllPins,"ax",%progbits
 1628              		.align	2
ARM GAS  C:\Users\SHOZO\AppData\Local\Temp\ccpYscuc.s 			page 51


 1629              		.global	CapSense_CSD_SetDriveModeAllPins
 1630              		.code	16
 1631              		.thumb_func
 1632              		.type	CapSense_CSD_SetDriveModeAllPins, %function
 1633              	CapSense_CSD_SetDriveModeAllPins:
 1634              	.LFB49:
1206:Generated_Source\PSoC4/CapSense_CSD.c **** 
1207:Generated_Source\PSoC4/CapSense_CSD.c **** 
1208:Generated_Source\PSoC4/CapSense_CSD.c **** /*******************************************************************************
1209:Generated_Source\PSoC4/CapSense_CSD.c **** * Function Name: CapSense_CSD_SetDriveModeAllPins
1210:Generated_Source\PSoC4/CapSense_CSD.c **** ********************************************************************************
1211:Generated_Source\PSoC4/CapSense_CSD.c **** *
1212:Generated_Source\PSoC4/CapSense_CSD.c **** * Summary:
1213:Generated_Source\PSoC4/CapSense_CSD.c **** * This API sets the drive mode of port pins used by the CapSense
1214:Generated_Source\PSoC4/CapSense_CSD.c **** * component (sensors, guard, shield, shield tank and Cmod) to drive the
1215:Generated_Source\PSoC4/CapSense_CSD.c **** * mode specified by the argument.
1216:Generated_Source\PSoC4/CapSense_CSD.c **** *
1217:Generated_Source\PSoC4/CapSense_CSD.c **** * Parameters:
1218:Generated_Source\PSoC4/CapSense_CSD.c **** *  driveMode:  Drive mode definition.
1219:Generated_Source\PSoC4/CapSense_CSD.c **** *
1220:Generated_Source\PSoC4/CapSense_CSD.c **** * Return:
1221:Generated_Source\PSoC4/CapSense_CSD.c **** *  None
1222:Generated_Source\PSoC4/CapSense_CSD.c **** *
1223:Generated_Source\PSoC4/CapSense_CSD.c **** * Global Variables:
1224:Generated_Source\PSoC4/CapSense_CSD.c **** *  CapSense_CSD_portTable[] - used to store the port number that pin
1225:Generated_Source\PSoC4/CapSense_CSD.c **** *  belongs to for each sensor.
1226:Generated_Source\PSoC4/CapSense_CSD.c **** *  CapSense_CSD_pinShiftTbl[] - used to store position of pin that
1227:Generated_Source\PSoC4/CapSense_CSD.c **** *  configured as a sensor in the port.
1228:Generated_Source\PSoC4/CapSense_CSD.c **** *
1229:Generated_Source\PSoC4/CapSense_CSD.c **** * Side Effects:
1230:Generated_Source\PSoC4/CapSense_CSD.c **** *  This API shall be called only after CapSense component is stopped.
1231:Generated_Source\PSoC4/CapSense_CSD.c **** *
1232:Generated_Source\PSoC4/CapSense_CSD.c **** *******************************************************************************/
1233:Generated_Source\PSoC4/CapSense_CSD.c **** void CapSense_CSD_SetDriveModeAllPins(uint32 driveMode)
1234:Generated_Source\PSoC4/CapSense_CSD.c **** {
 1635              		.loc 1 1234 0
 1636              		.cfi_startproc
 1637              		@ args = 0, pretend = 0, frame = 24
 1638              		@ frame_needed = 1, uses_anonymous_args = 0
 1639 0000 80B5     		push	{r7, lr}
 1640              		.cfi_def_cfa_offset 8
 1641              		.cfi_offset 7, -8
 1642              		.cfi_offset 14, -4
 1643 0002 86B0     		sub	sp, sp, #24
 1644              		.cfi_def_cfa_offset 32
 1645 0004 00AF     		add	r7, sp, #0
 1646              		.cfi_def_cfa_register 7
 1647 0006 7860     		str	r0, [r7, #4]
1235:Generated_Source\PSoC4/CapSense_CSD.c ****     uint8 curSensor;
1236:Generated_Source\PSoC4/CapSense_CSD.c ****     #if (CapSense_CSD_IS_COMPLEX_SCANSLOTS)
1237:Generated_Source\PSoC4/CapSense_CSD.c ****         uint8 snsNumber;
1238:Generated_Source\PSoC4/CapSense_CSD.c ****         uint8 snsType;
1239:Generated_Source\PSoC4/CapSense_CSD.c ****     #endif  /* CapSense_CSD_IS_COMPLEX_SCANSLOTS */
1240:Generated_Source\PSoC4/CapSense_CSD.c ****     uint32 prtNumberTmp;
1241:Generated_Source\PSoC4/CapSense_CSD.c ****     uint32 pinNumberTmp;
1242:Generated_Source\PSoC4/CapSense_CSD.c **** 
1243:Generated_Source\PSoC4/CapSense_CSD.c ****     for(curSensor = 0u; curSensor < CapSense_CSD_TOTAL_SENSOR_COUNT; curSensor++)
ARM GAS  C:\Users\SHOZO\AppData\Local\Temp\ccpYscuc.s 			page 52


 1648              		.loc 1 1243 0
 1649 0008 1723     		movs	r3, #23
 1650 000a FB18     		adds	r3, r7, r3
 1651 000c 0022     		movs	r2, #0
 1652 000e 1A70     		strb	r2, [r3]
 1653 0010 18E0     		b	.L79
 1654              	.L80:
1244:Generated_Source\PSoC4/CapSense_CSD.c ****     {
1245:Generated_Source\PSoC4/CapSense_CSD.c ****         #if (CapSense_CSD_IS_COMPLEX_SCANSLOTS)
1246:Generated_Source\PSoC4/CapSense_CSD.c ****             /* Read sensor type: single or complex */
1247:Generated_Source\PSoC4/CapSense_CSD.c ****             snsType = CapSense_CSD_portTable[curSensor];
1248:Generated_Source\PSoC4/CapSense_CSD.c **** 
1249:Generated_Source\PSoC4/CapSense_CSD.c ****             /* Check if sensor is complex */
1250:Generated_Source\PSoC4/CapSense_CSD.c ****             if ((snsType & CapSense_CSD_COMPLEX_SS_FLAG) == 0u)
1251:Generated_Source\PSoC4/CapSense_CSD.c ****             {
1252:Generated_Source\PSoC4/CapSense_CSD.c ****                 /* The sensor is not complex */
1253:Generated_Source\PSoC4/CapSense_CSD.c ****                 snsNumber = curSensor;
1254:Generated_Source\PSoC4/CapSense_CSD.c ****             }
1255:Generated_Source\PSoC4/CapSense_CSD.c ****             else
1256:Generated_Source\PSoC4/CapSense_CSD.c ****             {
1257:Generated_Source\PSoC4/CapSense_CSD.c ****                 /* Get dedicated sensor ID of the complex sensor */
1258:Generated_Source\PSoC4/CapSense_CSD.c ****                 snsType &= ~CapSense_CSD_COMPLEX_SS_FLAG;
1259:Generated_Source\PSoC4/CapSense_CSD.c ****                 snsNumber = CapSense_CSD_indexTable[snsType];
1260:Generated_Source\PSoC4/CapSense_CSD.c ****             }
1261:Generated_Source\PSoC4/CapSense_CSD.c **** 
1262:Generated_Source\PSoC4/CapSense_CSD.c ****             prtNumberTmp = CapSense_CSD_portTable[snsNumber];
1263:Generated_Source\PSoC4/CapSense_CSD.c ****             pinNumberTmp = CapSense_CSD_pinShiftTbl[snsNumber];
1264:Generated_Source\PSoC4/CapSense_CSD.c ****         #else
1265:Generated_Source\PSoC4/CapSense_CSD.c ****             prtNumberTmp = CapSense_CSD_portTable[curSensor];
 1655              		.loc 1 1265 0 discriminator 3
 1656 0012 1723     		movs	r3, #23
 1657 0014 FB18     		adds	r3, r7, r3
 1658 0016 1B78     		ldrb	r3, [r3]
 1659 0018 124A     		ldr	r2, .L81
 1660 001a D35C     		ldrb	r3, [r2, r3]
 1661 001c 3B61     		str	r3, [r7, #16]
1266:Generated_Source\PSoC4/CapSense_CSD.c ****             pinNumberTmp = CapSense_CSD_pinShiftTbl[curSensor];
 1662              		.loc 1 1266 0 discriminator 3
 1663 001e 1723     		movs	r3, #23
 1664 0020 FB18     		adds	r3, r7, r3
 1665 0022 1B78     		ldrb	r3, [r3]
 1666 0024 104A     		ldr	r2, .L81+4
 1667 0026 D35C     		ldrb	r3, [r2, r3]
 1668 0028 FB60     		str	r3, [r7, #12]
1267:Generated_Source\PSoC4/CapSense_CSD.c ****         #endif  /* CapSense_CSD_IS_COMPLEX_SCANSLOTS */
1268:Generated_Source\PSoC4/CapSense_CSD.c **** 
1269:Generated_Source\PSoC4/CapSense_CSD.c ****         CapSense_CSD_SetPinDriveMode(driveMode, pinNumberTmp, prtNumberTmp);
 1669              		.loc 1 1269 0 discriminator 3
 1670 002a 3A69     		ldr	r2, [r7, #16]
 1671 002c F968     		ldr	r1, [r7, #12]
 1672 002e 7B68     		ldr	r3, [r7, #4]
 1673 0030 1800     		movs	r0, r3
 1674 0032 FFF7FEFF 		bl	CapSense_CSD_SetPinDriveMode
1243:Generated_Source\PSoC4/CapSense_CSD.c ****     {
 1675              		.loc 1 1243 0 discriminator 3
 1676 0036 1723     		movs	r3, #23
 1677 0038 FB18     		adds	r3, r7, r3
ARM GAS  C:\Users\SHOZO\AppData\Local\Temp\ccpYscuc.s 			page 53


 1678 003a 1A78     		ldrb	r2, [r3]
 1679 003c 1723     		movs	r3, #23
 1680 003e FB18     		adds	r3, r7, r3
 1681 0040 0132     		adds	r2, r2, #1
 1682 0042 1A70     		strb	r2, [r3]
 1683              	.L79:
1243:Generated_Source\PSoC4/CapSense_CSD.c ****     {
 1684              		.loc 1 1243 0 is_stmt 0 discriminator 1
 1685 0044 1723     		movs	r3, #23
 1686 0046 FB18     		adds	r3, r7, r3
 1687 0048 1B78     		ldrb	r3, [r3]
 1688 004a 0C2B     		cmp	r3, #12
 1689 004c E1D9     		bls	.L80
1270:Generated_Source\PSoC4/CapSense_CSD.c ****     }
1271:Generated_Source\PSoC4/CapSense_CSD.c **** 
1272:Generated_Source\PSoC4/CapSense_CSD.c ****     CapSense_CSD_SetPinDriveMode(driveMode, (uint32)CapSense_CSD_CMOD_PIN_NUMBER, (uint32)CapSense_
 1690              		.loc 1 1272 0 is_stmt 1
 1691 004e 7B68     		ldr	r3, [r7, #4]
 1692 0050 0422     		movs	r2, #4
 1693 0052 0221     		movs	r1, #2
 1694 0054 1800     		movs	r0, r3
 1695 0056 FFF7FEFF 		bl	CapSense_CSD_SetPinDriveMode
1273:Generated_Source\PSoC4/CapSense_CSD.c **** 
1274:Generated_Source\PSoC4/CapSense_CSD.c ****     #if(0u != CapSense_CSD_CSH_TANK_ENABLE)
1275:Generated_Source\PSoC4/CapSense_CSD.c ****         CapSense_CSD_SetPinDriveMode(driveMode, (uint32)CapSense_CSD_CTANK_PIN_NUMBER, (uint32)CapS
1276:Generated_Source\PSoC4/CapSense_CSD.c ****     #endif /* (0u != CapSense_CSD_CSH_TANK_ENABLE) */
1277:Generated_Source\PSoC4/CapSense_CSD.c **** 
1278:Generated_Source\PSoC4/CapSense_CSD.c ****     #if(0u != CapSense_CSD_IS_SHIELD_ENABLE)
1279:Generated_Source\PSoC4/CapSense_CSD.c ****         CapSense_CSD_SetPinDriveMode(driveMode, (uint32)CapSense_CSD_SHIELD_PIN_NUMBER, (uint32)Cap
1280:Generated_Source\PSoC4/CapSense_CSD.c ****     #endif /* (0u != CapSense_CSD_IS_SHIELD_ENABLE) */
1281:Generated_Source\PSoC4/CapSense_CSD.c **** }
 1696              		.loc 1 1281 0
 1697 005a C046     		nop
 1698 005c BD46     		mov	sp, r7
 1699 005e 06B0     		add	sp, sp, #24
 1700              		@ sp needed
 1701 0060 80BD     		pop	{r7, pc}
 1702              	.L82:
 1703 0062 C046     		.align	2
 1704              	.L81:
 1705 0064 00000000 		.word	CapSense_CSD_portTable
 1706 0068 00000000 		.word	CapSense_CSD_pinShiftTbl
 1707              		.cfi_endproc
 1708              	.LFE49:
 1709              		.size	CapSense_CSD_SetDriveModeAllPins, .-CapSense_CSD_SetDriveModeAllPins
 1710              		.section	.text.CapSense_CSD_RestoreDriveModeAllPins,"ax",%progbits
 1711              		.align	2
 1712              		.global	CapSense_CSD_RestoreDriveModeAllPins
 1713              		.code	16
 1714              		.thumb_func
 1715              		.type	CapSense_CSD_RestoreDriveModeAllPins, %function
 1716              	CapSense_CSD_RestoreDriveModeAllPins:
 1717              	.LFB50:
1282:Generated_Source\PSoC4/CapSense_CSD.c **** 
1283:Generated_Source\PSoC4/CapSense_CSD.c **** 
1284:Generated_Source\PSoC4/CapSense_CSD.c **** /*******************************************************************************
1285:Generated_Source\PSoC4/CapSense_CSD.c **** * Function Name: CapSense_CSD_RestoreDriveModeAllPins
ARM GAS  C:\Users\SHOZO\AppData\Local\Temp\ccpYscuc.s 			page 54


1286:Generated_Source\PSoC4/CapSense_CSD.c **** ********************************************************************************
1287:Generated_Source\PSoC4/CapSense_CSD.c **** *
1288:Generated_Source\PSoC4/CapSense_CSD.c **** * Summary:
1289:Generated_Source\PSoC4/CapSense_CSD.c **** *  This API restores the drive for all the CapSense port pins to the original
1290:Generated_Source\PSoC4/CapSense_CSD.c **** *  state.
1291:Generated_Source\PSoC4/CapSense_CSD.c **** *
1292:Generated_Source\PSoC4/CapSense_CSD.c **** * Parameters:
1293:Generated_Source\PSoC4/CapSense_CSD.c **** *  None
1294:Generated_Source\PSoC4/CapSense_CSD.c **** *
1295:Generated_Source\PSoC4/CapSense_CSD.c **** * Return:
1296:Generated_Source\PSoC4/CapSense_CSD.c **** *  None
1297:Generated_Source\PSoC4/CapSense_CSD.c **** *
1298:Generated_Source\PSoC4/CapSense_CSD.c **** * Global Variables:
1299:Generated_Source\PSoC4/CapSense_CSD.c **** *  CapSense_CSD_prtSelTbl[] - Contains pointers to the HSIOM
1300:Generated_Source\PSoC4/CapSense_CSD.c **** *  registers for each port.
1301:Generated_Source\PSoC4/CapSense_CSD.c **** *
1302:Generated_Source\PSoC4/CapSense_CSD.c **** * Side Effects:
1303:Generated_Source\PSoC4/CapSense_CSD.c **** *  This API is called only after the CapSense component is stopped.
1304:Generated_Source\PSoC4/CapSense_CSD.c **** *
1305:Generated_Source\PSoC4/CapSense_CSD.c **** *******************************************************************************/
1306:Generated_Source\PSoC4/CapSense_CSD.c **** void CapSense_CSD_RestoreDriveModeAllPins(void)
1307:Generated_Source\PSoC4/CapSense_CSD.c **** {
 1718              		.loc 1 1307 0
 1719              		.cfi_startproc
 1720              		@ args = 0, pretend = 0, frame = 8
 1721              		@ frame_needed = 1, uses_anonymous_args = 0
 1722 0000 80B5     		push	{r7, lr}
 1723              		.cfi_def_cfa_offset 8
 1724              		.cfi_offset 7, -8
 1725              		.cfi_offset 14, -4
 1726 0002 82B0     		sub	sp, sp, #8
 1727              		.cfi_def_cfa_offset 16
 1728 0004 00AF     		add	r7, sp, #0
 1729              		.cfi_def_cfa_register 7
1308:Generated_Source\PSoC4/CapSense_CSD.c ****     uint32 newRegisterValue;
1309:Generated_Source\PSoC4/CapSense_CSD.c **** 
1310:Generated_Source\PSoC4/CapSense_CSD.c ****     CapSense_CSD_SetDriveModeAllPins(CY_SYS_PINS_DM_ALG_HIZ);
 1730              		.loc 1 1310 0
 1731 0006 0020     		movs	r0, #0
 1732 0008 FFF7FEFF 		bl	CapSense_CSD_SetDriveModeAllPins
1311:Generated_Source\PSoC4/CapSense_CSD.c **** 
1312:Generated_Source\PSoC4/CapSense_CSD.c ****     newRegisterValue = CapSense_CSD_CMOD_CONNECTION_REG;
 1733              		.loc 1 1312 0
 1734 000c 094B     		ldr	r3, .L84
 1735 000e 1B68     		ldr	r3, [r3]
 1736 0010 7B60     		str	r3, [r7, #4]
1313:Generated_Source\PSoC4/CapSense_CSD.c ****     newRegisterValue &= ~(CapSense_CSD_CSD_CMOD_CONNECTION_MASK);
 1737              		.loc 1 1313 0
 1738 0012 7B68     		ldr	r3, [r7, #4]
 1739 0014 084A     		ldr	r2, .L84+4
 1740 0016 1340     		ands	r3, r2
 1741 0018 7B60     		str	r3, [r7, #4]
1314:Generated_Source\PSoC4/CapSense_CSD.c ****     newRegisterValue |= CapSense_CSD_CSD_CMOD_TO_AMUXBUS_A;
 1742              		.loc 1 1314 0
 1743 001a 7B68     		ldr	r3, [r7, #4]
 1744 001c C022     		movs	r2, #192
 1745 001e D200     		lsls	r2, r2, #3
ARM GAS  C:\Users\SHOZO\AppData\Local\Temp\ccpYscuc.s 			page 55


 1746 0020 1343     		orrs	r3, r2
 1747 0022 7B60     		str	r3, [r7, #4]
1315:Generated_Source\PSoC4/CapSense_CSD.c ****     CapSense_CSD_CMOD_CONNECTION_REG = newRegisterValue;
 1748              		.loc 1 1315 0
 1749 0024 034B     		ldr	r3, .L84
 1750 0026 7A68     		ldr	r2, [r7, #4]
 1751 0028 1A60     		str	r2, [r3]
1316:Generated_Source\PSoC4/CapSense_CSD.c **** 
1317:Generated_Source\PSoC4/CapSense_CSD.c ****     #if(0u != CapSense_CSD_CSH_TANK_ENABLE)
1318:Generated_Source\PSoC4/CapSense_CSD.c ****         newRegisterValue = CapSense_CSD_CTANK_CONNECTION_REG;
1319:Generated_Source\PSoC4/CapSense_CSD.c ****         newRegisterValue &= ~(CapSense_CSD_CSD_CTANK_CONNECTION_MASK);
1320:Generated_Source\PSoC4/CapSense_CSD.c ****         newRegisterValue |= CapSense_CSD_CSD_CTANK_TO_AMUXBUS_B;
1321:Generated_Source\PSoC4/CapSense_CSD.c ****         CapSense_CSD_CTANK_CONNECTION_REG = newRegisterValue;
1322:Generated_Source\PSoC4/CapSense_CSD.c ****     #endif/* (0u != CapSense_CSD_CSH_TANK_ENABLE) */
1323:Generated_Source\PSoC4/CapSense_CSD.c **** 
1324:Generated_Source\PSoC4/CapSense_CSD.c ****     #if(0u != CapSense_CSD_IS_SHIELD_ENABLE)
1325:Generated_Source\PSoC4/CapSense_CSD.c ****         newRegisterValue = *CapSense_CSD_prtSelTbl[CapSense_CSD_SHIELD_PORT_NUMBER];
1326:Generated_Source\PSoC4/CapSense_CSD.c ****         newRegisterValue &= ~(CapSense_CSD_CSD_HSIOM_MASK << ((uint32)CapSense_CSD_SHIELD_PIN_NUMBE
1327:Generated_Source\PSoC4/CapSense_CSD.c ****         newRegisterValue |= (CapSense_CSD_CSD_SHIELD_PORT_MODE << ((uint32)CapSense_CSD_SHIELD_PIN_
1328:Generated_Source\PSoC4/CapSense_CSD.c ****         *CapSense_CSD_prtSelTbl[CapSense_CSD_SHIELD_PORT_NUMBER] = newRegisterValue;
1329:Generated_Source\PSoC4/CapSense_CSD.c ****     #endif /* (0u != CapSense_CSD_IS_SHIELD_ENABLE) */
1330:Generated_Source\PSoC4/CapSense_CSD.c **** }
 1752              		.loc 1 1330 0
 1753 002a C046     		nop
 1754 002c BD46     		mov	sp, r7
 1755 002e 02B0     		add	sp, sp, #8
 1756              		@ sp needed
 1757 0030 80BD     		pop	{r7, pc}
 1758              	.L85:
 1759 0032 C046     		.align	2
 1760              	.L84:
 1761 0034 10000140 		.word	1073807376
 1762 0038 FFF0FFFF 		.word	-3841
 1763              		.cfi_endproc
 1764              	.LFE50:
 1765              		.size	CapSense_CSD_RestoreDriveModeAllPins, .-CapSense_CSD_RestoreDriveModeAllPins
 1766              		.section	.text.CapSense_CSD_SetPinDriveMode,"ax",%progbits
 1767              		.align	2
 1768              		.global	CapSense_CSD_SetPinDriveMode
 1769              		.code	16
 1770              		.thumb_func
 1771              		.type	CapSense_CSD_SetPinDriveMode, %function
 1772              	CapSense_CSD_SetPinDriveMode:
 1773              	.LFB51:
1331:Generated_Source\PSoC4/CapSense_CSD.c **** 
1332:Generated_Source\PSoC4/CapSense_CSD.c **** 
1333:Generated_Source\PSoC4/CapSense_CSD.c **** /*******************************************************************************
1334:Generated_Source\PSoC4/CapSense_CSD.c **** * Function Name: CapSense_CSD_SetPinDriveMode
1335:Generated_Source\PSoC4/CapSense_CSD.c **** ********************************************************************************
1336:Generated_Source\PSoC4/CapSense_CSD.c **** *
1337:Generated_Source\PSoC4/CapSense_CSD.c **** * Summary:
1338:Generated_Source\PSoC4/CapSense_CSD.c **** * This API sets the drive mode for the appropriate port/pin.
1339:Generated_Source\PSoC4/CapSense_CSD.c **** *
1340:Generated_Source\PSoC4/CapSense_CSD.c **** * Parameters:
1341:Generated_Source\PSoC4/CapSense_CSD.c **** *  driveMode:  Drive mode definition.
1342:Generated_Source\PSoC4/CapSense_CSD.c **** *  portNumber: contains port number (0, 1, 2).
1343:Generated_Source\PSoC4/CapSense_CSD.c **** *  pinNumber: contains pin number (0, 1, 2, ... , 7).
ARM GAS  C:\Users\SHOZO\AppData\Local\Temp\ccpYscuc.s 			page 56


1344:Generated_Source\PSoC4/CapSense_CSD.c **** *
1345:Generated_Source\PSoC4/CapSense_CSD.c **** * Return:
1346:Generated_Source\PSoC4/CapSense_CSD.c **** *  None
1347:Generated_Source\PSoC4/CapSense_CSD.c **** *
1348:Generated_Source\PSoC4/CapSense_CSD.c **** * Global Variables:
1349:Generated_Source\PSoC4/CapSense_CSD.c **** *  CapSense_CSD_prtSelTbl[] - Contains pointers to the HSIOM
1350:Generated_Source\PSoC4/CapSense_CSD.c **** *  registers for each port.
1351:Generated_Source\PSoC4/CapSense_CSD.c **** *  CapSense_CSD_prtCfgTb[] - Contains pointers to the port config
1352:Generated_Source\PSoC4/CapSense_CSD.c **** *  registers for each port.
1353:Generated_Source\PSoC4/CapSense_CSD.c **** *
1354:Generated_Source\PSoC4/CapSense_CSD.c **** * Side Effects:
1355:Generated_Source\PSoC4/CapSense_CSD.c **** *  This API is called only after CapSense component is stopped.
1356:Generated_Source\PSoC4/CapSense_CSD.c **** *
1357:Generated_Source\PSoC4/CapSense_CSD.c **** *******************************************************************************/
1358:Generated_Source\PSoC4/CapSense_CSD.c **** void CapSense_CSD_SetPinDriveMode(uint32 driveMode, uint32 pinNumber, uint32 portNumber)
1359:Generated_Source\PSoC4/CapSense_CSD.c **** {
 1774              		.loc 1 1359 0
 1775              		.cfi_startproc
 1776              		@ args = 0, pretend = 0, frame = 24
 1777              		@ frame_needed = 1, uses_anonymous_args = 0
 1778 0000 80B5     		push	{r7, lr}
 1779              		.cfi_def_cfa_offset 8
 1780              		.cfi_offset 7, -8
 1781              		.cfi_offset 14, -4
 1782 0002 86B0     		sub	sp, sp, #24
 1783              		.cfi_def_cfa_offset 32
 1784 0004 00AF     		add	r7, sp, #0
 1785              		.cfi_def_cfa_register 7
 1786 0006 F860     		str	r0, [r7, #12]
 1787 0008 B960     		str	r1, [r7, #8]
 1788 000a 7A60     		str	r2, [r7, #4]
1360:Generated_Source\PSoC4/CapSense_CSD.c ****     uint32  pinModeShift;
1361:Generated_Source\PSoC4/CapSense_CSD.c ****     uint32 newRegisterValue;
1362:Generated_Source\PSoC4/CapSense_CSD.c **** 
1363:Generated_Source\PSoC4/CapSense_CSD.c ****     pinModeShift  = pinNumber * CapSense_CSD_PC_PIN_CFG_SIZE;
 1789              		.loc 1 1363 0
 1790 000c BA68     		ldr	r2, [r7, #8]
 1791 000e 1300     		movs	r3, r2
 1792 0010 5B00     		lsls	r3, r3, #1
 1793 0012 9B18     		adds	r3, r3, r2
 1794 0014 7B61     		str	r3, [r7, #20]
1364:Generated_Source\PSoC4/CapSense_CSD.c **** 
1365:Generated_Source\PSoC4/CapSense_CSD.c ****     newRegisterValue = *CapSense_CSD_prtCfgTbl[portNumber];
 1795              		.loc 1 1365 0
 1796 0016 0F4B     		ldr	r3, .L87
 1797 0018 7A68     		ldr	r2, [r7, #4]
 1798 001a 9200     		lsls	r2, r2, #2
 1799 001c D358     		ldr	r3, [r2, r3]
 1800 001e 1B68     		ldr	r3, [r3]
 1801 0020 3B61     		str	r3, [r7, #16]
1366:Generated_Source\PSoC4/CapSense_CSD.c ****     newRegisterValue &= ~(CapSense_CSD_CSD_PIN_MODE_MASK << pinModeShift);
 1802              		.loc 1 1366 0
 1803 0022 0722     		movs	r2, #7
 1804 0024 7B69     		ldr	r3, [r7, #20]
 1805 0026 9A40     		lsls	r2, r2, r3
 1806 0028 1300     		movs	r3, r2
 1807 002a DA43     		mvns	r2, r3
ARM GAS  C:\Users\SHOZO\AppData\Local\Temp\ccpYscuc.s 			page 57


 1808 002c 3B69     		ldr	r3, [r7, #16]
 1809 002e 1340     		ands	r3, r2
 1810 0030 3B61     		str	r3, [r7, #16]
1367:Generated_Source\PSoC4/CapSense_CSD.c ****     newRegisterValue |=  (uint32)((uint32)driveMode << pinModeShift);
 1811              		.loc 1 1367 0
 1812 0032 FA68     		ldr	r2, [r7, #12]
 1813 0034 7B69     		ldr	r3, [r7, #20]
 1814 0036 9A40     		lsls	r2, r2, r3
 1815 0038 1300     		movs	r3, r2
 1816 003a 3A69     		ldr	r2, [r7, #16]
 1817 003c 1343     		orrs	r3, r2
 1818 003e 3B61     		str	r3, [r7, #16]
1368:Generated_Source\PSoC4/CapSense_CSD.c ****     *CapSense_CSD_prtCfgTbl[portNumber] =  newRegisterValue;
 1819              		.loc 1 1368 0
 1820 0040 044B     		ldr	r3, .L87
 1821 0042 7A68     		ldr	r2, [r7, #4]
 1822 0044 9200     		lsls	r2, r2, #2
 1823 0046 D358     		ldr	r3, [r2, r3]
 1824 0048 3A69     		ldr	r2, [r7, #16]
 1825 004a 1A60     		str	r2, [r3]
1369:Generated_Source\PSoC4/CapSense_CSD.c **** }
 1826              		.loc 1 1369 0
 1827 004c C046     		nop
 1828 004e BD46     		mov	sp, r7
 1829 0050 06B0     		add	sp, sp, #24
 1830              		@ sp needed
 1831 0052 80BD     		pop	{r7, pc}
 1832              	.L88:
 1833              		.align	2
 1834              	.L87:
 1835 0054 00000000 		.word	CapSense_CSD_prtCfgTbl
 1836              		.cfi_endproc
 1837              	.LFE51:
 1838              		.size	CapSense_CSD_SetPinDriveMode, .-CapSense_CSD_SetPinDriveMode
 1839              		.section	.text.CapSense_CSD_PreScan,"ax",%progbits
 1840              		.align	2
 1841              		.global	CapSense_CSD_PreScan
 1842              		.code	16
 1843              		.thumb_func
 1844              		.type	CapSense_CSD_PreScan, %function
 1845              	CapSense_CSD_PreScan:
 1846              	.LFB52:
1370:Generated_Source\PSoC4/CapSense_CSD.c **** 
1371:Generated_Source\PSoC4/CapSense_CSD.c **** 
1372:Generated_Source\PSoC4/CapSense_CSD.c **** /*******************************************************************************
1373:Generated_Source\PSoC4/CapSense_CSD.c **** * Function Name: CapSense_CSD_PreScan
1374:Generated_Source\PSoC4/CapSense_CSD.c **** ********************************************************************************
1375:Generated_Source\PSoC4/CapSense_CSD.c **** *
1376:Generated_Source\PSoC4/CapSense_CSD.c **** * Summary:
1377:Generated_Source\PSoC4/CapSense_CSD.c **** *  Sets required settings, enables a sensor, removes Vref from AMUX and starts the
1378:Generated_Source\PSoC4/CapSense_CSD.c **** *  scanning process of the sensor.
1379:Generated_Source\PSoC4/CapSense_CSD.c **** *
1380:Generated_Source\PSoC4/CapSense_CSD.c **** * Parameters:
1381:Generated_Source\PSoC4/CapSense_CSD.c **** *  sensor:  Sensor number.
1382:Generated_Source\PSoC4/CapSense_CSD.c **** *
1383:Generated_Source\PSoC4/CapSense_CSD.c **** * Return:
1384:Generated_Source\PSoC4/CapSense_CSD.c **** *  None
ARM GAS  C:\Users\SHOZO\AppData\Local\Temp\ccpYscuc.s 			page 58


1385:Generated_Source\PSoC4/CapSense_CSD.c **** *
1386:Generated_Source\PSoC4/CapSense_CSD.c **** * Global Variables:
1387:Generated_Source\PSoC4/CapSense_CSD.c **** * CapSense_CSD_widgetNumber[] - This array contains numbers of widgets for each sensor.
1388:Generated_Source\PSoC4/CapSense_CSD.c **** * CapSense_CSD_widgetResolution[] - Contains the widget resolution.
1389:Generated_Source\PSoC4/CapSense_CSD.c **** *
1390:Generated_Source\PSoC4/CapSense_CSD.c **** * Side Effects:
1391:Generated_Source\PSoC4/CapSense_CSD.c **** *  None
1392:Generated_Source\PSoC4/CapSense_CSD.c **** *
1393:Generated_Source\PSoC4/CapSense_CSD.c **** *******************************************************************************/
1394:Generated_Source\PSoC4/CapSense_CSD.c **** void CapSense_CSD_PreScan(uint32 sensor)
1395:Generated_Source\PSoC4/CapSense_CSD.c **** {
 1847              		.loc 1 1395 0
 1848              		.cfi_startproc
 1849              		@ args = 0, pretend = 0, frame = 24
 1850              		@ frame_needed = 1, uses_anonymous_args = 0
 1851 0000 90B5     		push	{r4, r7, lr}
 1852              		.cfi_def_cfa_offset 12
 1853              		.cfi_offset 4, -12
 1854              		.cfi_offset 7, -8
 1855              		.cfi_offset 14, -4
 1856 0002 87B0     		sub	sp, sp, #28
 1857              		.cfi_def_cfa_offset 40
 1858 0004 00AF     		add	r7, sp, #0
 1859              		.cfi_def_cfa_register 7
 1860 0006 7860     		str	r0, [r7, #4]
1396:Generated_Source\PSoC4/CapSense_CSD.c ****     uint8 widget;
1397:Generated_Source\PSoC4/CapSense_CSD.c ****     uint8 interruptState;
1398:Generated_Source\PSoC4/CapSense_CSD.c ****     uint32 newRegValue;
1399:Generated_Source\PSoC4/CapSense_CSD.c ****     uint32 counterResolution;
1400:Generated_Source\PSoC4/CapSense_CSD.c **** 
1401:Generated_Source\PSoC4/CapSense_CSD.c ****     #if(CapSense_CSD_PRS_OPTIONS == CapSense_CSD__PRS_AUTO)
1402:Generated_Source\PSoC4/CapSense_CSD.c ****         uint8 senseClkDivMath;
1403:Generated_Source\PSoC4/CapSense_CSD.c ****         uint8 sampleClkDivMath;
1404:Generated_Source\PSoC4/CapSense_CSD.c ****     #endif /* (CapSense_CSD_PRS_OPTIONS == CapSense_CSD__PRS_AUTO) */
1405:Generated_Source\PSoC4/CapSense_CSD.c **** 
1406:Generated_Source\PSoC4/CapSense_CSD.c ****     #if ((CapSense_CSD_TUNING_METHOD == CapSense_CSD__TUNING_AUTO) &&\
1407:Generated_Source\PSoC4/CapSense_CSD.c ****          (0 != CapSense_CSD_IS_OVERSAMPLING_EN))
1408:Generated_Source\PSoC4/CapSense_CSD.c ****         uint32 oversamplingFactor;
1409:Generated_Source\PSoC4/CapSense_CSD.c ****     #endif /* ((CapSense_CSD_TUNING_METHOD == CapSense_CSD__TUNING_AUTO) &&\
1410:Generated_Source\PSoC4/CapSense_CSD.c ****                (0 != CapSense_CSD_IS_OVERSAMPLING_EN)) */
1411:Generated_Source\PSoC4/CapSense_CSD.c **** 
1412:Generated_Source\PSoC4/CapSense_CSD.c ****     /* Define widget sensor belongs to */
1413:Generated_Source\PSoC4/CapSense_CSD.c ****     widget = CapSense_CSD_widgetNumber[sensor];
 1861              		.loc 1 1413 0
 1862 0008 1323     		movs	r3, #19
 1863 000a FB18     		adds	r3, r7, r3
 1864 000c 5549     		ldr	r1, .L91
 1865 000e 7A68     		ldr	r2, [r7, #4]
 1866 0010 8A18     		adds	r2, r1, r2
 1867 0012 1278     		ldrb	r2, [r2]
 1868 0014 1A70     		strb	r2, [r3]
1414:Generated_Source\PSoC4/CapSense_CSD.c **** 
1415:Generated_Source\PSoC4/CapSense_CSD.c ****     /* Recalculate Counter Resolution to MSB 16 bits */
1416:Generated_Source\PSoC4/CapSense_CSD.c ****     counterResolution = CapSense_CSD_widgetResolution[widget];
 1869              		.loc 1 1416 0
 1870 0016 1323     		movs	r3, #19
 1871 0018 FB18     		adds	r3, r7, r3
ARM GAS  C:\Users\SHOZO\AppData\Local\Temp\ccpYscuc.s 			page 59


 1872 001a 1A78     		ldrb	r2, [r3]
 1873 001c 524B     		ldr	r3, .L91+4
 1874 001e 9200     		lsls	r2, r2, #2
 1875 0020 D358     		ldr	r3, [r2, r3]
 1876 0022 FB60     		str	r3, [r7, #12]
1417:Generated_Source\PSoC4/CapSense_CSD.c **** 
1418:Generated_Source\PSoC4/CapSense_CSD.c ****     #if ((CapSense_CSD_TUNING_METHOD == CapSense_CSD__TUNING_AUTO) &&\
1419:Generated_Source\PSoC4/CapSense_CSD.c ****          (0 != CapSense_CSD_IS_OVERSAMPLING_EN))
1420:Generated_Source\PSoC4/CapSense_CSD.c ****         oversamplingFactor = CapSense_CSD_GetBitValue(CapSense_CSD_scanSpeedTbl, sensor);
1421:Generated_Source\PSoC4/CapSense_CSD.c **** 
1422:Generated_Source\PSoC4/CapSense_CSD.c ****         if(counterResolution < CapSense_CSD_RESOLUTION_16_BITS)
1423:Generated_Source\PSoC4/CapSense_CSD.c ****         {
1424:Generated_Source\PSoC4/CapSense_CSD.c ****             counterResolution <<= oversamplingFactor;
1425:Generated_Source\PSoC4/CapSense_CSD.c ****             counterResolution |= (uint32)(CapSense_CSD_RESOLUTION_8_BITS);
1426:Generated_Source\PSoC4/CapSense_CSD.c ****         }
1427:Generated_Source\PSoC4/CapSense_CSD.c ****     #endif /* ((CapSense_CSD_TUNING_METHOD == CapSense_CSD__TUNING_AUTO) &&\
1428:Generated_Source\PSoC4/CapSense_CSD.c ****                (0 != CapSense_CSD_IS_OVERSAMPLING_EN)) */
1429:Generated_Source\PSoC4/CapSense_CSD.c **** 
1430:Generated_Source\PSoC4/CapSense_CSD.c ****     #if (0u != CapSense_CSD_IS_M0S8PERI_BLOCK)
1431:Generated_Source\PSoC4/CapSense_CSD.c ****         CapSense_CSD_SenseClk_Stop();
1432:Generated_Source\PSoC4/CapSense_CSD.c ****         CapSense_CSD_SampleClk_Stop();
1433:Generated_Source\PSoC4/CapSense_CSD.c ****     #endif /* (0u != CapSense_CSD_IS_M0S8PERI_BLOCK) */
1434:Generated_Source\PSoC4/CapSense_CSD.c **** 
1435:Generated_Source\PSoC4/CapSense_CSD.c ****     #if (0u != CapSense_CSD_MULTIPLE_FREQUENCY_SET)
1436:Generated_Source\PSoC4/CapSense_CSD.c ****         CapSense_CSD_SampleClk_SetDividerValue((uint16)CapSense_CSD_sampleClkDividerVal[sensor]);
 1877              		.loc 1 1436 0
 1878 0024 514A     		ldr	r2, .L91+8
 1879 0026 7B68     		ldr	r3, [r7, #4]
 1880 0028 D318     		adds	r3, r2, r3
 1881 002a 1B78     		ldrb	r3, [r3]
 1882 002c 9BB2     		uxth	r3, r3
 1883 002e 013B     		subs	r3, r3, #1
 1884 0030 9BB2     		uxth	r3, r3
 1885 0032 0021     		movs	r1, #0
 1886 0034 1800     		movs	r0, r3
 1887 0036 FFF7FEFF 		bl	CapSense_CSD_SampleClk_SetFractionalDividerRegister
1437:Generated_Source\PSoC4/CapSense_CSD.c ****         CapSense_CSD_SenseClk_SetDividerValue((uint16)CapSense_CSD_senseClkDividerVal[sensor]);
 1888              		.loc 1 1437 0
 1889 003a 4D4A     		ldr	r2, .L91+12
 1890 003c 7B68     		ldr	r3, [r7, #4]
 1891 003e D318     		adds	r3, r2, r3
 1892 0040 1B78     		ldrb	r3, [r3]
 1893 0042 9BB2     		uxth	r3, r3
 1894 0044 013B     		subs	r3, r3, #1
 1895 0046 9BB2     		uxth	r3, r3
 1896 0048 0021     		movs	r1, #0
 1897 004a 1800     		movs	r0, r3
 1898 004c FFF7FEFF 		bl	CapSense_CSD_SenseClk_SetFractionalDividerRegister
1438:Generated_Source\PSoC4/CapSense_CSD.c ****     #else
1439:Generated_Source\PSoC4/CapSense_CSD.c ****         CapSense_CSD_SampleClk_SetDividerValue((uint16)CapSense_CSD_sampleClkDividerVal);
1440:Generated_Source\PSoC4/CapSense_CSD.c ****         CapSense_CSD_SenseClk_SetDividerValue((uint16)CapSense_CSD_senseClkDividerVal);
1441:Generated_Source\PSoC4/CapSense_CSD.c ****     #endif /* (0u != CapSense_CSD_MULTIPLE_FREQUENCY_SET) */
1442:Generated_Source\PSoC4/CapSense_CSD.c **** 
1443:Generated_Source\PSoC4/CapSense_CSD.c ****     #if (0u != CapSense_CSD_IS_M0S8PERI_BLOCK)
1444:Generated_Source\PSoC4/CapSense_CSD.c ****         CapSense_CSD_SampleClk_Start();
1445:Generated_Source\PSoC4/CapSense_CSD.c ****         CapSense_CSD_SenseClk_StartEx(CapSense_CSD_SampleClk__DIV_ID);
1446:Generated_Source\PSoC4/CapSense_CSD.c **** 
ARM GAS  C:\Users\SHOZO\AppData\Local\Temp\ccpYscuc.s 			page 60


1447:Generated_Source\PSoC4/CapSense_CSD.c ****         #if(CapSense_CSD_PRS_OPTIONS == CapSense_CSD__PRS_NONE)
1448:Generated_Source\PSoC4/CapSense_CSD.c ****             CyIntDisable(CapSense_CSD_ISR_NUMBER);
1449:Generated_Source\PSoC4/CapSense_CSD.c ****             CapSense_CSD_CSD_CNT_REG = CapSense_CSD_ONE_CYCLE;
1450:Generated_Source\PSoC4/CapSense_CSD.c ****             while(0u != (CapSense_CSD_CSD_CNT_REG & CapSense_CSD_RESOLUTION_16_BITS))
1451:Generated_Source\PSoC4/CapSense_CSD.c ****             {
1452:Generated_Source\PSoC4/CapSense_CSD.c ****             /* Wait until scanning is complete */
1453:Generated_Source\PSoC4/CapSense_CSD.c ****             }
1454:Generated_Source\PSoC4/CapSense_CSD.c ****             CapSense_CSD_CSD_INTR_REG = 1u;
1455:Generated_Source\PSoC4/CapSense_CSD.c ****             CyIntClearPending(CapSense_CSD_ISR_NUMBER);
1456:Generated_Source\PSoC4/CapSense_CSD.c ****             CyIntEnable(CapSense_CSD_ISR_NUMBER);
1457:Generated_Source\PSoC4/CapSense_CSD.c ****         #endif /* CapSense_CSD_PRS_OPTIONS == CapSense_CSD__PRS_NONE */
1458:Generated_Source\PSoC4/CapSense_CSD.c ****     #endif /* (0u != CapSense_CSD_IS_M0S8PERI_BLOCK) */
1459:Generated_Source\PSoC4/CapSense_CSD.c **** 
1460:Generated_Source\PSoC4/CapSense_CSD.c **** #if(CapSense_CSD_PRS_OPTIONS != CapSense_CSD__PRS_NONE)
1461:Generated_Source\PSoC4/CapSense_CSD.c **** 
1462:Generated_Source\PSoC4/CapSense_CSD.c ****     #if(CapSense_CSD_TUNING_METHOD == CapSense_CSD__TUNING_AUTO)
1463:Generated_Source\PSoC4/CapSense_CSD.c ****         if(CapSense_CSD_prescalersTuningDone != 0u)
1464:Generated_Source\PSoC4/CapSense_CSD.c ****         {
1465:Generated_Source\PSoC4/CapSense_CSD.c ****     #endif /* (CapSense_CSD_TUNING_METHOD == CapSense_CSD__TUNING_AUTO) */
1466:Generated_Source\PSoC4/CapSense_CSD.c **** 
1467:Generated_Source\PSoC4/CapSense_CSD.c ****             CyIntDisable(CapSense_CSD_ISR_NUMBER);
 1899              		.loc 1 1467 0
 1900 0050 0F20     		movs	r0, #15
 1901 0052 FFF7FEFF 		bl	CyIntDisable
1468:Generated_Source\PSoC4/CapSense_CSD.c **** 
1469:Generated_Source\PSoC4/CapSense_CSD.c ****             newRegValue = CapSense_CSD_CSD_CFG_REG;
 1902              		.loc 1 1469 0
 1903 0056 474B     		ldr	r3, .L91+16
 1904 0058 1B68     		ldr	r3, [r3]
 1905 005a 7B61     		str	r3, [r7, #20]
1470:Generated_Source\PSoC4/CapSense_CSD.c ****             newRegValue |= CapSense_CSD_CSD_CFG_PRS_SELECT;
 1906              		.loc 1 1470 0
 1907 005c 7B69     		ldr	r3, [r7, #20]
 1908 005e 4022     		movs	r2, #64
 1909 0060 1343     		orrs	r3, r2
 1910 0062 7B61     		str	r3, [r7, #20]
1471:Generated_Source\PSoC4/CapSense_CSD.c **** 
1472:Generated_Source\PSoC4/CapSense_CSD.c ****             #if(CapSense_CSD_PRS_OPTIONS == CapSense_CSD__PRS_AUTO)
1473:Generated_Source\PSoC4/CapSense_CSD.c **** 
1474:Generated_Source\PSoC4/CapSense_CSD.c ****                 newRegValue &= ~(CapSense_CSD_PRS_MODE_MASK);
 1911              		.loc 1 1474 0
 1912 0064 7B69     		ldr	r3, [r7, #20]
 1913 0066 8022     		movs	r2, #128
 1914 0068 9343     		bics	r3, r2
 1915 006a 7B61     		str	r3, [r7, #20]
1475:Generated_Source\PSoC4/CapSense_CSD.c **** 
1476:Generated_Source\PSoC4/CapSense_CSD.c ****                 #if (0u != CapSense_CSD_MULTIPLE_FREQUENCY_SET)
1477:Generated_Source\PSoC4/CapSense_CSD.c ****                     senseClkDivMath = CapSense_CSD_senseClkDividerVal[sensor];
 1916              		.loc 1 1477 0
 1917 006c 0B23     		movs	r3, #11
 1918 006e FB18     		adds	r3, r7, r3
 1919 0070 3F49     		ldr	r1, .L91+12
 1920 0072 7A68     		ldr	r2, [r7, #4]
 1921 0074 8A18     		adds	r2, r1, r2
 1922 0076 1278     		ldrb	r2, [r2]
 1923 0078 1A70     		strb	r2, [r3]
1478:Generated_Source\PSoC4/CapSense_CSD.c ****                     sampleClkDivMath = CapSense_CSD_sampleClkDividerVal[sensor];
ARM GAS  C:\Users\SHOZO\AppData\Local\Temp\ccpYscuc.s 			page 61


 1924              		.loc 1 1478 0
 1925 007a 0A23     		movs	r3, #10
 1926 007c FB18     		adds	r3, r7, r3
 1927 007e 3B49     		ldr	r1, .L91+8
 1928 0080 7A68     		ldr	r2, [r7, #4]
 1929 0082 8A18     		adds	r2, r1, r2
 1930 0084 1278     		ldrb	r2, [r2]
 1931 0086 1A70     		strb	r2, [r3]
1479:Generated_Source\PSoC4/CapSense_CSD.c ****                 #else
1480:Generated_Source\PSoC4/CapSense_CSD.c ****                     senseClkDivMath = CapSense_CSD_senseClkDividerVal;
1481:Generated_Source\PSoC4/CapSense_CSD.c ****                     sampleClkDivMath = CapSense_CSD_sampleClkDividerVal;
1482:Generated_Source\PSoC4/CapSense_CSD.c ****                 #endif /* ( CapSense_CSD_MULTIPLE_FREQUENCY_SET) */
1483:Generated_Source\PSoC4/CapSense_CSD.c **** 
1484:Generated_Source\PSoC4/CapSense_CSD.c ****                 #if(0u == CapSense_CSD_IS_M0S8PERI_BLOCK)
1485:Generated_Source\PSoC4/CapSense_CSD.c ****                     senseClkDivMath *= sampleClkDivMath;
 1932              		.loc 1 1485 0
 1933 0088 0B23     		movs	r3, #11
 1934 008a FB18     		adds	r3, r7, r3
 1935 008c 0B22     		movs	r2, #11
 1936 008e BA18     		adds	r2, r7, r2
 1937 0090 0A21     		movs	r1, #10
 1938 0092 7918     		adds	r1, r7, r1
 1939 0094 1278     		ldrb	r2, [r2]
 1940 0096 0978     		ldrb	r1, [r1]
 1941 0098 4A43     		muls	r2, r1
 1942 009a 1A70     		strb	r2, [r3]
1486:Generated_Source\PSoC4/CapSense_CSD.c ****                 #endif /* (0u == CapSense_CSD_IS_M0S8PERI_BLOCK) */
1487:Generated_Source\PSoC4/CapSense_CSD.c **** 
1488:Generated_Source\PSoC4/CapSense_CSD.c ****                 if((senseClkDivMath * CapSense_CSD_RESOLUTION_12_BITS) <
 1943              		.loc 1 1488 0
 1944 009c 0B23     		movs	r3, #11
 1945 009e FB18     		adds	r3, r7, r3
 1946 00a0 1A78     		ldrb	r2, [r3]
 1947 00a2 1300     		movs	r3, r2
 1948 00a4 1B03     		lsls	r3, r3, #12
 1949 00a6 9B1A     		subs	r3, r3, r2
 1950 00a8 1B04     		lsls	r3, r3, #16
 1951 00aa 1800     		movs	r0, r3
1489:Generated_Source\PSoC4/CapSense_CSD.c ****                    (sampleClkDivMath * CapSense_CSD_widgetResolution[widget]))
 1952              		.loc 1 1489 0
 1953 00ac 0A23     		movs	r3, #10
 1954 00ae FB18     		adds	r3, r7, r3
 1955 00b0 1B78     		ldrb	r3, [r3]
 1956 00b2 1322     		movs	r2, #19
 1957 00b4 BA18     		adds	r2, r7, r2
 1958 00b6 1178     		ldrb	r1, [r2]
 1959 00b8 2B4A     		ldr	r2, .L91+4
 1960 00ba 8900     		lsls	r1, r1, #2
 1961 00bc 8A58     		ldr	r2, [r1, r2]
 1962 00be 5343     		muls	r3, r2
1488:Generated_Source\PSoC4/CapSense_CSD.c ****                    (sampleClkDivMath * CapSense_CSD_widgetResolution[widget]))
 1963              		.loc 1 1488 0
 1964 00c0 9842     		cmp	r0, r3
 1965 00c2 03D2     		bcs	.L90
1490:Generated_Source\PSoC4/CapSense_CSD.c ****                 {
1491:Generated_Source\PSoC4/CapSense_CSD.c ****                     newRegValue |= CapSense_CSD_CSD_PRS_12_BIT;
 1966              		.loc 1 1491 0
ARM GAS  C:\Users\SHOZO\AppData\Local\Temp\ccpYscuc.s 			page 62


 1967 00c4 7B69     		ldr	r3, [r7, #20]
 1968 00c6 8022     		movs	r2, #128
 1969 00c8 1343     		orrs	r3, r2
 1970 00ca 7B61     		str	r3, [r7, #20]
 1971              	.L90:
1492:Generated_Source\PSoC4/CapSense_CSD.c ****                 }
1493:Generated_Source\PSoC4/CapSense_CSD.c ****             #endif /* (CapSense_CSD_PRS_OPTIONS == CapSense_CSD__PRS_AUTO) */
1494:Generated_Source\PSoC4/CapSense_CSD.c **** 
1495:Generated_Source\PSoC4/CapSense_CSD.c ****             CapSense_CSD_CSD_CFG_REG = newRegValue;
 1972              		.loc 1 1495 0
 1973 00cc 294B     		ldr	r3, .L91+16
 1974 00ce 7A69     		ldr	r2, [r7, #20]
 1975 00d0 1A60     		str	r2, [r3]
1496:Generated_Source\PSoC4/CapSense_CSD.c **** 
1497:Generated_Source\PSoC4/CapSense_CSD.c ****             CyIntEnable(CapSense_CSD_ISR_NUMBER);
 1976              		.loc 1 1497 0
 1977 00d2 0F20     		movs	r0, #15
 1978 00d4 FFF7FEFF 		bl	CyIntEnable
1498:Generated_Source\PSoC4/CapSense_CSD.c **** 
1499:Generated_Source\PSoC4/CapSense_CSD.c ****     #if(CapSense_CSD_TUNING_METHOD == CapSense_CSD__TUNING_AUTO)
1500:Generated_Source\PSoC4/CapSense_CSD.c ****         }
1501:Generated_Source\PSoC4/CapSense_CSD.c ****     #endif /* (CapSense_CSD_PRS_OPTIONS != CapSense_CSD__PRS_NONE) */
1502:Generated_Source\PSoC4/CapSense_CSD.c **** 
1503:Generated_Source\PSoC4/CapSense_CSD.c **** #endif /* (CapSense_CSD_PRS_OPTIONS == CapSense_CSD__PRS_NONE) */
1504:Generated_Source\PSoC4/CapSense_CSD.c **** 
1505:Generated_Source\PSoC4/CapSense_CSD.c ****     /* Set Idac Value */
1506:Generated_Source\PSoC4/CapSense_CSD.c ****     CyIntDisable(CapSense_CSD_ISR_NUMBER);
 1979              		.loc 1 1506 0
 1980 00d8 0F20     		movs	r0, #15
 1981 00da FFF7FEFF 		bl	CyIntDisable
1507:Generated_Source\PSoC4/CapSense_CSD.c ****     newRegValue = CapSense_CSD_CSD_IDAC_REG;
 1982              		.loc 1 1507 0
 1983 00de 264B     		ldr	r3, .L91+20
 1984 00e0 1B68     		ldr	r3, [r3]
 1985 00e2 7B61     		str	r3, [r7, #20]
1508:Generated_Source\PSoC4/CapSense_CSD.c **** 
1509:Generated_Source\PSoC4/CapSense_CSD.c **** #if (CapSense_CSD_IDAC_CNT == 1u)
1510:Generated_Source\PSoC4/CapSense_CSD.c ****     newRegValue &= ~(CapSense_CSD_CSD_IDAC1_DATA_MASK);
1511:Generated_Source\PSoC4/CapSense_CSD.c ****     newRegValue |= CapSense_CSD_modulationIDAC[sensor];
1512:Generated_Source\PSoC4/CapSense_CSD.c **** #else
1513:Generated_Source\PSoC4/CapSense_CSD.c ****     newRegValue &= ~(CapSense_CSD_CSD_IDAC1_DATA_MASK | CapSense_CSD_CSD_IDAC2_DATA_MASK);
 1986              		.loc 1 1513 0
 1987 00e4 7B69     		ldr	r3, [r7, #20]
 1988 00e6 254A     		ldr	r2, .L91+24
 1989 00e8 1340     		ands	r3, r2
 1990 00ea 7B61     		str	r3, [r7, #20]
1514:Generated_Source\PSoC4/CapSense_CSD.c ****     newRegValue |= (CapSense_CSD_modulationIDAC[sensor] |
 1991              		.loc 1 1514 0
 1992 00ec 244A     		ldr	r2, .L91+28
 1993 00ee 7B68     		ldr	r3, [r7, #4]
 1994 00f0 D318     		adds	r3, r2, r3
 1995 00f2 1B78     		ldrb	r3, [r3]
 1996 00f4 1900     		movs	r1, r3
1515:Generated_Source\PSoC4/CapSense_CSD.c ****                             (uint32)((uint32)CapSense_CSD_compensationIDAC[sensor] <<
 1997              		.loc 1 1515 0
 1998 00f6 234A     		ldr	r2, .L91+32
 1999 00f8 7B68     		ldr	r3, [r7, #4]
ARM GAS  C:\Users\SHOZO\AppData\Local\Temp\ccpYscuc.s 			page 63


 2000 00fa D318     		adds	r3, r2, r3
 2001 00fc 1B78     		ldrb	r3, [r3]
 2002 00fe 1B04     		lsls	r3, r3, #16
1514:Generated_Source\PSoC4/CapSense_CSD.c ****     newRegValue |= (CapSense_CSD_modulationIDAC[sensor] |
 2003              		.loc 1 1514 0
 2004 0100 0B43     		orrs	r3, r1
 2005 0102 7A69     		ldr	r2, [r7, #20]
 2006 0104 1343     		orrs	r3, r2
 2007 0106 7B61     		str	r3, [r7, #20]
1516:Generated_Source\PSoC4/CapSense_CSD.c ****                             CapSense_CSD_CSD_IDAC2_DATA_OFFSET));
1517:Generated_Source\PSoC4/CapSense_CSD.c **** #endif /* (CapSense_CSD_IDAC_CNT == 1u) */
1518:Generated_Source\PSoC4/CapSense_CSD.c **** 
1519:Generated_Source\PSoC4/CapSense_CSD.c ****     CapSense_CSD_CSD_IDAC_REG = newRegValue;
 2008              		.loc 1 1519 0
 2009 0108 1B4B     		ldr	r3, .L91+20
 2010 010a 7A69     		ldr	r2, [r7, #20]
 2011 010c 1A60     		str	r2, [r3]
1520:Generated_Source\PSoC4/CapSense_CSD.c **** 
1521:Generated_Source\PSoC4/CapSense_CSD.c **** #if(CapSense_CSD_CMOD_PREGARGE_OPTION == CapSense_CSD__CAPPRIOBUF)
1522:Generated_Source\PSoC4/CapSense_CSD.c ****     newRegValue = CapSense_CSD_CMOD_CONNECTION_REG;
1523:Generated_Source\PSoC4/CapSense_CSD.c ****     newRegValue &= ~(CapSense_CSD_CSD_CMOD_CONNECTION_MASK);
1524:Generated_Source\PSoC4/CapSense_CSD.c ****     newRegValue |= CapSense_CSD_CSD_CMOD_TO_AMUXBUS_A;
1525:Generated_Source\PSoC4/CapSense_CSD.c ****     CapSense_CSD_CMOD_CONNECTION_REG = newRegValue;
1526:Generated_Source\PSoC4/CapSense_CSD.c **** 
1527:Generated_Source\PSoC4/CapSense_CSD.c ****     newRegValue = CapSense_CSD_CMOD_PORT_PC_REG;
1528:Generated_Source\PSoC4/CapSense_CSD.c ****     newRegValue &= ~(CapSense_CSD_CSD_CMOD_PC_MASK);
1529:Generated_Source\PSoC4/CapSense_CSD.c ****     newRegValue |= CapSense_CSD_CMOD_PC_HIGH_Z_MODE;
1530:Generated_Source\PSoC4/CapSense_CSD.c ****     CapSense_CSD_CMOD_PORT_PC_REG = newRegValue;
1531:Generated_Source\PSoC4/CapSense_CSD.c **** #endif /* (CapSense_CSD_CMOD_PREGARGE_OPTION == CapSense_CSD__CAPPRIOBUF) */
1532:Generated_Source\PSoC4/CapSense_CSD.c **** 
1533:Generated_Source\PSoC4/CapSense_CSD.c ****     /* Disconnect Vref Buffer from AMUX */
1534:Generated_Source\PSoC4/CapSense_CSD.c ****     newRegValue = CapSense_CSD_CSD_CFG_REG;
 2012              		.loc 1 1534 0
 2013 010e 194B     		ldr	r3, .L91+16
 2014 0110 1B68     		ldr	r3, [r3]
 2015 0112 7B61     		str	r3, [r7, #20]
1535:Generated_Source\PSoC4/CapSense_CSD.c ****     newRegValue &= ~(CapSense_CSD_PRECHARGE_CONFIG_MASK);
 2016              		.loc 1 1535 0
 2017 0114 7B69     		ldr	r3, [r7, #20]
 2018 0116 1C4A     		ldr	r2, .L91+36
 2019 0118 1340     		ands	r3, r2
 2020 011a 7B61     		str	r3, [r7, #20]
1536:Generated_Source\PSoC4/CapSense_CSD.c ****     newRegValue |= CapSense_CSD_CTANK_PRECHARGE_CONFIG;
 2021              		.loc 1 1536 0
 2022 011c 7B69     		ldr	r3, [r7, #20]
 2023 011e 1B4A     		ldr	r2, .L91+40
 2024 0120 1343     		orrs	r3, r2
 2025 0122 7B61     		str	r3, [r7, #20]
1537:Generated_Source\PSoC4/CapSense_CSD.c **** 
1538:Generated_Source\PSoC4/CapSense_CSD.c ****     CyIntEnable(CapSense_CSD_ISR_NUMBER);
 2026              		.loc 1 1538 0
 2027 0124 0F20     		movs	r0, #15
 2028 0126 FFF7FEFF 		bl	CyIntEnable
1539:Generated_Source\PSoC4/CapSense_CSD.c **** 
1540:Generated_Source\PSoC4/CapSense_CSD.c ****     /* Enable Sensor */
1541:Generated_Source\PSoC4/CapSense_CSD.c ****     CapSense_CSD_EnableScanSlot(sensor);
 2029              		.loc 1 1541 0
ARM GAS  C:\Users\SHOZO\AppData\Local\Temp\ccpYscuc.s 			page 64


 2030 012a 7B68     		ldr	r3, [r7, #4]
 2031 012c 1800     		movs	r0, r3
 2032 012e FFF7FEFF 		bl	CapSense_CSD_EnableSensor
1542:Generated_Source\PSoC4/CapSense_CSD.c **** 
1543:Generated_Source\PSoC4/CapSense_CSD.c ****     interruptState = CyEnterCriticalSection();
 2033              		.loc 1 1543 0
 2034 0132 0923     		movs	r3, #9
 2035 0134 FC18     		adds	r4, r7, r3
 2036 0136 FFF7FEFF 		bl	CyEnterCriticalSection
 2037 013a 0300     		movs	r3, r0
 2038 013c 2370     		strb	r3, [r4]
1544:Generated_Source\PSoC4/CapSense_CSD.c ****     CapSense_CSD_CSD_CFG_REG = newRegValue;
 2039              		.loc 1 1544 0
 2040 013e 0D4B     		ldr	r3, .L91+16
 2041 0140 7A69     		ldr	r2, [r7, #20]
 2042 0142 1A60     		str	r2, [r3]
1545:Generated_Source\PSoC4/CapSense_CSD.c **** 
1546:Generated_Source\PSoC4/CapSense_CSD.c ****     /* `#START CapSense_CSD_PreSettlingDelay_Debug` */
1547:Generated_Source\PSoC4/CapSense_CSD.c **** 
1548:Generated_Source\PSoC4/CapSense_CSD.c ****     /* `#END` */
1549:Generated_Source\PSoC4/CapSense_CSD.c **** 
1550:Generated_Source\PSoC4/CapSense_CSD.c **** #ifdef CapSense_CSD_PRE_SCAN_PRE_SETTLING_DELAY_DEBUG_CALLBACK
1551:Generated_Source\PSoC4/CapSense_CSD.c ****     CapSense_CSD_PreScan_Pre_SettlingDelay_Debug_Callback();
1552:Generated_Source\PSoC4/CapSense_CSD.c **** #endif /* CapSense_CSD_PRE_SCAN_PRE_SETTLING_DELAY_DEBUG_CALLBACK */
1553:Generated_Source\PSoC4/CapSense_CSD.c **** 
1554:Generated_Source\PSoC4/CapSense_CSD.c ****     CyDelayCycles(CapSense_CSD_GLITCH_ELIMINATION_CYCLES);
 2043              		.loc 1 1554 0
 2044 0144 0020     		movs	r0, #0
 2045 0146 FFF7FEFF 		bl	CyDelayCycles
1555:Generated_Source\PSoC4/CapSense_CSD.c **** 
1556:Generated_Source\PSoC4/CapSense_CSD.c ****     /* `#START CapSense_CSD_PreScan_Debug` */
1557:Generated_Source\PSoC4/CapSense_CSD.c **** 
1558:Generated_Source\PSoC4/CapSense_CSD.c ****     /* `#END` */
1559:Generated_Source\PSoC4/CapSense_CSD.c **** 
1560:Generated_Source\PSoC4/CapSense_CSD.c **** #ifdef CapSense_CSD_PRE_SCAN_DEBUG_CALLBACK
1561:Generated_Source\PSoC4/CapSense_CSD.c ****     CapSense_CSD_PreScan_Debug_Callback();
1562:Generated_Source\PSoC4/CapSense_CSD.c **** #endif /* CapSense_CSD_PRE_SCAN_DEBUG_CALLBACK */
1563:Generated_Source\PSoC4/CapSense_CSD.c **** 
1564:Generated_Source\PSoC4/CapSense_CSD.c ****     CapSense_CSD_CSD_CNT_REG = counterResolution;
 2046              		.loc 1 1564 0
 2047 014a 114B     		ldr	r3, .L91+44
 2048 014c FA68     		ldr	r2, [r7, #12]
 2049 014e 1A60     		str	r2, [r3]
1565:Generated_Source\PSoC4/CapSense_CSD.c ****     CyExitCriticalSection(interruptState);
 2050              		.loc 1 1565 0
 2051 0150 0923     		movs	r3, #9
 2052 0152 FB18     		adds	r3, r7, r3
 2053 0154 1B78     		ldrb	r3, [r3]
 2054 0156 1800     		movs	r0, r3
 2055 0158 FFF7FEFF 		bl	CyExitCriticalSection
1566:Generated_Source\PSoC4/CapSense_CSD.c **** }
 2056              		.loc 1 1566 0
 2057 015c C046     		nop
 2058 015e BD46     		mov	sp, r7
 2059 0160 07B0     		add	sp, sp, #28
 2060              		@ sp needed
 2061 0162 90BD     		pop	{r4, r7, pc}
ARM GAS  C:\Users\SHOZO\AppData\Local\Temp\ccpYscuc.s 			page 65


 2062              	.L92:
 2063              		.align	2
 2064              	.L91:
 2065 0164 00000000 		.word	CapSense_CSD_widgetNumber
 2066 0168 00000000 		.word	CapSense_CSD_widgetResolution
 2067 016c 00000000 		.word	CapSense_CSD_sampleClkDividerVal
 2068 0170 00000000 		.word	CapSense_CSD_senseClkDividerVal
 2069 0174 04000840 		.word	1074266116
 2070 0178 08000840 		.word	1074266120
 2071 017c 00FF80FF 		.word	-8323328
 2072 0180 00000000 		.word	CapSense_CSD_modulationIDAC
 2073 0184 00000000 		.word	CapSense_CSD_compensationIDAC
 2074 0188 FF1FDFFF 		.word	-2154497
 2075 018c 20002000 		.word	2097184
 2076 0190 0C000840 		.word	1074266124
 2077              		.cfi_endproc
 2078              	.LFE52:
 2079              		.size	CapSense_CSD_PreScan, .-CapSense_CSD_PreScan
 2080              		.section	.text.CapSense_CSD_PostScan,"ax",%progbits
 2081              		.align	2
 2082              		.global	CapSense_CSD_PostScan
 2083              		.code	16
 2084              		.thumb_func
 2085              		.type	CapSense_CSD_PostScan, %function
 2086              	CapSense_CSD_PostScan:
 2087              	.LFB53:
1567:Generated_Source\PSoC4/CapSense_CSD.c **** 
1568:Generated_Source\PSoC4/CapSense_CSD.c **** 
1569:Generated_Source\PSoC4/CapSense_CSD.c **** /*******************************************************************************
1570:Generated_Source\PSoC4/CapSense_CSD.c **** * Function Name: CapSense_CSD_PostScan
1571:Generated_Source\PSoC4/CapSense_CSD.c **** ********************************************************************************
1572:Generated_Source\PSoC4/CapSense_CSD.c **** *
1573:Generated_Source\PSoC4/CapSense_CSD.c **** * Summary:
1574:Generated_Source\PSoC4/CapSense_CSD.c **** *  Stores the results of measurement in the CapSense_CSD_sensorRaw[] array,
1575:Generated_Source\PSoC4/CapSense_CSD.c **** *  sets the scanning sensor in the non-sampling state, turns off Idac(Current Source IDAC),
1576:Generated_Source\PSoC4/CapSense_CSD.c **** *  disconnects the IDAC(Sink mode), and applies Vref on AMUX.
1577:Generated_Source\PSoC4/CapSense_CSD.c **** *
1578:Generated_Source\PSoC4/CapSense_CSD.c **** * Parameters:
1579:Generated_Source\PSoC4/CapSense_CSD.c **** *  sensor:  Sensor number.
1580:Generated_Source\PSoC4/CapSense_CSD.c **** *
1581:Generated_Source\PSoC4/CapSense_CSD.c **** * Return:
1582:Generated_Source\PSoC4/CapSense_CSD.c **** *  None
1583:Generated_Source\PSoC4/CapSense_CSD.c **** *
1584:Generated_Source\PSoC4/CapSense_CSD.c **** * Global Variables:
1585:Generated_Source\PSoC4/CapSense_CSD.c **** *  CapSense_CSD_sensorRaw[] - used to store sensors raw data.
1586:Generated_Source\PSoC4/CapSense_CSD.c **** *
1587:Generated_Source\PSoC4/CapSense_CSD.c **** * Side Effects:
1588:Generated_Source\PSoC4/CapSense_CSD.c **** *  None
1589:Generated_Source\PSoC4/CapSense_CSD.c **** *
1590:Generated_Source\PSoC4/CapSense_CSD.c **** *******************************************************************************/
1591:Generated_Source\PSoC4/CapSense_CSD.c **** void CapSense_CSD_PostScan(uint32 sensor)
1592:Generated_Source\PSoC4/CapSense_CSD.c **** {
 2088              		.loc 1 1592 0
 2089              		.cfi_startproc
 2090              		@ args = 0, pretend = 0, frame = 16
 2091              		@ frame_needed = 1, uses_anonymous_args = 0
 2092 0000 80B5     		push	{r7, lr}
ARM GAS  C:\Users\SHOZO\AppData\Local\Temp\ccpYscuc.s 			page 66


 2093              		.cfi_def_cfa_offset 8
 2094              		.cfi_offset 7, -8
 2095              		.cfi_offset 14, -4
 2096 0002 84B0     		sub	sp, sp, #16
 2097              		.cfi_def_cfa_offset 24
 2098 0004 00AF     		add	r7, sp, #0
 2099              		.cfi_def_cfa_register 7
 2100 0006 7860     		str	r0, [r7, #4]
1593:Generated_Source\PSoC4/CapSense_CSD.c ****     uint32 newRegValue;
1594:Generated_Source\PSoC4/CapSense_CSD.c **** #if ((CapSense_CSD_TUNING_METHOD == CapSense_CSD__TUNING_AUTO) &&\
1595:Generated_Source\PSoC4/CapSense_CSD.c ****      (0 != CapSense_CSD_IS_OVERSAMPLING_EN))
1596:Generated_Source\PSoC4/CapSense_CSD.c ****     uint32 oversamplingFactor;
1597:Generated_Source\PSoC4/CapSense_CSD.c ****     uint32 widget;
1598:Generated_Source\PSoC4/CapSense_CSD.c **** #endif /* ((CapSense_CSD_TUNING_METHOD == CapSense_CSD__TUNING_AUTO) &&\
1599:Generated_Source\PSoC4/CapSense_CSD.c ****            (0 != CapSense_CSD_IS_OVERSAMPLING_EN)) */
1600:Generated_Source\PSoC4/CapSense_CSD.c **** 
1601:Generated_Source\PSoC4/CapSense_CSD.c ****     /* `#START CapSense_CSD_PostScan_Debug` */
1602:Generated_Source\PSoC4/CapSense_CSD.c **** 
1603:Generated_Source\PSoC4/CapSense_CSD.c ****     /* `#END` */
1604:Generated_Source\PSoC4/CapSense_CSD.c **** 
1605:Generated_Source\PSoC4/CapSense_CSD.c **** #ifdef CapSense_CSD_POST_SCAN_DEBUG_CALLBACK
1606:Generated_Source\PSoC4/CapSense_CSD.c ****     CapSense_CSD_PostScan_Debug_Callback();
1607:Generated_Source\PSoC4/CapSense_CSD.c **** #endif /* CapSense_CSD_POST_SCAN_DEBUG_Callback */
1608:Generated_Source\PSoC4/CapSense_CSD.c **** 
1609:Generated_Source\PSoC4/CapSense_CSD.c ****     /* Read SlotResult from Raw Counter */
1610:Generated_Source\PSoC4/CapSense_CSD.c ****     CapSense_CSD_sensorRaw[sensor]  = (uint16)CapSense_CSD_CSD_CNT_REG;
 2101              		.loc 1 1610 0
 2102 0008 144B     		ldr	r3, .L94
 2103 000a 1B68     		ldr	r3, [r3]
 2104 000c 99B2     		uxth	r1, r3
 2105 000e 144B     		ldr	r3, .L94+4
 2106 0010 7A68     		ldr	r2, [r7, #4]
 2107 0012 5200     		lsls	r2, r2, #1
 2108 0014 D152     		strh	r1, [r2, r3]
1611:Generated_Source\PSoC4/CapSense_CSD.c **** 
1612:Generated_Source\PSoC4/CapSense_CSD.c **** #if ((CapSense_CSD_TUNING_METHOD == CapSense_CSD__TUNING_AUTO) &&\
1613:Generated_Source\PSoC4/CapSense_CSD.c ****      (0 != CapSense_CSD_IS_OVERSAMPLING_EN))
1614:Generated_Source\PSoC4/CapSense_CSD.c ****     widget = CapSense_CSD_widgetNumber[sensor];
1615:Generated_Source\PSoC4/CapSense_CSD.c ****     if(CapSense_CSD_widgetResolution[widget] < CapSense_CSD_RESOLUTION_16_BITS)
1616:Generated_Source\PSoC4/CapSense_CSD.c ****     {
1617:Generated_Source\PSoC4/CapSense_CSD.c ****         oversamplingFactor = CapSense_CSD_GetBitValue(CapSense_CSD_scanSpeedTbl, sensor);
1618:Generated_Source\PSoC4/CapSense_CSD.c ****         CapSense_CSD_sensorRaw[sensor] >>= oversamplingFactor;
1619:Generated_Source\PSoC4/CapSense_CSD.c ****     }
1620:Generated_Source\PSoC4/CapSense_CSD.c **** #endif /* ((CapSense_CSD_TUNING_METHOD == CapSense_CSD__TUNING_AUTO) &&\
1621:Generated_Source\PSoC4/CapSense_CSD.c ****            (0 != CapSense_CSD_IS_OVERSAMPLING_EN)) */
1622:Generated_Source\PSoC4/CapSense_CSD.c **** 
1623:Generated_Source\PSoC4/CapSense_CSD.c ****     /* Disable Sensor */
1624:Generated_Source\PSoC4/CapSense_CSD.c ****     CapSense_CSD_DisableScanSlot(sensor);
 2109              		.loc 1 1624 0
 2110 0016 7B68     		ldr	r3, [r7, #4]
 2111 0018 1800     		movs	r0, r3
 2112 001a FFF7FEFF 		bl	CapSense_CSD_DisableSensor
1625:Generated_Source\PSoC4/CapSense_CSD.c **** 
1626:Generated_Source\PSoC4/CapSense_CSD.c ****     CyIntDisable(CapSense_CSD_ISR_NUMBER);
 2113              		.loc 1 1626 0
 2114 001e 0F20     		movs	r0, #15
 2115 0020 FFF7FEFF 		bl	CyIntDisable
ARM GAS  C:\Users\SHOZO\AppData\Local\Temp\ccpYscuc.s 			page 67


1627:Generated_Source\PSoC4/CapSense_CSD.c **** 
1628:Generated_Source\PSoC4/CapSense_CSD.c **** #if(CapSense_CSD_CMOD_PREGARGE_OPTION == CapSense_CSD__CAPPRIOBUF)
1629:Generated_Source\PSoC4/CapSense_CSD.c ****     newRegValue = CapSense_CSD_CMOD_CONNECTION_REG;
1630:Generated_Source\PSoC4/CapSense_CSD.c ****     newRegValue &= ~(CapSense_CSD_CSD_CMOD_CONNECTION_MASK);
1631:Generated_Source\PSoC4/CapSense_CSD.c ****     newRegValue |= CapSense_CSD_CSD_CMOD_TO_AMUXBUS_B;
1632:Generated_Source\PSoC4/CapSense_CSD.c ****     CapSense_CSD_CMOD_CONNECTION_REG = newRegValue;
1633:Generated_Source\PSoC4/CapSense_CSD.c **** 
1634:Generated_Source\PSoC4/CapSense_CSD.c ****     newRegValue = CapSense_CSD_CMOD_PORT_PC_REG;
1635:Generated_Source\PSoC4/CapSense_CSD.c ****     newRegValue &= ~(CapSense_CSD_CSD_CMOD_PC_MASK);
1636:Generated_Source\PSoC4/CapSense_CSD.c ****     newRegValue |= CapSense_CSD_CMOD_PC_STRONG_MODE;
1637:Generated_Source\PSoC4/CapSense_CSD.c ****     CapSense_CSD_CMOD_PORT_PC_REG = newRegValue;
1638:Generated_Source\PSoC4/CapSense_CSD.c **** 
1639:Generated_Source\PSoC4/CapSense_CSD.c ****     newRegValue = CapSense_CSD_CMOD_PORT_DR_REG;
1640:Generated_Source\PSoC4/CapSense_CSD.c ****     newRegValue &= ~(CapSense_CSD_CMOD_DR_MASK);
1641:Generated_Source\PSoC4/CapSense_CSD.c ****     newRegValue |= CapSense_CSD_CMOD_DR_CONFIG;
1642:Generated_Source\PSoC4/CapSense_CSD.c ****     CapSense_CSD_CMOD_PORT_DR_REG = newRegValue;
1643:Generated_Source\PSoC4/CapSense_CSD.c **** #endif /* (CapSense_CSD_CMOD_PREGARGE_OPTION == CapSense_CSD__CAPPRIOBUF) */
1644:Generated_Source\PSoC4/CapSense_CSD.c **** 
1645:Generated_Source\PSoC4/CapSense_CSD.c ****     /* Connect Vref Buffer to AMUX bus  */
1646:Generated_Source\PSoC4/CapSense_CSD.c ****     newRegValue = CapSense_CSD_CSD_CFG_REG;
 2116              		.loc 1 1646 0
 2117 0024 0F4B     		ldr	r3, .L94+8
 2118 0026 1B68     		ldr	r3, [r3]
 2119 0028 FB60     		str	r3, [r7, #12]
1647:Generated_Source\PSoC4/CapSense_CSD.c ****     newRegValue &= ~(CapSense_CSD_PRECHARGE_CONFIG_MASK);
 2120              		.loc 1 1647 0
 2121 002a FB68     		ldr	r3, [r7, #12]
 2122 002c 0E4A     		ldr	r2, .L94+12
 2123 002e 1340     		ands	r3, r2
 2124 0030 FB60     		str	r3, [r7, #12]
1648:Generated_Source\PSoC4/CapSense_CSD.c ****     newRegValue |= CapSense_CSD_CMOD_PRECHARGE_CONFIG;
 2125              		.loc 1 1648 0
 2126 0032 FB68     		ldr	r3, [r7, #12]
 2127 0034 A022     		movs	r2, #160
 2128 0036 1202     		lsls	r2, r2, #8
 2129 0038 1343     		orrs	r3, r2
 2130 003a FB60     		str	r3, [r7, #12]
1649:Generated_Source\PSoC4/CapSense_CSD.c ****     CapSense_CSD_CSD_CFG_REG = newRegValue;
 2131              		.loc 1 1649 0
 2132 003c 094B     		ldr	r3, .L94+8
 2133 003e FA68     		ldr	r2, [r7, #12]
 2134 0040 1A60     		str	r2, [r3]
1650:Generated_Source\PSoC4/CapSense_CSD.c **** 
1651:Generated_Source\PSoC4/CapSense_CSD.c ****     /* Set Idac Value = 0 */
1652:Generated_Source\PSoC4/CapSense_CSD.c **** #if (CapSense_CSD_IDAC_CNT == 1u)
1653:Generated_Source\PSoC4/CapSense_CSD.c ****     CapSense_CSD_CSD_IDAC_REG &= ~(CapSense_CSD_CSD_IDAC1_DATA_MASK);
1654:Generated_Source\PSoC4/CapSense_CSD.c **** #else
1655:Generated_Source\PSoC4/CapSense_CSD.c ****     CapSense_CSD_CSD_IDAC_REG &= ~(CapSense_CSD_CSD_IDAC1_DATA_MASK | CapSense_CSD_CSD_IDAC2_DATA_M
 2135              		.loc 1 1655 0
 2136 0042 0A4B     		ldr	r3, .L94+16
 2137 0044 094A     		ldr	r2, .L94+16
 2138 0046 1268     		ldr	r2, [r2]
 2139 0048 0949     		ldr	r1, .L94+20
 2140 004a 0A40     		ands	r2, r1
 2141 004c 1A60     		str	r2, [r3]
1656:Generated_Source\PSoC4/CapSense_CSD.c **** #endif /* (CapSense_CSD_IDAC_CNT == 1u) */
1657:Generated_Source\PSoC4/CapSense_CSD.c **** 
ARM GAS  C:\Users\SHOZO\AppData\Local\Temp\ccpYscuc.s 			page 68


1658:Generated_Source\PSoC4/CapSense_CSD.c ****     CyIntEnable(CapSense_CSD_ISR_NUMBER);
 2142              		.loc 1 1658 0
 2143 004e 0F20     		movs	r0, #15
 2144 0050 FFF7FEFF 		bl	CyIntEnable
1659:Generated_Source\PSoC4/CapSense_CSD.c **** }
 2145              		.loc 1 1659 0
 2146 0054 C046     		nop
 2147 0056 BD46     		mov	sp, r7
 2148 0058 04B0     		add	sp, sp, #16
 2149              		@ sp needed
 2150 005a 80BD     		pop	{r7, pc}
 2151              	.L95:
 2152              		.align	2
 2153              	.L94:
 2154 005c 0C000840 		.word	1074266124
 2155 0060 00000000 		.word	CapSense_CSD_sensorRaw
 2156 0064 04000840 		.word	1074266116
 2157 0068 FF1FDFFF 		.word	-2154497
 2158 006c 08000840 		.word	1074266120
 2159 0070 00FF80FF 		.word	-8323328
 2160              		.cfi_endproc
 2161              	.LFE53:
 2162              		.size	CapSense_CSD_PostScan, .-CapSense_CSD_PostScan
 2163              		.section	.text.CapSense_CSD_EnableShieldElectrode,"ax",%progbits
 2164              		.align	2
 2165              		.global	CapSense_CSD_EnableShieldElectrode
 2166              		.code	16
 2167              		.thumb_func
 2168              		.type	CapSense_CSD_EnableShieldElectrode, %function
 2169              	CapSense_CSD_EnableShieldElectrode:
 2170              	.LFB54:
1660:Generated_Source\PSoC4/CapSense_CSD.c **** 
1661:Generated_Source\PSoC4/CapSense_CSD.c **** 
1662:Generated_Source\PSoC4/CapSense_CSD.c **** /*******************************************************************************
1663:Generated_Source\PSoC4/CapSense_CSD.c **** * Function Name: CapSense_CSD_EnableShieldElectrode
1664:Generated_Source\PSoC4/CapSense_CSD.c **** ********************************************************************************
1665:Generated_Source\PSoC4/CapSense_CSD.c **** *
1666:Generated_Source\PSoC4/CapSense_CSD.c **** * Summary:
1667:Generated_Source\PSoC4/CapSense_CSD.c **** *  This API enables or disables the shield electrode on a specified port pin.
1668:Generated_Source\PSoC4/CapSense_CSD.c **** *
1669:Generated_Source\PSoC4/CapSense_CSD.c **** * Parameters:
1670:Generated_Source\PSoC4/CapSense_CSD.c **** *  portNumber: contains the shield electrode port number (0, 1, 2).
1671:Generated_Source\PSoC4/CapSense_CSD.c **** *  pinNumber: contains the shield electrode pin number (0, 1, 2, ... , 7).
1672:Generated_Source\PSoC4/CapSense_CSD.c **** *
1673:Generated_Source\PSoC4/CapSense_CSD.c **** * Return:
1674:Generated_Source\PSoC4/CapSense_CSD.c **** *  None
1675:Generated_Source\PSoC4/CapSense_CSD.c **** *
1676:Generated_Source\PSoC4/CapSense_CSD.c **** * Global Variables:
1677:Generated_Source\PSoC4/CapSense_CSD.c **** *  CapSense_CSD_prtCfgTbl[] - Contains pointers to the port config registers for each port.
1678:Generated_Source\PSoC4/CapSense_CSD.c **** *  CapSense_CSD_prtSelTbl[] - Contains pointers to the HSIOM registers for each port.
1679:Generated_Source\PSoC4/CapSense_CSD.c **** *
1680:Generated_Source\PSoC4/CapSense_CSD.c **** * Side Effects:
1681:Generated_Source\PSoC4/CapSense_CSD.c **** *  None
1682:Generated_Source\PSoC4/CapSense_CSD.c **** *
1683:Generated_Source\PSoC4/CapSense_CSD.c **** *******************************************************************************/
1684:Generated_Source\PSoC4/CapSense_CSD.c **** void CapSense_CSD_EnableShieldElectrode(uint32 pinNumber, uint32 portNumber)
1685:Generated_Source\PSoC4/CapSense_CSD.c **** {
ARM GAS  C:\Users\SHOZO\AppData\Local\Temp\ccpYscuc.s 			page 69


 2171              		.loc 1 1685 0
 2172              		.cfi_startproc
 2173              		@ args = 0, pretend = 0, frame = 16
 2174              		@ frame_needed = 1, uses_anonymous_args = 0
 2175 0000 80B5     		push	{r7, lr}
 2176              		.cfi_def_cfa_offset 8
 2177              		.cfi_offset 7, -8
 2178              		.cfi_offset 14, -4
 2179 0002 84B0     		sub	sp, sp, #16
 2180              		.cfi_def_cfa_offset 24
 2181 0004 00AF     		add	r7, sp, #0
 2182              		.cfi_def_cfa_register 7
 2183 0006 7860     		str	r0, [r7, #4]
 2184 0008 3960     		str	r1, [r7]
1686:Generated_Source\PSoC4/CapSense_CSD.c ****     uint32 newRegValue;
1687:Generated_Source\PSoC4/CapSense_CSD.c **** 
1688:Generated_Source\PSoC4/CapSense_CSD.c ****     *CapSense_CSD_prtCfgTbl[portNumber] &= ~(CapSense_CSD_CSD_PIN_MODE_MASK << (pinNumber * CapSens
 2185              		.loc 1 1688 0
 2186 000a 1A4B     		ldr	r3, .L97
 2187 000c 3A68     		ldr	r2, [r7]
 2188 000e 9200     		lsls	r2, r2, #2
 2189 0010 D258     		ldr	r2, [r2, r3]
 2190 0012 184B     		ldr	r3, .L97
 2191 0014 3968     		ldr	r1, [r7]
 2192 0016 8900     		lsls	r1, r1, #2
 2193 0018 CB58     		ldr	r3, [r1, r3]
 2194 001a 1868     		ldr	r0, [r3]
 2195 001c 7968     		ldr	r1, [r7, #4]
 2196 001e 0B00     		movs	r3, r1
 2197 0020 5B00     		lsls	r3, r3, #1
 2198 0022 5B18     		adds	r3, r3, r1
 2199 0024 0721     		movs	r1, #7
 2200 0026 9940     		lsls	r1, r1, r3
 2201 0028 0B00     		movs	r3, r1
 2202 002a DB43     		mvns	r3, r3
 2203 002c 0340     		ands	r3, r0
 2204 002e 1360     		str	r3, [r2]
1689:Generated_Source\PSoC4/CapSense_CSD.c ****     newRegValue = *CapSense_CSD_prtSelTbl[portNumber];
 2205              		.loc 1 1689 0
 2206 0030 114B     		ldr	r3, .L97+4
 2207 0032 3A68     		ldr	r2, [r7]
 2208 0034 9200     		lsls	r2, r2, #2
 2209 0036 D358     		ldr	r3, [r2, r3]
 2210 0038 1B68     		ldr	r3, [r3]
 2211 003a FB60     		str	r3, [r7, #12]
1690:Generated_Source\PSoC4/CapSense_CSD.c ****     newRegValue &= ~(CapSense_CSD_CSD_HSIOM_MASK << (pinNumber * CapSense_CSD_HSIOM_PIN_CFG_SIZE));
 2212              		.loc 1 1690 0
 2213 003c 7B68     		ldr	r3, [r7, #4]
 2214 003e 9B00     		lsls	r3, r3, #2
 2215 0040 0F22     		movs	r2, #15
 2216 0042 9A40     		lsls	r2, r2, r3
 2217 0044 1300     		movs	r3, r2
 2218 0046 DA43     		mvns	r2, r3
 2219 0048 FB68     		ldr	r3, [r7, #12]
 2220 004a 1340     		ands	r3, r2
 2221 004c FB60     		str	r3, [r7, #12]
1691:Generated_Source\PSoC4/CapSense_CSD.c ****     newRegValue |= (CapSense_CSD_CSD_SHIELD_PORT_MODE << (pinNumber * CapSense_CSD_HSIOM_PIN_CFG_SI
ARM GAS  C:\Users\SHOZO\AppData\Local\Temp\ccpYscuc.s 			page 70


 2222              		.loc 1 1691 0
 2223 004e 7B68     		ldr	r3, [r7, #4]
 2224 0050 9B00     		lsls	r3, r3, #2
 2225 0052 0522     		movs	r2, #5
 2226 0054 9A40     		lsls	r2, r2, r3
 2227 0056 1300     		movs	r3, r2
 2228 0058 FA68     		ldr	r2, [r7, #12]
 2229 005a 1343     		orrs	r3, r2
 2230 005c FB60     		str	r3, [r7, #12]
1692:Generated_Source\PSoC4/CapSense_CSD.c ****     *CapSense_CSD_prtSelTbl[portNumber] = newRegValue;
 2231              		.loc 1 1692 0
 2232 005e 064B     		ldr	r3, .L97+4
 2233 0060 3A68     		ldr	r2, [r7]
 2234 0062 9200     		lsls	r2, r2, #2
 2235 0064 D358     		ldr	r3, [r2, r3]
 2236 0066 FA68     		ldr	r2, [r7, #12]
 2237 0068 1A60     		str	r2, [r3]
1693:Generated_Source\PSoC4/CapSense_CSD.c **** }
 2238              		.loc 1 1693 0
 2239 006a C046     		nop
 2240 006c BD46     		mov	sp, r7
 2241 006e 04B0     		add	sp, sp, #16
 2242              		@ sp needed
 2243 0070 80BD     		pop	{r7, pc}
 2244              	.L98:
 2245 0072 C046     		.align	2
 2246              	.L97:
 2247 0074 00000000 		.word	CapSense_CSD_prtCfgTbl
 2248 0078 00000000 		.word	CapSense_CSD_prtSelTbl
 2249              		.cfi_endproc
 2250              	.LFE54:
 2251              		.size	CapSense_CSD_EnableShieldElectrode, .-CapSense_CSD_EnableShieldElectrode
 2252              		.section	.text.CapSense_CSD_SetShieldDelay,"ax",%progbits
 2253              		.align	2
 2254              		.global	CapSense_CSD_SetShieldDelay
 2255              		.code	16
 2256              		.thumb_func
 2257              		.type	CapSense_CSD_SetShieldDelay, %function
 2258              	CapSense_CSD_SetShieldDelay:
 2259              	.LFB55:
1694:Generated_Source\PSoC4/CapSense_CSD.c **** 
1695:Generated_Source\PSoC4/CapSense_CSD.c **** 
1696:Generated_Source\PSoC4/CapSense_CSD.c **** /*******************************************************************************
1697:Generated_Source\PSoC4/CapSense_CSD.c **** * Function Name: CapSense_CSD_SetShieldDelay
1698:Generated_Source\PSoC4/CapSense_CSD.c **** ********************************************************************************
1699:Generated_Source\PSoC4/CapSense_CSD.c **** *
1700:Generated_Source\PSoC4/CapSense_CSD.c **** * Summary:
1701:Generated_Source\PSoC4/CapSense_CSD.c **** *  This API sets a shield delay.
1702:Generated_Source\PSoC4/CapSense_CSD.c **** *
1703:Generated_Source\PSoC4/CapSense_CSD.c **** * Parameters:
1704:Generated_Source\PSoC4/CapSense_CSD.c **** *  delay:  shield delay value:
1705:Generated_Source\PSoC4/CapSense_CSD.c **** *                               0 - no delay
1706:Generated_Source\PSoC4/CapSense_CSD.c **** *                               1 - 1 cycle delay
1707:Generated_Source\PSoC4/CapSense_CSD.c **** *                               2 - 2 cycles delay
1708:Generated_Source\PSoC4/CapSense_CSD.c **** *
1709:Generated_Source\PSoC4/CapSense_CSD.c **** * Return:
1710:Generated_Source\PSoC4/CapSense_CSD.c **** *  None
ARM GAS  C:\Users\SHOZO\AppData\Local\Temp\ccpYscuc.s 			page 71


1711:Generated_Source\PSoC4/CapSense_CSD.c **** *
1712:Generated_Source\PSoC4/CapSense_CSD.c **** * Global Variables:
1713:Generated_Source\PSoC4/CapSense_CSD.c **** *  None
1714:Generated_Source\PSoC4/CapSense_CSD.c **** *
1715:Generated_Source\PSoC4/CapSense_CSD.c **** * Side Effects:
1716:Generated_Source\PSoC4/CapSense_CSD.c **** *  None
1717:Generated_Source\PSoC4/CapSense_CSD.c **** *
1718:Generated_Source\PSoC4/CapSense_CSD.c **** *******************************************************************************/
1719:Generated_Source\PSoC4/CapSense_CSD.c **** void CapSense_CSD_SetShieldDelay(uint32 delay)
1720:Generated_Source\PSoC4/CapSense_CSD.c **** {
 2260              		.loc 1 1720 0
 2261              		.cfi_startproc
 2262              		@ args = 0, pretend = 0, frame = 16
 2263              		@ frame_needed = 1, uses_anonymous_args = 0
 2264 0000 80B5     		push	{r7, lr}
 2265              		.cfi_def_cfa_offset 8
 2266              		.cfi_offset 7, -8
 2267              		.cfi_offset 14, -4
 2268 0002 84B0     		sub	sp, sp, #16
 2269              		.cfi_def_cfa_offset 24
 2270 0004 00AF     		add	r7, sp, #0
 2271              		.cfi_def_cfa_register 7
 2272 0006 7860     		str	r0, [r7, #4]
1721:Generated_Source\PSoC4/CapSense_CSD.c ****     uint32 newRegValue;
1722:Generated_Source\PSoC4/CapSense_CSD.c **** 
1723:Generated_Source\PSoC4/CapSense_CSD.c ****     delay &= 0x03u;
 2273              		.loc 1 1723 0
 2274 0008 7B68     		ldr	r3, [r7, #4]
 2275 000a 0322     		movs	r2, #3
 2276 000c 1340     		ands	r3, r2
 2277 000e 7B60     		str	r3, [r7, #4]
1724:Generated_Source\PSoC4/CapSense_CSD.c **** 
1725:Generated_Source\PSoC4/CapSense_CSD.c ****     newRegValue = CapSense_CSD_CSD_CFG_REG;
 2278              		.loc 1 1725 0
 2279 0010 074B     		ldr	r3, .L100
 2280 0012 1B68     		ldr	r3, [r3]
 2281 0014 FB60     		str	r3, [r7, #12]
1726:Generated_Source\PSoC4/CapSense_CSD.c ****     newRegValue &= (uint32)(~(uint32)CapSense_CSD_SHIELD_DELAY);
1727:Generated_Source\PSoC4/CapSense_CSD.c ****     newRegValue |= (delay << CapSense_CSD_CSD_CFG_SHIELD_DELAY_POS);
 2282              		.loc 1 1727 0
 2283 0016 7B68     		ldr	r3, [r7, #4]
 2284 0018 5B02     		lsls	r3, r3, #9
 2285 001a FA68     		ldr	r2, [r7, #12]
 2286 001c 1343     		orrs	r3, r2
 2287 001e FB60     		str	r3, [r7, #12]
1728:Generated_Source\PSoC4/CapSense_CSD.c ****     CapSense_CSD_CSD_CFG_REG = newRegValue;
 2288              		.loc 1 1728 0
 2289 0020 034B     		ldr	r3, .L100
 2290 0022 FA68     		ldr	r2, [r7, #12]
 2291 0024 1A60     		str	r2, [r3]
1729:Generated_Source\PSoC4/CapSense_CSD.c **** }
 2292              		.loc 1 1729 0
 2293 0026 C046     		nop
 2294 0028 BD46     		mov	sp, r7
 2295 002a 04B0     		add	sp, sp, #16
 2296              		@ sp needed
 2297 002c 80BD     		pop	{r7, pc}
ARM GAS  C:\Users\SHOZO\AppData\Local\Temp\ccpYscuc.s 			page 72


 2298              	.L101:
 2299 002e C046     		.align	2
 2300              	.L100:
 2301 0030 04000840 		.word	1074266116
 2302              		.cfi_endproc
 2303              	.LFE55:
 2304              		.size	CapSense_CSD_SetShieldDelay, .-CapSense_CSD_SetShieldDelay
 2305              		.section	.text.CapSense_CSD_ReadCurrentScanningSensor,"ax",%progbits
 2306              		.align	2
 2307              		.global	CapSense_CSD_ReadCurrentScanningSensor
 2308              		.code	16
 2309              		.thumb_func
 2310              		.type	CapSense_CSD_ReadCurrentScanningSensor, %function
 2311              	CapSense_CSD_ReadCurrentScanningSensor:
 2312              	.LFB56:
1730:Generated_Source\PSoC4/CapSense_CSD.c **** 
1731:Generated_Source\PSoC4/CapSense_CSD.c **** 
1732:Generated_Source\PSoC4/CapSense_CSD.c **** /*******************************************************************************
1733:Generated_Source\PSoC4/CapSense_CSD.c **** * Function Name: CapSense_CSD_ReadCurrentScanningSensor
1734:Generated_Source\PSoC4/CapSense_CSD.c **** ********************************************************************************
1735:Generated_Source\PSoC4/CapSense_CSD.c **** *
1736:Generated_Source\PSoC4/CapSense_CSD.c **** * Summary:
1737:Generated_Source\PSoC4/CapSense_CSD.c **** *  This API returns scanning sensor number when sensor scan is in progress.
1738:Generated_Source\PSoC4/CapSense_CSD.c **** *  When sensor scan is completed the API returns
1739:Generated_Source\PSoC4/CapSense_CSD.c **** *  $INSTANCE_NAME`_NOT_SENSOR (0xFFFFFFFF) (when no sensor is scanned).
1740:Generated_Source\PSoC4/CapSense_CSD.c **** *
1741:Generated_Source\PSoC4/CapSense_CSD.c **** * Parameters:
1742:Generated_Source\PSoC4/CapSense_CSD.c **** *   None.
1743:Generated_Source\PSoC4/CapSense_CSD.c **** *
1744:Generated_Source\PSoC4/CapSense_CSD.c **** * Return:
1745:Generated_Source\PSoC4/CapSense_CSD.c **** *  Returns Sensor number if sensor is being scanned and
1746:Generated_Source\PSoC4/CapSense_CSD.c **** *  $INSTANCE_NAME`_NOT_SENSOR (0xFFFFFFFF) if scanning is complete.
1747:Generated_Source\PSoC4/CapSense_CSD.c **** *
1748:Generated_Source\PSoC4/CapSense_CSD.c **** * Global Variables:
1749:Generated_Source\PSoC4/CapSense_CSD.c **** *  CapSense_CSD_sensorIndex - the sensor number is being scanned.
1750:Generated_Source\PSoC4/CapSense_CSD.c **** *
1751:Generated_Source\PSoC4/CapSense_CSD.c **** * Side Effects:
1752:Generated_Source\PSoC4/CapSense_CSD.c **** *  None
1753:Generated_Source\PSoC4/CapSense_CSD.c **** *
1754:Generated_Source\PSoC4/CapSense_CSD.c **** *******************************************************************************/
1755:Generated_Source\PSoC4/CapSense_CSD.c **** uint32 CapSense_CSD_ReadCurrentScanningSensor(void)
1756:Generated_Source\PSoC4/CapSense_CSD.c **** {
 2313              		.loc 1 1756 0
 2314              		.cfi_startproc
 2315              		@ args = 0, pretend = 0, frame = 0
 2316              		@ frame_needed = 1, uses_anonymous_args = 0
 2317 0000 80B5     		push	{r7, lr}
 2318              		.cfi_def_cfa_offset 8
 2319              		.cfi_offset 7, -8
 2320              		.cfi_offset 14, -4
 2321 0002 00AF     		add	r7, sp, #0
 2322              		.cfi_def_cfa_register 7
1757:Generated_Source\PSoC4/CapSense_CSD.c ****     return ((uint32)(( 0u != (CapSense_CSD_csdStatusVar & CapSense_CSD_SW_STS_BUSY)) ?
 2323              		.loc 1 1757 0
 2324 0004 074B     		ldr	r3, .L106
 2325 0006 1B78     		ldrb	r3, [r3]
 2326 0008 DBB2     		uxtb	r3, r3
ARM GAS  C:\Users\SHOZO\AppData\Local\Temp\ccpYscuc.s 			page 73


 2327 000a 1A00     		movs	r2, r3
 2328 000c 0123     		movs	r3, #1
 2329 000e 1340     		ands	r3, r2
 2330 0010 03D0     		beq	.L103
 2331              		.loc 1 1757 0 is_stmt 0 discriminator 1
 2332 0012 054B     		ldr	r3, .L106+4
 2333 0014 1B78     		ldrb	r3, [r3]
 2334 0016 DBB2     		uxtb	r3, r3
 2335 0018 01E0     		b	.L105
 2336              	.L103:
 2337              		.loc 1 1757 0 discriminator 2
 2338 001a 0123     		movs	r3, #1
 2339 001c 5B42     		rsbs	r3, r3, #0
 2340              	.L105:
1758:Generated_Source\PSoC4/CapSense_CSD.c ****                      CapSense_CSD_sensorIndex : CapSense_CSD_NOT_SENSOR));
1759:Generated_Source\PSoC4/CapSense_CSD.c **** }
 2341              		.loc 1 1759 0 is_stmt 1 discriminator 5
 2342 001e 1800     		movs	r0, r3
 2343 0020 BD46     		mov	sp, r7
 2344              		@ sp needed
 2345 0022 80BD     		pop	{r7, pc}
 2346              	.L107:
 2347              		.align	2
 2348              	.L106:
 2349 0024 00000000 		.word	CapSense_CSD_csdStatusVar
 2350 0028 00000000 		.word	CapSense_CSD_sensorIndex
 2351              		.cfi_endproc
 2352              	.LFE56:
 2353              		.size	CapSense_CSD_ReadCurrentScanningSensor, .-CapSense_CSD_ReadCurrentScanningSensor
 2354              		.section	.text.CapSense_CSD_GetBitValue,"ax",%progbits
 2355              		.align	2
 2356              		.global	CapSense_CSD_GetBitValue
 2357              		.code	16
 2358              		.thumb_func
 2359              		.type	CapSense_CSD_GetBitValue, %function
 2360              	CapSense_CSD_GetBitValue:
 2361              	.LFB57:
1760:Generated_Source\PSoC4/CapSense_CSD.c **** 
1761:Generated_Source\PSoC4/CapSense_CSD.c **** 
1762:Generated_Source\PSoC4/CapSense_CSD.c **** /*******************************************************************************
1763:Generated_Source\PSoC4/CapSense_CSD.c **** * Function Name: CapSense_CSD_GetBitValue
1764:Generated_Source\PSoC4/CapSense_CSD.c **** ********************************************************************************
1765:Generated_Source\PSoC4/CapSense_CSD.c **** *
1766:Generated_Source\PSoC4/CapSense_CSD.c **** * Summary:
1767:Generated_Source\PSoC4/CapSense_CSD.c **** *  The API returns a bit status of the bit in the table array which contains the masks.
1768:Generated_Source\PSoC4/CapSense_CSD.c **** *
1769:Generated_Source\PSoC4/CapSense_CSD.c **** * Parameters:
1770:Generated_Source\PSoC4/CapSense_CSD.c **** *  table[] - array with bit masks.
1771:Generated_Source\PSoC4/CapSense_CSD.c **** *  position - position of bit in the table[] array.
1772:Generated_Source\PSoC4/CapSense_CSD.c **** *
1773:Generated_Source\PSoC4/CapSense_CSD.c **** * Return:
