ARM GAS  C:\Users\SHOZO\AppData\Local\Temp\ccGGKGa0.s 			page 1


   1              		.syntax unified
   2              		.cpu cortex-m0
   3              		.fpu softvfp
   4              		.eabi_attribute 20, 1
   5              		.eabi_attribute 21, 1
   6              		.eabi_attribute 23, 3
   7              		.eabi_attribute 24, 1
   8              		.eabi_attribute 25, 1
   9              		.eabi_attribute 26, 1
  10              		.eabi_attribute 30, 6
  11              		.eabi_attribute 34, 0
  12              		.eabi_attribute 18, 4
  13              		.thumb
  14              		.syntax unified
  15              		.file	"CapSense_CSD_CSHL.c"
  16              		.text
  17              	.Ltext0:
  18              		.cfi_sections	.debug_frame
  19              		.comm	CapSense_CSD_rawFilterData1,26,4
  20              		.comm	CapSense_CSD_rawFilterData2,26,4
  21              		.global	CapSense_CSD_sensorBaseline
  22              		.bss
  23              		.align	2
  24              		.type	CapSense_CSD_sensorBaseline, %object
  25              		.size	CapSense_CSD_sensorBaseline, 26
  26              	CapSense_CSD_sensorBaseline:
  27 0000 00000000 		.space	26
  27      00000000 
  27      00000000 
  27      00000000 
  27      00000000 
  28              		.global	CapSense_CSD_sensorBaselineLow
  29 001a 0000     		.align	2
  30              		.type	CapSense_CSD_sensorBaselineLow, %object
  31              		.size	CapSense_CSD_sensorBaselineLow, 13
  32              	CapSense_CSD_sensorBaselineLow:
  33 001c 00000000 		.space	13
  33      00000000 
  33      00000000 
  33      00
  34              		.global	CapSense_CSD_sensorSignal
  35 0029 000000   		.align	2
  36              		.type	CapSense_CSD_sensorSignal, %object
  37              		.size	CapSense_CSD_sensorSignal, 26
  38              	CapSense_CSD_sensorSignal:
  39 002c 00000000 		.space	26
  39      00000000 
  39      00000000 
  39      00000000 
  39      00000000 
  40              		.global	CapSense_CSD_sensorOnMask
  41 0046 0000     		.align	2
  42              		.type	CapSense_CSD_sensorOnMask, %object
  43              		.size	CapSense_CSD_sensorOnMask, 2
  44              	CapSense_CSD_sensorOnMask:
  45 0048 0000     		.space	2
  46              		.comm	CapSense_CSD_lowBaselineResetCnt,13,4
ARM GAS  C:\Users\SHOZO\AppData\Local\Temp\ccGGKGa0.s 			page 2


  47              		.global	CapSense_CSD_lowBaselineReset
  48              		.data
  49              		.align	2
  50              		.type	CapSense_CSD_lowBaselineReset, %object
  51              		.size	CapSense_CSD_lowBaselineReset, 13
  52              	CapSense_CSD_lowBaselineReset:
  53 0000 05       		.byte	5
  54 0001 05       		.byte	5
  55 0002 05       		.byte	5
  56 0003 05       		.byte	5
  57 0004 05       		.byte	5
  58 0005 05       		.byte	5
  59 0006 05       		.byte	5
  60 0007 05       		.byte	5
  61 0008 05       		.byte	5
  62 0009 05       		.byte	5
  63 000a 05       		.byte	5
  64 000b 05       		.byte	5
  65 000c 05       		.byte	5
  66              		.global	CapSense_CSD_enableRawFilters
  67              		.type	CapSense_CSD_enableRawFilters, %object
  68              		.size	CapSense_CSD_enableRawFilters, 1
  69              	CapSense_CSD_enableRawFilters:
  70 000d 01       		.byte	1
  71              		.global	CapSense_CSD_fingerThreshold
  72 000e 0000     		.align	2
  73              		.type	CapSense_CSD_fingerThreshold, %object
  74              		.size	CapSense_CSD_fingerThreshold, 26
  75              	CapSense_CSD_fingerThreshold:
  76 0010 6400     		.short	100
  77 0012 6400     		.short	100
  78 0014 6400     		.short	100
  79 0016 6400     		.short	100
  80 0018 6400     		.short	100
  81 001a 6400     		.short	100
  82 001c 6400     		.short	100
  83 001e 6400     		.short	100
  84 0020 6400     		.short	100
  85 0022 6400     		.short	100
  86 0024 6400     		.short	100
  87 0026 6400     		.short	100
  88 0028 6400     		.short	100
  89              		.global	CapSense_CSD_noiseThreshold
  90 002a 0000     		.align	2
  91              		.type	CapSense_CSD_noiseThreshold, %object
  92              		.size	CapSense_CSD_noiseThreshold, 26
  93              	CapSense_CSD_noiseThreshold:
  94 002c 1400     		.short	20
  95 002e 1400     		.short	20
  96 0030 1400     		.short	20
  97 0032 1400     		.short	20
  98 0034 1400     		.short	20
  99 0036 1400     		.short	20
 100 0038 1400     		.short	20
 101 003a 1400     		.short	20
 102 003c 1400     		.short	20
 103 003e 1400     		.short	20
ARM GAS  C:\Users\SHOZO\AppData\Local\Temp\ccGGKGa0.s 			page 3


 104 0040 1400     		.short	20
 105 0042 1400     		.short	20
 106 0044 1400     		.short	20
 107              		.global	CapSense_CSD_negativeNoiseThreshold
 108 0046 0000     		.align	2
 109              		.type	CapSense_CSD_negativeNoiseThreshold, %object
 110              		.size	CapSense_CSD_negativeNoiseThreshold, 26
 111              	CapSense_CSD_negativeNoiseThreshold:
 112 0048 1400     		.short	20
 113 004a 1400     		.short	20
 114 004c 1400     		.short	20
 115 004e 1400     		.short	20
 116 0050 1400     		.short	20
 117 0052 1400     		.short	20
 118 0054 1400     		.short	20
 119 0056 1400     		.short	20
 120 0058 1400     		.short	20
 121 005a 1400     		.short	20
 122 005c 1400     		.short	20
 123 005e 1400     		.short	20
 124 0060 1400     		.short	20
 125              		.global	CapSense_CSD_hysteresis
 126 0062 0000     		.align	2
 127              		.type	CapSense_CSD_hysteresis, %object
 128              		.size	CapSense_CSD_hysteresis, 26
 129              	CapSense_CSD_hysteresis:
 130 0064 0A00     		.short	10
 131 0066 0A00     		.short	10
 132 0068 0A00     		.short	10
 133 006a 0A00     		.short	10
 134 006c 0A00     		.short	10
 135 006e 0A00     		.short	10
 136 0070 0A00     		.short	10
 137 0072 0A00     		.short	10
 138 0074 0A00     		.short	10
 139 0076 0A00     		.short	10
 140 0078 0A00     		.short	10
 141 007a 0A00     		.short	10
 142 007c 0A00     		.short	10
 143              		.global	CapSense_CSD_debounce
 144 007e 0000     		.align	2
 145              		.type	CapSense_CSD_debounce, %object
 146              		.size	CapSense_CSD_debounce, 13
 147              	CapSense_CSD_debounce:
 148 0080 14       		.byte	20
 149 0081 14       		.byte	20
 150 0082 14       		.byte	20
 151 0083 14       		.byte	20
 152 0084 14       		.byte	20
 153 0085 14       		.byte	20
 154 0086 14       		.byte	20
 155 0087 14       		.byte	20
 156 0088 14       		.byte	20
 157 0089 14       		.byte	20
 158 008a 14       		.byte	20
 159 008b 14       		.byte	20
 160 008c 14       		.byte	20
ARM GAS  C:\Users\SHOZO\AppData\Local\Temp\ccGGKGa0.s 			page 4


 161              		.bss
 162 004a 0000     		.align	2
 163              	CapSense_CSD_debounceCounter:
 164 004c 00000000 		.space	14
 164      00000000 
 164      00000000 
 164      0000
 165              		.global	CapSense_CSD_rawDataIndex
 166              		.section	.rodata
 167              		.align	2
 168              		.type	CapSense_CSD_rawDataIndex, %object
 169              		.size	CapSense_CSD_rawDataIndex, 13
 170              	CapSense_CSD_rawDataIndex:
 171 0000 00       		.byte	0
 172 0001 01       		.byte	1
 173 0002 02       		.byte	2
 174 0003 03       		.byte	3
 175 0004 04       		.byte	4
 176 0005 05       		.byte	5
 177 0006 06       		.byte	6
 178 0007 07       		.byte	7
 179 0008 08       		.byte	8
 180 0009 09       		.byte	9
 181 000a 0A       		.byte	10
 182 000b 0B       		.byte	11
 183 000c 0C       		.byte	12
 184              		.global	CapSense_CSD_numberOfSensors
 185 000d 000000   		.align	2
 186              		.type	CapSense_CSD_numberOfSensors, %object
 187              		.size	CapSense_CSD_numberOfSensors, 13
 188              	CapSense_CSD_numberOfSensors:
 189 0010 01       		.byte	1
 190 0011 01       		.byte	1
 191 0012 01       		.byte	1
 192 0013 01       		.byte	1
 193 0014 01       		.byte	1
 194 0015 01       		.byte	1
 195 0016 01       		.byte	1
 196 0017 01       		.byte	1
 197 0018 01       		.byte	1
 198 0019 01       		.byte	1
 199 001a 01       		.byte	1
 200 001b 01       		.byte	1
 201 001c 01       		.byte	1
 202              		.section	.text.CapSense_CSD_BaseInit,"ax",%progbits
 203              		.align	2
 204              		.global	CapSense_CSD_BaseInit
 205              		.code	16
 206              		.thumb_func
 207              		.type	CapSense_CSD_BaseInit, %function
 208              	CapSense_CSD_BaseInit:
 209              	.LFB32:
 210              		.file 1 "Generated_Source\\PSoC4\\CapSense_CSD_CSHL.c"
   1:Generated_Source\PSoC4/CapSense_CSD_CSHL.c **** /*******************************************************************************
   2:Generated_Source\PSoC4/CapSense_CSD_CSHL.c **** * File Name: CapSense_CSD_CSHL.c
   3:Generated_Source\PSoC4/CapSense_CSD_CSHL.c **** * Version 2.60
   4:Generated_Source\PSoC4/CapSense_CSD_CSHL.c **** *
ARM GAS  C:\Users\SHOZO\AppData\Local\Temp\ccGGKGa0.s 			page 5


   5:Generated_Source\PSoC4/CapSense_CSD_CSHL.c **** * Description:
   6:Generated_Source\PSoC4/CapSense_CSD_CSHL.c **** *  This file provides the source code to the High Level APIs for the CapSesne
   7:Generated_Source\PSoC4/CapSense_CSD_CSHL.c **** *  CSD component.
   8:Generated_Source\PSoC4/CapSense_CSD_CSHL.c **** *
   9:Generated_Source\PSoC4/CapSense_CSD_CSHL.c **** * Note:
  10:Generated_Source\PSoC4/CapSense_CSD_CSHL.c **** *
  11:Generated_Source\PSoC4/CapSense_CSD_CSHL.c **** ********************************************************************************
  12:Generated_Source\PSoC4/CapSense_CSD_CSHL.c **** * Copyright 2013-2016, Cypress Semiconductor Corporation.  All rights reserved.
  13:Generated_Source\PSoC4/CapSense_CSD_CSHL.c **** * You may use this file only in accordance with the license, terms, conditions,
  14:Generated_Source\PSoC4/CapSense_CSD_CSHL.c **** * disclaimers, and limitations in the end user license agreement accompanying
  15:Generated_Source\PSoC4/CapSense_CSD_CSHL.c **** * the software package with which this file was provided.
  16:Generated_Source\PSoC4/CapSense_CSD_CSHL.c **** *******************************************************************************/
  17:Generated_Source\PSoC4/CapSense_CSD_CSHL.c **** 
  18:Generated_Source\PSoC4/CapSense_CSD_CSHL.c **** #include "CapSense_CSD_CSHL.h"
  19:Generated_Source\PSoC4/CapSense_CSD_CSHL.c **** #include "CapSense_CSD_PVT.h"
  20:Generated_Source\PSoC4/CapSense_CSD_CSHL.c **** 
  21:Generated_Source\PSoC4/CapSense_CSD_CSHL.c **** /* SmartSense functions */
  22:Generated_Source\PSoC4/CapSense_CSD_CSHL.c **** #if (CapSense_CSD_TUNING_METHOD == CapSense_CSD__TUNING_AUTO)
  23:Generated_Source\PSoC4/CapSense_CSD_CSHL.c ****     extern void CapSense_CSD_UpdateThresholds(uint32 sensor);
  24:Generated_Source\PSoC4/CapSense_CSD_CSHL.c **** #endif /* (CapSense_CSD_TUNING_METHOD == CapSense_CSD__TUNING_AUTO) */
  25:Generated_Source\PSoC4/CapSense_CSD_CSHL.c **** 
  26:Generated_Source\PSoC4/CapSense_CSD_CSHL.c **** /* Storage of filters data */
  27:Generated_Source\PSoC4/CapSense_CSD_CSHL.c **** #if ( (0u != (CapSense_CSD_RAW_FILTER_MASK & CapSense_CSD_MEDIAN_FILTER)) || \
  28:Generated_Source\PSoC4/CapSense_CSD_CSHL.c ****       (0u != (CapSense_CSD_RAW_FILTER_MASK & CapSense_CSD_AVERAGING_FILTER)) )
  29:Generated_Source\PSoC4/CapSense_CSD_CSHL.c **** 
  30:Generated_Source\PSoC4/CapSense_CSD_CSHL.c ****     uint16 CapSense_CSD_rawFilterData1[CapSense_CSD_TOTAL_SENSOR_COUNT];
  31:Generated_Source\PSoC4/CapSense_CSD_CSHL.c ****     uint16 CapSense_CSD_rawFilterData2[CapSense_CSD_TOTAL_SENSOR_COUNT];
  32:Generated_Source\PSoC4/CapSense_CSD_CSHL.c **** 
  33:Generated_Source\PSoC4/CapSense_CSD_CSHL.c **** #elif ( (0u != (CapSense_CSD_RAW_FILTER_MASK & CapSense_CSD_IIR2_FILTER))   || \
  34:Generated_Source\PSoC4/CapSense_CSD_CSHL.c ****         (0u != (CapSense_CSD_RAW_FILTER_MASK & CapSense_CSD_IIR4_FILTER))   || \
  35:Generated_Source\PSoC4/CapSense_CSD_CSHL.c ****         (0u != (CapSense_CSD_RAW_FILTER_MASK & CapSense_CSD_JITTER_FILTER)) || \
  36:Generated_Source\PSoC4/CapSense_CSD_CSHL.c ****         (0u != (CapSense_CSD_RAW_FILTER_MASK & CapSense_CSD_IIR8_FILTER))   || \
  37:Generated_Source\PSoC4/CapSense_CSD_CSHL.c ****         (0u != (CapSense_CSD_RAW_FILTER_MASK & CapSense_CSD_IIR16_FILTER)) )
  38:Generated_Source\PSoC4/CapSense_CSD_CSHL.c **** 
  39:Generated_Source\PSoC4/CapSense_CSD_CSHL.c ****     uint16 CapSense_CSD_rawFilterData1[CapSense_CSD_TOTAL_SENSOR_COUNT];
  40:Generated_Source\PSoC4/CapSense_CSD_CSHL.c **** #endif  /* ( (CapSense_CSD_RAW_FILTER_MASK & CapSense_CSD_MEDIAN_FILTER) || \
  41:Generated_Source\PSoC4/CapSense_CSD_CSHL.c ****         *    (CapSense_CSD_RAW_FILTER_MASK & CapSense_CSD_AVERAGING_FILTER) )
  42:Generated_Source\PSoC4/CapSense_CSD_CSHL.c ****         */
  43:Generated_Source\PSoC4/CapSense_CSD_CSHL.c **** 
  44:Generated_Source\PSoC4/CapSense_CSD_CSHL.c **** extern uint16 CapSense_CSD_sensorRaw[CapSense_CSD_TOTAL_SENSOR_COUNT];
  45:Generated_Source\PSoC4/CapSense_CSD_CSHL.c **** extern uint8 CapSense_CSD_sensorEnableMask[CapSense_CSD_TOTAL_SENSOR_MASK];
  46:Generated_Source\PSoC4/CapSense_CSD_CSHL.c **** extern const uint8 CapSense_CSD_widgetNumber[CapSense_CSD_TOTAL_SENSOR_COUNT];
  47:Generated_Source\PSoC4/CapSense_CSD_CSHL.c **** 
  48:Generated_Source\PSoC4/CapSense_CSD_CSHL.c **** #if (CapSense_CSD_TUNING_METHOD != CapSense_CSD__TUNING_NONE)
  49:Generated_Source\PSoC4/CapSense_CSD_CSHL.c ****     extern uint32 CapSense_CSD_widgetResolution[CapSense_CSD_RESOLUTIONS_TBL_SIZE];
  50:Generated_Source\PSoC4/CapSense_CSD_CSHL.c **** #endif /* (CapSense_CSD_TUNING_METHOD != CapSense_CSD__TUNING_NONE) */
  51:Generated_Source\PSoC4/CapSense_CSD_CSHL.c **** 
  52:Generated_Source\PSoC4/CapSense_CSD_CSHL.c **** uint16 CapSense_CSD_sensorBaseline[CapSense_CSD_TOTAL_SENSOR_COUNT] = {0u};
  53:Generated_Source\PSoC4/CapSense_CSD_CSHL.c **** uint8 CapSense_CSD_sensorBaselineLow[CapSense_CSD_TOTAL_SENSOR_COUNT] = {0u};
  54:Generated_Source\PSoC4/CapSense_CSD_CSHL.c **** uint16 CapSense_CSD_sensorSignal[CapSense_CSD_TOTAL_SENSOR_COUNT] = {0u};
  55:Generated_Source\PSoC4/CapSense_CSD_CSHL.c **** uint8 CapSense_CSD_sensorOnMask[CapSense_CSD_TOTAL_SENSOR_MASK] = {0u};
  56:Generated_Source\PSoC4/CapSense_CSD_CSHL.c **** 
  57:Generated_Source\PSoC4/CapSense_CSD_CSHL.c **** uint8 CapSense_CSD_lowBaselineResetCnt[CapSense_CSD_TOTAL_SENSOR_COUNT];
  58:Generated_Source\PSoC4/CapSense_CSD_CSHL.c **** uint8 CapSense_CSD_lowBaselineReset[CapSense_CSD_TOTAL_SENSOR_COUNT] = {
  59:Generated_Source\PSoC4/CapSense_CSD_CSHL.c ****     5u, 5u, 5u, 5u, 5u, 5u, 5u, 5u, 5u, 5u, 5u, 5u, 5u, 
  60:Generated_Source\PSoC4/CapSense_CSD_CSHL.c **** };
  61:Generated_Source\PSoC4/CapSense_CSD_CSHL.c **** 
ARM GAS  C:\Users\SHOZO\AppData\Local\Temp\ccGGKGa0.s 			page 6


  62:Generated_Source\PSoC4/CapSense_CSD_CSHL.c **** 
  63:Generated_Source\PSoC4/CapSense_CSD_CSHL.c **** 
  64:Generated_Source\PSoC4/CapSense_CSD_CSHL.c **** #if (CapSense_CSD_TUNING_METHOD == CapSense_CSD__TUNING_AUTO)
  65:Generated_Source\PSoC4/CapSense_CSD_CSHL.c ****     extern CapSense_CSD_CONFIG_TYPE_P4_v2_60 CapSense_CSD_config;
  66:Generated_Source\PSoC4/CapSense_CSD_CSHL.c **** #endif  /* (CapSense_CSD_TUNING_METHOD == CapSense_CSD__TUNING_AUTO) */
  67:Generated_Source\PSoC4/CapSense_CSD_CSHL.c **** 
  68:Generated_Source\PSoC4/CapSense_CSD_CSHL.c **** #if (CapSense_CSD_RAW_FILTER_MASK != 0u)
  69:Generated_Source\PSoC4/CapSense_CSD_CSHL.c **** uint8 CapSense_CSD_enableRawFilters = CapSense_CSD_RAW_FILTERS_ENABLED;
  70:Generated_Source\PSoC4/CapSense_CSD_CSHL.c **** #endif  /* (CapSense_CSD_RAW_FILTER_MASK != 0u) */
  71:Generated_Source\PSoC4/CapSense_CSD_CSHL.c **** 
  72:Generated_Source\PSoC4/CapSense_CSD_CSHL.c **** /* Generated by Customizer */
  73:Generated_Source\PSoC4/CapSense_CSD_CSHL.c **** uint16 CapSense_CSD_fingerThreshold[] = {
  74:Generated_Source\PSoC4/CapSense_CSD_CSHL.c ****     100u, 100u, 100u, 100u, 100u, 100u, 100u, 100u, 100u, 100u, 100u, 100u, 100u, 
  75:Generated_Source\PSoC4/CapSense_CSD_CSHL.c **** };
  76:Generated_Source\PSoC4/CapSense_CSD_CSHL.c **** 
  77:Generated_Source\PSoC4/CapSense_CSD_CSHL.c **** uint16 CapSense_CSD_noiseThreshold[] = {
  78:Generated_Source\PSoC4/CapSense_CSD_CSHL.c ****     20u, 20u, 20u, 20u, 20u, 20u, 20u, 20u, 20u, 20u, 20u, 20u, 20u, 
  79:Generated_Source\PSoC4/CapSense_CSD_CSHL.c **** };
  80:Generated_Source\PSoC4/CapSense_CSD_CSHL.c **** 
  81:Generated_Source\PSoC4/CapSense_CSD_CSHL.c **** uint16 CapSense_CSD_negativeNoiseThreshold[] = {
  82:Generated_Source\PSoC4/CapSense_CSD_CSHL.c ****     20u, 20u, 20u, 20u, 20u, 20u, 20u, 20u, 20u, 20u, 20u, 20u, 20u, 
  83:Generated_Source\PSoC4/CapSense_CSD_CSHL.c **** };
  84:Generated_Source\PSoC4/CapSense_CSD_CSHL.c **** 
  85:Generated_Source\PSoC4/CapSense_CSD_CSHL.c **** uint16 CapSense_CSD_hysteresis[] = {
  86:Generated_Source\PSoC4/CapSense_CSD_CSHL.c ****     10u, 10u, 10u, 10u, 10u, 10u, 10u, 10u, 10u, 10u, 10u, 10u, 10u, 
  87:Generated_Source\PSoC4/CapSense_CSD_CSHL.c **** };
  88:Generated_Source\PSoC4/CapSense_CSD_CSHL.c **** 
  89:Generated_Source\PSoC4/CapSense_CSD_CSHL.c **** uint8 CapSense_CSD_debounce[] = {
  90:Generated_Source\PSoC4/CapSense_CSD_CSHL.c ****     20u, 20u, 20u, 20u, 20u, 20u, 20u, 20u, 20u, 20u, 20u, 20u, 20u, 
  91:Generated_Source\PSoC4/CapSense_CSD_CSHL.c **** };
  92:Generated_Source\PSoC4/CapSense_CSD_CSHL.c **** 
  93:Generated_Source\PSoC4/CapSense_CSD_CSHL.c **** static uint8 CapSense_CSD_debounceCounter[] = {
  94:Generated_Source\PSoC4/CapSense_CSD_CSHL.c ****     0u, 0u, 0u, 0u, 0u, 0u, 0u, 0u, 0u, 0u, 0u, 0u, 0u, 0u, 
  95:Generated_Source\PSoC4/CapSense_CSD_CSHL.c **** };
  96:Generated_Source\PSoC4/CapSense_CSD_CSHL.c **** 
  97:Generated_Source\PSoC4/CapSense_CSD_CSHL.c **** const uint8 CapSense_CSD_rawDataIndex[] = {
  98:Generated_Source\PSoC4/CapSense_CSD_CSHL.c ****     0u, /* Button0__BTN */
  99:Generated_Source\PSoC4/CapSense_CSD_CSHL.c ****     1u, /* Button1__BTN */
 100:Generated_Source\PSoC4/CapSense_CSD_CSHL.c ****     2u, /* Button2__BTN */
 101:Generated_Source\PSoC4/CapSense_CSD_CSHL.c ****     3u, /* Button3__BTN */
 102:Generated_Source\PSoC4/CapSense_CSD_CSHL.c ****     4u, /* Button4__BTN */
 103:Generated_Source\PSoC4/CapSense_CSD_CSHL.c ****     5u, /* Button5__BTN */
 104:Generated_Source\PSoC4/CapSense_CSD_CSHL.c ****     6u, /* Button6__BTN */
 105:Generated_Source\PSoC4/CapSense_CSD_CSHL.c ****     7u, /* Button7__BTN */
 106:Generated_Source\PSoC4/CapSense_CSD_CSHL.c ****     8u, /* Button8__BTN */
 107:Generated_Source\PSoC4/CapSense_CSD_CSHL.c ****     9u, /* Button9__BTN */
 108:Generated_Source\PSoC4/CapSense_CSD_CSHL.c ****     10u, /* Button10__BTN */
 109:Generated_Source\PSoC4/CapSense_CSD_CSHL.c ****     11u, /* Button11__BTN */
 110:Generated_Source\PSoC4/CapSense_CSD_CSHL.c ****     12u, /* Button12__BTN */
 111:Generated_Source\PSoC4/CapSense_CSD_CSHL.c **** };
 112:Generated_Source\PSoC4/CapSense_CSD_CSHL.c **** 
 113:Generated_Source\PSoC4/CapSense_CSD_CSHL.c **** const uint8 CapSense_CSD_numberOfSensors[] = {
 114:Generated_Source\PSoC4/CapSense_CSD_CSHL.c ****     1u, /* Button0__BTN */
 115:Generated_Source\PSoC4/CapSense_CSD_CSHL.c ****     1u, /* Button1__BTN */
 116:Generated_Source\PSoC4/CapSense_CSD_CSHL.c ****     1u, /* Button2__BTN */
 117:Generated_Source\PSoC4/CapSense_CSD_CSHL.c ****     1u, /* Button3__BTN */
 118:Generated_Source\PSoC4/CapSense_CSD_CSHL.c ****     1u, /* Button4__BTN */
ARM GAS  C:\Users\SHOZO\AppData\Local\Temp\ccGGKGa0.s 			page 7


 119:Generated_Source\PSoC4/CapSense_CSD_CSHL.c ****     1u, /* Button5__BTN */
 120:Generated_Source\PSoC4/CapSense_CSD_CSHL.c ****     1u, /* Button6__BTN */
 121:Generated_Source\PSoC4/CapSense_CSD_CSHL.c ****     1u, /* Button7__BTN */
 122:Generated_Source\PSoC4/CapSense_CSD_CSHL.c ****     1u, /* Button8__BTN */
 123:Generated_Source\PSoC4/CapSense_CSD_CSHL.c ****     1u, /* Button9__BTN */
 124:Generated_Source\PSoC4/CapSense_CSD_CSHL.c ****     1u, /* Button10__BTN */
 125:Generated_Source\PSoC4/CapSense_CSD_CSHL.c ****     1u, /* Button11__BTN */
 126:Generated_Source\PSoC4/CapSense_CSD_CSHL.c ****     1u, /* Button12__BTN */
 127:Generated_Source\PSoC4/CapSense_CSD_CSHL.c **** };
 128:Generated_Source\PSoC4/CapSense_CSD_CSHL.c **** 
 129:Generated_Source\PSoC4/CapSense_CSD_CSHL.c **** 
 130:Generated_Source\PSoC4/CapSense_CSD_CSHL.c **** 
 131:Generated_Source\PSoC4/CapSense_CSD_CSHL.c **** 
 132:Generated_Source\PSoC4/CapSense_CSD_CSHL.c **** /*******************************************************************************
 133:Generated_Source\PSoC4/CapSense_CSD_CSHL.c **** * Function Name: CapSense_CSD_BaseInit
 134:Generated_Source\PSoC4/CapSense_CSD_CSHL.c **** ********************************************************************************
 135:Generated_Source\PSoC4/CapSense_CSD_CSHL.c **** *
 136:Generated_Source\PSoC4/CapSense_CSD_CSHL.c **** * Summary:
 137:Generated_Source\PSoC4/CapSense_CSD_CSHL.c **** *  Loads the CapSense_CSD_sensorBaseline[sensor] array element with an
 138:Generated_Source\PSoC4/CapSense_CSD_CSHL.c **** *  initial value which is equal to the raw count value.
 139:Generated_Source\PSoC4/CapSense_CSD_CSHL.c **** *  Resets to zero CapSense_CSD_sensorBaselineLow[sensor] and
 140:Generated_Source\PSoC4/CapSense_CSD_CSHL.c **** *  CapSense_CSD_sensorSignal[sensor] array element.
 141:Generated_Source\PSoC4/CapSense_CSD_CSHL.c **** *  Loads the CapSense_CSD_rawFilterData2[sensor] and
 142:Generated_Source\PSoC4/CapSense_CSD_CSHL.c **** *  CapSense_CSD_rawFilterData2[sensor] array element with an
 143:Generated_Source\PSoC4/CapSense_CSD_CSHL.c **** *  initial value which is equal to the raw count value if the raw data filter is enabled.
 144:Generated_Source\PSoC4/CapSense_CSD_CSHL.c **** *
 145:Generated_Source\PSoC4/CapSense_CSD_CSHL.c **** * Parameters:
 146:Generated_Source\PSoC4/CapSense_CSD_CSHL.c **** *  sensor:  Sensor number.
 147:Generated_Source\PSoC4/CapSense_CSD_CSHL.c **** *
 148:Generated_Source\PSoC4/CapSense_CSD_CSHL.c **** * Return:
 149:Generated_Source\PSoC4/CapSense_CSD_CSHL.c **** *  None
 150:Generated_Source\PSoC4/CapSense_CSD_CSHL.c **** *
 151:Generated_Source\PSoC4/CapSense_CSD_CSHL.c **** * Global Variables:
 152:Generated_Source\PSoC4/CapSense_CSD_CSHL.c **** *  CapSense_CSD_sensorBaseline[]    - used to store the baseline value.
 153:Generated_Source\PSoC4/CapSense_CSD_CSHL.c **** *  CapSense_CSD_sensorBaselineLow[] - used to store the fraction byte of
 154:Generated_Source\PSoC4/CapSense_CSD_CSHL.c **** *  the baseline value.
 155:Generated_Source\PSoC4/CapSense_CSD_CSHL.c **** *  CapSense_CSD_sensorSignal[]      - used to store a difference between
 156:Generated_Source\PSoC4/CapSense_CSD_CSHL.c **** *  the current value of raw data and the previous value of the baseline.
 157:Generated_Source\PSoC4/CapSense_CSD_CSHL.c **** *  CapSense_CSD_rawFilterData1[]    - used to store a previous sample of
 158:Generated_Source\PSoC4/CapSense_CSD_CSHL.c **** *  any enabled raw data filter.
 159:Generated_Source\PSoC4/CapSense_CSD_CSHL.c **** *  CapSense_CSD_rawFilterData2[]    - used to store before a previous sample
 160:Generated_Source\PSoC4/CapSense_CSD_CSHL.c **** *  of the enabled raw data filter. Required only for median or average filters.
 161:Generated_Source\PSoC4/CapSense_CSD_CSHL.c **** *
 162:Generated_Source\PSoC4/CapSense_CSD_CSHL.c **** * Side Effects:
 163:Generated_Source\PSoC4/CapSense_CSD_CSHL.c **** *  None
 164:Generated_Source\PSoC4/CapSense_CSD_CSHL.c **** *
 165:Generated_Source\PSoC4/CapSense_CSD_CSHL.c **** *******************************************************************************/
 166:Generated_Source\PSoC4/CapSense_CSD_CSHL.c **** void CapSense_CSD_BaseInit(uint32 sensor)
 167:Generated_Source\PSoC4/CapSense_CSD_CSHL.c **** {
 211              		.loc 1 167 0
 212              		.cfi_startproc
 213              		@ args = 0, pretend = 0, frame = 16
 214              		@ frame_needed = 1, uses_anonymous_args = 0
 215 0000 80B5     		push	{r7, lr}
 216              		.cfi_def_cfa_offset 8
 217              		.cfi_offset 7, -8
 218              		.cfi_offset 14, -4
ARM GAS  C:\Users\SHOZO\AppData\Local\Temp\ccGGKGa0.s 			page 8


 219 0002 84B0     		sub	sp, sp, #16
 220              		.cfi_def_cfa_offset 24
 221 0004 00AF     		add	r7, sp, #0
 222              		.cfi_def_cfa_register 7
 223 0006 7860     		str	r0, [r7, #4]
 168:Generated_Source\PSoC4/CapSense_CSD_CSHL.c ****     #if ((CapSense_CSD_TOTAL_BUTTONS_COUNT) || (CapSense_CSD_TOTAL_MATRIX_BUTTONS_COUNT) || \
 169:Generated_Source\PSoC4/CapSense_CSD_CSHL.c ****          (CapSense_CSD_TOTAL_GENERICS_COUNT))
 170:Generated_Source\PSoC4/CapSense_CSD_CSHL.c ****         uint8 widget = CapSense_CSD_widgetNumber[sensor];
 224              		.loc 1 170 0
 225 0008 0F23     		movs	r3, #15
 226 000a FB18     		adds	r3, r7, r3
 227 000c 1A49     		ldr	r1, .L2
 228 000e 7A68     		ldr	r2, [r7, #4]
 229 0010 8A18     		adds	r2, r1, r2
 230 0012 1278     		ldrb	r2, [r2]
 231 0014 1A70     		strb	r2, [r3]
 171:Generated_Source\PSoC4/CapSense_CSD_CSHL.c ****     #endif /* ((CapSense_CSD_TOTAL_MATRIX_BUTTONS_COUNT) || (CapSense_CSD_TOTAL_MATRIX_BUTTONS_COUN
 172:Generated_Source\PSoC4/CapSense_CSD_CSHL.c **** 
 173:Generated_Source\PSoC4/CapSense_CSD_CSHL.c ****     #if (CapSense_CSD_TOTAL_MATRIX_BUTTONS_COUNT)
 174:Generated_Source\PSoC4/CapSense_CSD_CSHL.c ****         uint8 debounceIndex;
 175:Generated_Source\PSoC4/CapSense_CSD_CSHL.c ****     #endif  /* (CapSense_CSD_TOTAL_MATRIX_BUTTONS_COUNT) */
 176:Generated_Source\PSoC4/CapSense_CSD_CSHL.c **** 
 177:Generated_Source\PSoC4/CapSense_CSD_CSHL.c ****     #if (CapSense_CSD_TOTAL_GENERICS_COUNT)
 178:Generated_Source\PSoC4/CapSense_CSD_CSHL.c ****         /* Exclude generic widget */
 179:Generated_Source\PSoC4/CapSense_CSD_CSHL.c ****         if(widget < CapSense_CSD_END_OF_WIDGETS_INDEX)
 180:Generated_Source\PSoC4/CapSense_CSD_CSHL.c ****         {
 181:Generated_Source\PSoC4/CapSense_CSD_CSHL.c ****     #endif  /* CapSense_CSD_TOTAL_GENERICS_COUNT */
 182:Generated_Source\PSoC4/CapSense_CSD_CSHL.c **** 
 183:Generated_Source\PSoC4/CapSense_CSD_CSHL.c ****     /* Initialize Baseline */
 184:Generated_Source\PSoC4/CapSense_CSD_CSHL.c ****     CapSense_CSD_sensorBaseline[sensor] = CapSense_CSD_sensorRaw[sensor];
 232              		.loc 1 184 0
 233 0016 194B     		ldr	r3, .L2+4
 234 0018 7A68     		ldr	r2, [r7, #4]
 235 001a 5200     		lsls	r2, r2, #1
 236 001c D15A     		ldrh	r1, [r2, r3]
 237 001e 184B     		ldr	r3, .L2+8
 238 0020 7A68     		ldr	r2, [r7, #4]
 239 0022 5200     		lsls	r2, r2, #1
 240 0024 D152     		strh	r1, [r2, r3]
 185:Generated_Source\PSoC4/CapSense_CSD_CSHL.c ****     CapSense_CSD_sensorBaselineLow[sensor] = 0u;
 241              		.loc 1 185 0
 242 0026 174A     		ldr	r2, .L2+12
 243 0028 7B68     		ldr	r3, [r7, #4]
 244 002a D318     		adds	r3, r2, r3
 245 002c 0022     		movs	r2, #0
 246 002e 1A70     		strb	r2, [r3]
 186:Generated_Source\PSoC4/CapSense_CSD_CSHL.c ****     CapSense_CSD_sensorSignal[sensor] = 0u;
 247              		.loc 1 186 0
 248 0030 154B     		ldr	r3, .L2+16
 249 0032 7A68     		ldr	r2, [r7, #4]
 250 0034 5200     		lsls	r2, r2, #1
 251 0036 0021     		movs	r1, #0
 252 0038 D152     		strh	r1, [r2, r3]
 187:Generated_Source\PSoC4/CapSense_CSD_CSHL.c **** 
 188:Generated_Source\PSoC4/CapSense_CSD_CSHL.c ****     CapSense_CSD_debounceCounter[widget] =  CapSense_CSD_debounce[widget];
 253              		.loc 1 188 0
 254 003a 0F23     		movs	r3, #15
ARM GAS  C:\Users\SHOZO\AppData\Local\Temp\ccGGKGa0.s 			page 9


 255 003c FB18     		adds	r3, r7, r3
 256 003e 1B78     		ldrb	r3, [r3]
 257 0040 0F22     		movs	r2, #15
 258 0042 BA18     		adds	r2, r7, r2
 259 0044 1278     		ldrb	r2, [r2]
 260 0046 1149     		ldr	r1, .L2+20
 261 0048 895C     		ldrb	r1, [r1, r2]
 262 004a 114A     		ldr	r2, .L2+24
 263 004c D154     		strb	r1, [r2, r3]
 189:Generated_Source\PSoC4/CapSense_CSD_CSHL.c **** 
 190:Generated_Source\PSoC4/CapSense_CSD_CSHL.c **** 
 191:Generated_Source\PSoC4/CapSense_CSD_CSHL.c ****     #if ((0u != (CapSense_CSD_RAW_FILTER_MASK & CapSense_CSD_MEDIAN_FILTER)) ||\
 192:Generated_Source\PSoC4/CapSense_CSD_CSHL.c ****          (0u != (CapSense_CSD_RAW_FILTER_MASK & CapSense_CSD_AVERAGING_FILTER)))
 193:Generated_Source\PSoC4/CapSense_CSD_CSHL.c **** 
 194:Generated_Source\PSoC4/CapSense_CSD_CSHL.c ****         CapSense_CSD_rawFilterData1[sensor] = CapSense_CSD_sensorRaw[sensor];
 264              		.loc 1 194 0
 265 004e 0B4B     		ldr	r3, .L2+4
 266 0050 7A68     		ldr	r2, [r7, #4]
 267 0052 5200     		lsls	r2, r2, #1
 268 0054 D15A     		ldrh	r1, [r2, r3]
 269 0056 0F4B     		ldr	r3, .L2+28
 270 0058 7A68     		ldr	r2, [r7, #4]
 271 005a 5200     		lsls	r2, r2, #1
 272 005c D152     		strh	r1, [r2, r3]
 195:Generated_Source\PSoC4/CapSense_CSD_CSHL.c ****         CapSense_CSD_rawFilterData2[sensor] = CapSense_CSD_sensorRaw[sensor];
 273              		.loc 1 195 0
 274 005e 074B     		ldr	r3, .L2+4
 275 0060 7A68     		ldr	r2, [r7, #4]
 276 0062 5200     		lsls	r2, r2, #1
 277 0064 D15A     		ldrh	r1, [r2, r3]
 278 0066 0C4B     		ldr	r3, .L2+32
 279 0068 7A68     		ldr	r2, [r7, #4]
 280 006a 5200     		lsls	r2, r2, #1
 281 006c D152     		strh	r1, [r2, r3]
 196:Generated_Source\PSoC4/CapSense_CSD_CSHL.c **** 
 197:Generated_Source\PSoC4/CapSense_CSD_CSHL.c ****     #elif ((CapSense_CSD_RAW_FILTER_MASK & CapSense_CSD_IIR2_FILTER) ||\
 198:Generated_Source\PSoC4/CapSense_CSD_CSHL.c ****            (CapSense_CSD_RAW_FILTER_MASK & CapSense_CSD_IIR4_FILTER) ||\
 199:Generated_Source\PSoC4/CapSense_CSD_CSHL.c ****            (CapSense_CSD_RAW_FILTER_MASK & CapSense_CSD_JITTER_FILTER) ||\
 200:Generated_Source\PSoC4/CapSense_CSD_CSHL.c ****            (CapSense_CSD_RAW_FILTER_MASK & CapSense_CSD_IIR8_FILTER) ||\
 201:Generated_Source\PSoC4/CapSense_CSD_CSHL.c ****            (CapSense_CSD_RAW_FILTER_MASK & CapSense_CSD_IIR16_FILTER))
 202:Generated_Source\PSoC4/CapSense_CSD_CSHL.c **** 
 203:Generated_Source\PSoC4/CapSense_CSD_CSHL.c ****         CapSense_CSD_rawFilterData1[sensor] = CapSense_CSD_sensorRaw[sensor];
 204:Generated_Source\PSoC4/CapSense_CSD_CSHL.c **** 
 205:Generated_Source\PSoC4/CapSense_CSD_CSHL.c ****     #else
 206:Generated_Source\PSoC4/CapSense_CSD_CSHL.c ****         /* No Raw filters */
 207:Generated_Source\PSoC4/CapSense_CSD_CSHL.c ****     #endif  /* ((CapSense_CSD_RAW_FILTER_MASK & CapSense_CSD_MEDIAN_FILTER) || \
 208:Generated_Source\PSoC4/CapSense_CSD_CSHL.c ****             *   (CapSense_CSD_RAW_FILTER_MASK & CapSense_CSD_AVERAGING_FILTER))
 209:Generated_Source\PSoC4/CapSense_CSD_CSHL.c ****             */
 210:Generated_Source\PSoC4/CapSense_CSD_CSHL.c **** 
 211:Generated_Source\PSoC4/CapSense_CSD_CSHL.c ****     #if (CapSense_CSD_TOTAL_GENERICS_COUNT)
 212:Generated_Source\PSoC4/CapSense_CSD_CSHL.c ****         /* Exclude generic widget */
 213:Generated_Source\PSoC4/CapSense_CSD_CSHL.c ****         }
 214:Generated_Source\PSoC4/CapSense_CSD_CSHL.c ****     #endif  /* CapSense_CSD_TOTAL_GENERICS_COUNT */
 215:Generated_Source\PSoC4/CapSense_CSD_CSHL.c **** }
 282              		.loc 1 215 0
 283 006e C046     		nop
 284 0070 BD46     		mov	sp, r7
ARM GAS  C:\Users\SHOZO\AppData\Local\Temp\ccGGKGa0.s 			page 10


 285 0072 04B0     		add	sp, sp, #16
 286              		@ sp needed
 287 0074 80BD     		pop	{r7, pc}
 288              	.L3:
 289 0076 C046     		.align	2
 290              	.L2:
 291 0078 00000000 		.word	CapSense_CSD_widgetNumber
 292 007c 00000000 		.word	CapSense_CSD_sensorRaw
 293 0080 00000000 		.word	CapSense_CSD_sensorBaseline
 294 0084 00000000 		.word	CapSense_CSD_sensorBaselineLow
 295 0088 00000000 		.word	CapSense_CSD_sensorSignal
 296 008c 00000000 		.word	CapSense_CSD_debounce
 297 0090 4C000000 		.word	CapSense_CSD_debounceCounter
 298 0094 00000000 		.word	CapSense_CSD_rawFilterData1
 299 0098 00000000 		.word	CapSense_CSD_rawFilterData2
 300              		.cfi_endproc
 301              	.LFE32:
 302              		.size	CapSense_CSD_BaseInit, .-CapSense_CSD_BaseInit
 303              		.section	.text.CapSense_CSD_InitializeSensorBaseline,"ax",%progbits
 304              		.align	2
 305              		.global	CapSense_CSD_InitializeSensorBaseline
 306              		.code	16
 307              		.thumb_func
 308              		.type	CapSense_CSD_InitializeSensorBaseline, %function
 309              	CapSense_CSD_InitializeSensorBaseline:
 310              	.LFB33:
 216:Generated_Source\PSoC4/CapSense_CSD_CSHL.c **** 
 217:Generated_Source\PSoC4/CapSense_CSD_CSHL.c **** 
 218:Generated_Source\PSoC4/CapSense_CSD_CSHL.c **** /*******************************************************************************
 219:Generated_Source\PSoC4/CapSense_CSD_CSHL.c **** * Function Name: CapSense_CSD_InitializeSensorBaseline
 220:Generated_Source\PSoC4/CapSense_CSD_CSHL.c **** ********************************************************************************
 221:Generated_Source\PSoC4/CapSense_CSD_CSHL.c **** *
 222:Generated_Source\PSoC4/CapSense_CSD_CSHL.c **** * Summary:
 223:Generated_Source\PSoC4/CapSense_CSD_CSHL.c **** *  Loads the CapSense_CSD_sensorBaseline[sensor] array element with an
 224:Generated_Source\PSoC4/CapSense_CSD_CSHL.c **** *  initial value by scanning the selected sensor (one channel design) or a pair
 225:Generated_Source\PSoC4/CapSense_CSD_CSHL.c **** *  of sensors (two channels designs). The raw count value is copied into the
 226:Generated_Source\PSoC4/CapSense_CSD_CSHL.c **** *  baseline array for each sensor. The raw data filters are initialized if
 227:Generated_Source\PSoC4/CapSense_CSD_CSHL.c **** *  enabled.
 228:Generated_Source\PSoC4/CapSense_CSD_CSHL.c **** *
 229:Generated_Source\PSoC4/CapSense_CSD_CSHL.c **** * Parameters:
 230:Generated_Source\PSoC4/CapSense_CSD_CSHL.c **** *  sensor:  Sensor number.
 231:Generated_Source\PSoC4/CapSense_CSD_CSHL.c **** *
 232:Generated_Source\PSoC4/CapSense_CSD_CSHL.c **** * Return:
 233:Generated_Source\PSoC4/CapSense_CSD_CSHL.c **** *  None
 234:Generated_Source\PSoC4/CapSense_CSD_CSHL.c **** *
 235:Generated_Source\PSoC4/CapSense_CSD_CSHL.c **** * Global Variables:
 236:Generated_Source\PSoC4/CapSense_CSD_CSHL.c **** *  None
 237:Generated_Source\PSoC4/CapSense_CSD_CSHL.c **** *
 238:Generated_Source\PSoC4/CapSense_CSD_CSHL.c **** * Side Effects:
 239:Generated_Source\PSoC4/CapSense_CSD_CSHL.c **** *  None
 240:Generated_Source\PSoC4/CapSense_CSD_CSHL.c **** *
 241:Generated_Source\PSoC4/CapSense_CSD_CSHL.c **** *******************************************************************************/
 242:Generated_Source\PSoC4/CapSense_CSD_CSHL.c **** void CapSense_CSD_InitializeSensorBaseline(uint32 sensor)
 243:Generated_Source\PSoC4/CapSense_CSD_CSHL.c **** {
 311              		.loc 1 243 0
 312              		.cfi_startproc
 313              		@ args = 0, pretend = 0, frame = 8
ARM GAS  C:\Users\SHOZO\AppData\Local\Temp\ccGGKGa0.s 			page 11


 314              		@ frame_needed = 1, uses_anonymous_args = 0
 315 0000 80B5     		push	{r7, lr}
 316              		.cfi_def_cfa_offset 8
 317              		.cfi_offset 7, -8
 318              		.cfi_offset 14, -4
 319 0002 82B0     		sub	sp, sp, #8
 320              		.cfi_def_cfa_offset 16
 321 0004 00AF     		add	r7, sp, #0
 322              		.cfi_def_cfa_register 7
 323 0006 7860     		str	r0, [r7, #4]
 244:Generated_Source\PSoC4/CapSense_CSD_CSHL.c ****     /* Scan sensor */
 245:Generated_Source\PSoC4/CapSense_CSD_CSHL.c ****     CapSense_CSD_ScanSensor(sensor);
 324              		.loc 1 245 0
 325 0008 7B68     		ldr	r3, [r7, #4]
 326 000a 1800     		movs	r0, r3
 327 000c FFF7FEFF 		bl	CapSense_CSD_ScanSensor
 246:Generated_Source\PSoC4/CapSense_CSD_CSHL.c ****     while(CapSense_CSD_IsBusy() != 0u)
 328              		.loc 1 246 0
 329 0010 C046     		nop
 330              	.L5:
 331              		.loc 1 246 0 is_stmt 0 discriminator 1
 332 0012 FFF7FEFF 		bl	CapSense_CSD_IsBusy
 333 0016 031E     		subs	r3, r0, #0
 334 0018 FBD1     		bne	.L5
 247:Generated_Source\PSoC4/CapSense_CSD_CSHL.c ****     {
 248:Generated_Source\PSoC4/CapSense_CSD_CSHL.c ****         /* Wait while sensor is busy */
 249:Generated_Source\PSoC4/CapSense_CSD_CSHL.c ****     }
 250:Generated_Source\PSoC4/CapSense_CSD_CSHL.c **** 
 251:Generated_Source\PSoC4/CapSense_CSD_CSHL.c ****     /* Initialize Baseline, Signal and debounce counters */
 252:Generated_Source\PSoC4/CapSense_CSD_CSHL.c ****     CapSense_CSD_BaseInit(sensor);
 335              		.loc 1 252 0 is_stmt 1
 336 001a 7B68     		ldr	r3, [r7, #4]
 337 001c 1800     		movs	r0, r3
 338 001e FFF7FEFF 		bl	CapSense_CSD_BaseInit
 253:Generated_Source\PSoC4/CapSense_CSD_CSHL.c **** }
 339              		.loc 1 253 0
 340 0022 C046     		nop
 341 0024 BD46     		mov	sp, r7
 342 0026 02B0     		add	sp, sp, #8
 343              		@ sp needed
 344 0028 80BD     		pop	{r7, pc}
 345              		.cfi_endproc
 346              	.LFE33:
 347              		.size	CapSense_CSD_InitializeSensorBaseline, .-CapSense_CSD_InitializeSensorBaseline
 348 002a C046     		.section	.text.CapSense_CSD_InitializeAllBaselines,"ax",%progbits
 349              		.align	2
 350              		.global	CapSense_CSD_InitializeAllBaselines
 351              		.code	16
 352              		.thumb_func
 353              		.type	CapSense_CSD_InitializeAllBaselines, %function
 354              	CapSense_CSD_InitializeAllBaselines:
 355              	.LFB34:
 254:Generated_Source\PSoC4/CapSense_CSD_CSHL.c **** 
 255:Generated_Source\PSoC4/CapSense_CSD_CSHL.c **** 
 256:Generated_Source\PSoC4/CapSense_CSD_CSHL.c **** /*******************************************************************************
 257:Generated_Source\PSoC4/CapSense_CSD_CSHL.c **** * Function Name: CapSense_CSD_InitializeAllBaselines
 258:Generated_Source\PSoC4/CapSense_CSD_CSHL.c **** ********************************************************************************
ARM GAS  C:\Users\SHOZO\AppData\Local\Temp\ccGGKGa0.s 			page 12


 259:Generated_Source\PSoC4/CapSense_CSD_CSHL.c **** *
 260:Generated_Source\PSoC4/CapSense_CSD_CSHL.c **** * Summary:
 261:Generated_Source\PSoC4/CapSense_CSD_CSHL.c **** *  Uses the CapSense_CSD_InitializeSensorBaseline function to load the
 262:Generated_Source\PSoC4/CapSense_CSD_CSHL.c **** *  CapSense_CSD_sensorBaseline[] array with an initial values by scanning
 263:Generated_Source\PSoC4/CapSense_CSD_CSHL.c **** *  all the sensors. The raw count values are copied into the baseline array for
 264:Generated_Source\PSoC4/CapSense_CSD_CSHL.c **** *  all the sensors. The raw data filters are initialized if enabled.
 265:Generated_Source\PSoC4/CapSense_CSD_CSHL.c **** *
 266:Generated_Source\PSoC4/CapSense_CSD_CSHL.c **** * Parameters:
 267:Generated_Source\PSoC4/CapSense_CSD_CSHL.c **** *  None
 268:Generated_Source\PSoC4/CapSense_CSD_CSHL.c **** *
 269:Generated_Source\PSoC4/CapSense_CSD_CSHL.c **** * Return:
 270:Generated_Source\PSoC4/CapSense_CSD_CSHL.c **** *  None
 271:Generated_Source\PSoC4/CapSense_CSD_CSHL.c **** *
 272:Generated_Source\PSoC4/CapSense_CSD_CSHL.c **** * Global Variables:
 273:Generated_Source\PSoC4/CapSense_CSD_CSHL.c **** *  None
 274:Generated_Source\PSoC4/CapSense_CSD_CSHL.c **** *
 275:Generated_Source\PSoC4/CapSense_CSD_CSHL.c **** * Side Effects:
 276:Generated_Source\PSoC4/CapSense_CSD_CSHL.c **** *  None
 277:Generated_Source\PSoC4/CapSense_CSD_CSHL.c **** *
 278:Generated_Source\PSoC4/CapSense_CSD_CSHL.c **** *******************************************************************************/
 279:Generated_Source\PSoC4/CapSense_CSD_CSHL.c **** void CapSense_CSD_InitializeAllBaselines(void)
 280:Generated_Source\PSoC4/CapSense_CSD_CSHL.c **** {
 356              		.loc 1 280 0
 357              		.cfi_startproc
 358              		@ args = 0, pretend = 0, frame = 8
 359              		@ frame_needed = 1, uses_anonymous_args = 0
 360 0000 80B5     		push	{r7, lr}
 361              		.cfi_def_cfa_offset 8
 362              		.cfi_offset 7, -8
 363              		.cfi_offset 14, -4
 364 0002 82B0     		sub	sp, sp, #8
 365              		.cfi_def_cfa_offset 16
 366 0004 00AF     		add	r7, sp, #0
 367              		.cfi_def_cfa_register 7
 281:Generated_Source\PSoC4/CapSense_CSD_CSHL.c ****     uint32 i;
 282:Generated_Source\PSoC4/CapSense_CSD_CSHL.c **** 
 283:Generated_Source\PSoC4/CapSense_CSD_CSHL.c ****     for(i = 0u; i < CapSense_CSD_TOTAL_SCANSLOT_COUNT; i++)
 368              		.loc 1 283 0
 369 0006 0023     		movs	r3, #0
 370 0008 7B60     		str	r3, [r7, #4]
 371 000a 06E0     		b	.L7
 372              	.L8:
 284:Generated_Source\PSoC4/CapSense_CSD_CSHL.c ****     {
 285:Generated_Source\PSoC4/CapSense_CSD_CSHL.c ****         CapSense_CSD_InitializeSensorBaseline(i);
 373              		.loc 1 285 0 discriminator 3
 374 000c 7B68     		ldr	r3, [r7, #4]
 375 000e 1800     		movs	r0, r3
 376 0010 FFF7FEFF 		bl	CapSense_CSD_InitializeSensorBaseline
 283:Generated_Source\PSoC4/CapSense_CSD_CSHL.c ****     {
 377              		.loc 1 283 0 discriminator 3
 378 0014 7B68     		ldr	r3, [r7, #4]
 379 0016 0133     		adds	r3, r3, #1
 380 0018 7B60     		str	r3, [r7, #4]
 381              	.L7:
 283:Generated_Source\PSoC4/CapSense_CSD_CSHL.c ****     {
 382              		.loc 1 283 0 is_stmt 0 discriminator 1
 383 001a 7B68     		ldr	r3, [r7, #4]
ARM GAS  C:\Users\SHOZO\AppData\Local\Temp\ccGGKGa0.s 			page 13


 384 001c 0C2B     		cmp	r3, #12
 385 001e F5D9     		bls	.L8
 286:Generated_Source\PSoC4/CapSense_CSD_CSHL.c ****     }
 287:Generated_Source\PSoC4/CapSense_CSD_CSHL.c **** }
 386              		.loc 1 287 0 is_stmt 1
 387 0020 C046     		nop
 388 0022 BD46     		mov	sp, r7
 389 0024 02B0     		add	sp, sp, #8
 390              		@ sp needed
 391 0026 80BD     		pop	{r7, pc}
 392              		.cfi_endproc
 393              	.LFE34:
 394              		.size	CapSense_CSD_InitializeAllBaselines, .-CapSense_CSD_InitializeAllBaselines
 395              		.section	.text.CapSense_CSD_InitializeEnabledBaselines,"ax",%progbits
 396              		.align	2
 397              		.global	CapSense_CSD_InitializeEnabledBaselines
 398              		.code	16
 399              		.thumb_func
 400              		.type	CapSense_CSD_InitializeEnabledBaselines, %function
 401              	CapSense_CSD_InitializeEnabledBaselines:
 402              	.LFB35:
 288:Generated_Source\PSoC4/CapSense_CSD_CSHL.c **** 
 289:Generated_Source\PSoC4/CapSense_CSD_CSHL.c **** 
 290:Generated_Source\PSoC4/CapSense_CSD_CSHL.c **** /*******************************************************************************
 291:Generated_Source\PSoC4/CapSense_CSD_CSHL.c **** * Function Name: CapSense_CSD_InitializeEnabledBaselines
 292:Generated_Source\PSoC4/CapSense_CSD_CSHL.c **** ********************************************************************************
 293:Generated_Source\PSoC4/CapSense_CSD_CSHL.c **** *
 294:Generated_Source\PSoC4/CapSense_CSD_CSHL.c **** * Summary:
 295:Generated_Source\PSoC4/CapSense_CSD_CSHL.c **** *  Scans all the enabled widgets and the raw count values are copied into the
 296:Generated_Source\PSoC4/CapSense_CSD_CSHL.c **** *  baseline array for all the sensors enabled in the scanning process. The baselines
 297:Generated_Source\PSoC4/CapSense_CSD_CSHL.c **** *  are initialized with zero values for sensors disabled from the scanning process.
 298:Generated_Source\PSoC4/CapSense_CSD_CSHL.c **** *  The raw data filters are initialized if enabled.
 299:Generated_Source\PSoC4/CapSense_CSD_CSHL.c **** *
 300:Generated_Source\PSoC4/CapSense_CSD_CSHL.c **** * Parameters:
 301:Generated_Source\PSoC4/CapSense_CSD_CSHL.c **** *  None
 302:Generated_Source\PSoC4/CapSense_CSD_CSHL.c **** *
 303:Generated_Source\PSoC4/CapSense_CSD_CSHL.c **** * Return:
 304:Generated_Source\PSoC4/CapSense_CSD_CSHL.c **** *  None
 305:Generated_Source\PSoC4/CapSense_CSD_CSHL.c **** *
 306:Generated_Source\PSoC4/CapSense_CSD_CSHL.c **** * Global Variables:
 307:Generated_Source\PSoC4/CapSense_CSD_CSHL.c **** *  CapSense_CSD_sensorRaw[] - used to store the sensors raw data.
 308:Generated_Source\PSoC4/CapSense_CSD_CSHL.c **** *  CapSense_CSD_sensorEnableMask[ ] - used to store bit masks of the enabled sensors.
 309:Generated_Source\PSoC4/CapSense_CSD_CSHL.c **** *
 310:Generated_Source\PSoC4/CapSense_CSD_CSHL.c **** * Side Effects:
 311:Generated_Source\PSoC4/CapSense_CSD_CSHL.c **** *  None
 312:Generated_Source\PSoC4/CapSense_CSD_CSHL.c **** *
 313:Generated_Source\PSoC4/CapSense_CSD_CSHL.c **** *******************************************************************************/
 314:Generated_Source\PSoC4/CapSense_CSD_CSHL.c **** void CapSense_CSD_InitializeEnabledBaselines(void)
 315:Generated_Source\PSoC4/CapSense_CSD_CSHL.c **** {
 403              		.loc 1 315 0
 404              		.cfi_startproc
 405              		@ args = 0, pretend = 0, frame = 8
 406              		@ frame_needed = 1, uses_anonymous_args = 0
 407 0000 80B5     		push	{r7, lr}
 408              		.cfi_def_cfa_offset 8
 409              		.cfi_offset 7, -8
 410              		.cfi_offset 14, -4
ARM GAS  C:\Users\SHOZO\AppData\Local\Temp\ccGGKGa0.s 			page 14


 411 0002 82B0     		sub	sp, sp, #8
 412              		.cfi_def_cfa_offset 16
 413 0004 00AF     		add	r7, sp, #0
 414              		.cfi_def_cfa_register 7
 316:Generated_Source\PSoC4/CapSense_CSD_CSHL.c ****     uint32 i;
 317:Generated_Source\PSoC4/CapSense_CSD_CSHL.c ****     uint32 isSensorEnabled;
 318:Generated_Source\PSoC4/CapSense_CSD_CSHL.c **** 
 319:Generated_Source\PSoC4/CapSense_CSD_CSHL.c ****     CapSense_CSD_ScanEnabledWidgets();
 415              		.loc 1 319 0
 416 0006 FFF7FEFF 		bl	CapSense_CSD_ScanEnabledWidgets
 320:Generated_Source\PSoC4/CapSense_CSD_CSHL.c ****     while(CapSense_CSD_IsBusy() != 0u)
 417              		.loc 1 320 0
 418 000a C046     		nop
 419              	.L10:
 420              		.loc 1 320 0 is_stmt 0 discriminator 1
 421 000c FFF7FEFF 		bl	CapSense_CSD_IsBusy
 422 0010 031E     		subs	r3, r0, #0
 423 0012 FBD1     		bne	.L10
 321:Generated_Source\PSoC4/CapSense_CSD_CSHL.c ****     {
 322:Generated_Source\PSoC4/CapSense_CSD_CSHL.c ****         /* Wait while sensor is busy */
 323:Generated_Source\PSoC4/CapSense_CSD_CSHL.c ****     }
 324:Generated_Source\PSoC4/CapSense_CSD_CSHL.c **** 
 325:Generated_Source\PSoC4/CapSense_CSD_CSHL.c ****     for(i = 0u; i < CapSense_CSD_TOTAL_SENSOR_COUNT; i++)
 424              		.loc 1 325 0 is_stmt 1
 425 0014 0023     		movs	r3, #0
 426 0016 7B60     		str	r3, [r7, #4]
 427 0018 11E0     		b	.L11
 428              	.L13:
 326:Generated_Source\PSoC4/CapSense_CSD_CSHL.c ****     {
 327:Generated_Source\PSoC4/CapSense_CSD_CSHL.c ****         isSensorEnabled = CapSense_CSD_GetBitValue(CapSense_CSD_sensorEnableMask, i);
 429              		.loc 1 327 0
 430 001a 7A68     		ldr	r2, [r7, #4]
 431 001c 0B4B     		ldr	r3, .L14
 432 001e 1100     		movs	r1, r2
 433 0020 1800     		movs	r0, r3
 434 0022 FFF7FEFF 		bl	CapSense_CSD_GetBitValue
 435 0026 0300     		movs	r3, r0
 436 0028 3B60     		str	r3, [r7]
 328:Generated_Source\PSoC4/CapSense_CSD_CSHL.c **** 
 329:Generated_Source\PSoC4/CapSense_CSD_CSHL.c ****         /* Clear raw data if sensor is disabled from scanning process */
 330:Generated_Source\PSoC4/CapSense_CSD_CSHL.c ****         if(isSensorEnabled != 0u)
 437              		.loc 1 330 0
 438 002a 3B68     		ldr	r3, [r7]
 439 002c 002B     		cmp	r3, #0
 440 002e 03D0     		beq	.L12
 331:Generated_Source\PSoC4/CapSense_CSD_CSHL.c ****         {
 332:Generated_Source\PSoC4/CapSense_CSD_CSHL.c ****             /* Initialize baselines */
 333:Generated_Source\PSoC4/CapSense_CSD_CSHL.c ****             CapSense_CSD_BaseInit(i);
 441              		.loc 1 333 0
 442 0030 7B68     		ldr	r3, [r7, #4]
 443 0032 1800     		movs	r0, r3
 444 0034 FFF7FEFF 		bl	CapSense_CSD_BaseInit
 445              	.L12:
 325:Generated_Source\PSoC4/CapSense_CSD_CSHL.c ****     {
 446              		.loc 1 325 0 discriminator 2
 447 0038 7B68     		ldr	r3, [r7, #4]
 448 003a 0133     		adds	r3, r3, #1
ARM GAS  C:\Users\SHOZO\AppData\Local\Temp\ccGGKGa0.s 			page 15


 449 003c 7B60     		str	r3, [r7, #4]
 450              	.L11:
 325:Generated_Source\PSoC4/CapSense_CSD_CSHL.c ****     {
 451              		.loc 1 325 0 is_stmt 0 discriminator 1
 452 003e 7B68     		ldr	r3, [r7, #4]
 453 0040 0C2B     		cmp	r3, #12
 454 0042 EAD9     		bls	.L13
 334:Generated_Source\PSoC4/CapSense_CSD_CSHL.c ****         }
 335:Generated_Source\PSoC4/CapSense_CSD_CSHL.c ****     }
 336:Generated_Source\PSoC4/CapSense_CSD_CSHL.c **** }
 455              		.loc 1 336 0 is_stmt 1
 456 0044 C046     		nop
 457 0046 BD46     		mov	sp, r7
 458 0048 02B0     		add	sp, sp, #8
 459              		@ sp needed
 460 004a 80BD     		pop	{r7, pc}
 461              	.L15:
 462              		.align	2
 463              	.L14:
 464 004c 00000000 		.word	CapSense_CSD_sensorEnableMask
 465              		.cfi_endproc
 466              	.LFE35:
 467              		.size	CapSense_CSD_InitializeEnabledBaselines, .-CapSense_CSD_InitializeEnabledBaselines
 468              		.section	.text.CapSense_CSD_UpdateBaselineNoThreshold,"ax",%progbits
 469              		.align	2
 470              		.global	CapSense_CSD_UpdateBaselineNoThreshold
 471              		.code	16
 472              		.thumb_func
 473              		.type	CapSense_CSD_UpdateBaselineNoThreshold, %function
 474              	CapSense_CSD_UpdateBaselineNoThreshold:
 475              	.LFB36:
 337:Generated_Source\PSoC4/CapSense_CSD_CSHL.c **** 
 338:Generated_Source\PSoC4/CapSense_CSD_CSHL.c **** 
 339:Generated_Source\PSoC4/CapSense_CSD_CSHL.c **** /*******************************************************************************
 340:Generated_Source\PSoC4/CapSense_CSD_CSHL.c **** * Function Name: CapSense_CSD_UpdateBaselineNoThreshold
 341:Generated_Source\PSoC4/CapSense_CSD_CSHL.c **** ********************************************************************************
 342:Generated_Source\PSoC4/CapSense_CSD_CSHL.c **** *
 343:Generated_Source\PSoC4/CapSense_CSD_CSHL.c **** * Summary:
 344:Generated_Source\PSoC4/CapSense_CSD_CSHL.c **** *  Updates the CapSense_CSD_sensorBaseline[sensor] array element using the
 345:Generated_Source\PSoC4/CapSense_CSD_CSHL.c **** *  LP filter with k = 256. The signal calculates the difference of count by
 346:Generated_Source\PSoC4/CapSense_CSD_CSHL.c **** *  subtracting the previous baseline from the current raw count value and stores
 347:Generated_Source\PSoC4/CapSense_CSD_CSHL.c **** *  it in CapSense_CSD_sensorSignal[sensor].
 348:Generated_Source\PSoC4/CapSense_CSD_CSHL.c **** *  If the auto reset option is enabled, the baseline updated regards the noise threshold.
 349:Generated_Source\PSoC4/CapSense_CSD_CSHL.c **** *  If the auto reset option is disabled, the baseline stops updating; baseline is loaded
 350:Generated_Source\PSoC4/CapSense_CSD_CSHL.c **** *  with a raw count value if a signal is greater than zero and if signal is less
 351:Generated_Source\PSoC4/CapSense_CSD_CSHL.c **** *  than noise threshold.
 352:Generated_Source\PSoC4/CapSense_CSD_CSHL.c **** *  Raw data filters are applied to the values if enabled before baseline
 353:Generated_Source\PSoC4/CapSense_CSD_CSHL.c **** *  calculation.
 354:Generated_Source\PSoC4/CapSense_CSD_CSHL.c **** *
 355:Generated_Source\PSoC4/CapSense_CSD_CSHL.c **** *  This API does not update the thresholds in the Smartsense Mode.
 356:Generated_Source\PSoC4/CapSense_CSD_CSHL.c **** *
 357:Generated_Source\PSoC4/CapSense_CSD_CSHL.c **** * Parameters:
 358:Generated_Source\PSoC4/CapSense_CSD_CSHL.c **** *  sensor:  Sensor number.
 359:Generated_Source\PSoC4/CapSense_CSD_CSHL.c **** *
 360:Generated_Source\PSoC4/CapSense_CSD_CSHL.c **** * Return:
 361:Generated_Source\PSoC4/CapSense_CSD_CSHL.c **** *  None
 362:Generated_Source\PSoC4/CapSense_CSD_CSHL.c **** *
ARM GAS  C:\Users\SHOZO\AppData\Local\Temp\ccGGKGa0.s 			page 16


 363:Generated_Source\PSoC4/CapSense_CSD_CSHL.c **** * Global Variables:
 364:Generated_Source\PSoC4/CapSense_CSD_CSHL.c **** *  CapSense_CSD_widgetNumber[]  - stores widget numbers.
 365:Generated_Source\PSoC4/CapSense_CSD_CSHL.c **** *  CapSense_CSD_sensorBaseline[]    - used to store baseline value.
 366:Generated_Source\PSoC4/CapSense_CSD_CSHL.c **** *  CapSense_CSD_sensorBaselineLow[] - used to store fraction byte of
 367:Generated_Source\PSoC4/CapSense_CSD_CSHL.c **** *  baseline value.
 368:Generated_Source\PSoC4/CapSense_CSD_CSHL.c **** *  CapSense_CSD_sensorSignal[]      - used to store difference between
 369:Generated_Source\PSoC4/CapSense_CSD_CSHL.c **** *  current value of raw data and previous value of baseline.
 370:Generated_Source\PSoC4/CapSense_CSD_CSHL.c **** *  CapSense_CSD_rawFilterData1[]    - used to store previous sample of
 371:Generated_Source\PSoC4/CapSense_CSD_CSHL.c **** *  any enabled raw data filter.
 372:Generated_Source\PSoC4/CapSense_CSD_CSHL.c **** *  CapSense_CSD_rawFilterData2[]    - used to store before previous sample
 373:Generated_Source\PSoC4/CapSense_CSD_CSHL.c **** *  of enabled raw data filter. Only required for median or average filters.
 374:Generated_Source\PSoC4/CapSense_CSD_CSHL.c **** *
 375:Generated_Source\PSoC4/CapSense_CSD_CSHL.c **** * Side Effects:
 376:Generated_Source\PSoC4/CapSense_CSD_CSHL.c **** *  None
 377:Generated_Source\PSoC4/CapSense_CSD_CSHL.c **** *
 378:Generated_Source\PSoC4/CapSense_CSD_CSHL.c **** *******************************************************************************/
 379:Generated_Source\PSoC4/CapSense_CSD_CSHL.c **** void CapSense_CSD_UpdateBaselineNoThreshold(uint32 sensor)
 380:Generated_Source\PSoC4/CapSense_CSD_CSHL.c **** {
 476              		.loc 1 380 0
 477              		.cfi_startproc
 478              		@ args = 0, pretend = 0, frame = 24
 479              		@ frame_needed = 1, uses_anonymous_args = 0
 480 0000 90B5     		push	{r4, r7, lr}
 481              		.cfi_def_cfa_offset 12
 482              		.cfi_offset 4, -12
 483              		.cfi_offset 7, -8
 484              		.cfi_offset 14, -4
 485 0002 87B0     		sub	sp, sp, #28
 486              		.cfi_def_cfa_offset 40
 487 0004 00AF     		add	r7, sp, #0
 488              		.cfi_def_cfa_register 7
 489 0006 7860     		str	r0, [r7, #4]
 381:Generated_Source\PSoC4/CapSense_CSD_CSHL.c ****     uint32 calc;
 382:Generated_Source\PSoC4/CapSense_CSD_CSHL.c ****     uint32 sign;
 383:Generated_Source\PSoC4/CapSense_CSD_CSHL.c ****     uint16 tempRaw;
 384:Generated_Source\PSoC4/CapSense_CSD_CSHL.c ****     uint16 filteredRawData;
 385:Generated_Source\PSoC4/CapSense_CSD_CSHL.c ****     uint8 widget = CapSense_CSD_widgetNumber[sensor];
 490              		.loc 1 385 0
 491 0008 0F23     		movs	r3, #15
 492 000a FB18     		adds	r3, r7, r3
 493 000c 7049     		ldr	r1, .L26
 494 000e 7A68     		ldr	r2, [r7, #4]
 495 0010 8A18     		adds	r2, r1, r2
 496 0012 1278     		ldrb	r2, [r2]
 497 0014 1A70     		strb	r2, [r3]
 386:Generated_Source\PSoC4/CapSense_CSD_CSHL.c ****     uint16 noiseThreshold;
 387:Generated_Source\PSoC4/CapSense_CSD_CSHL.c **** 
 388:Generated_Source\PSoC4/CapSense_CSD_CSHL.c ****     #if (CapSense_CSD_TOTAL_GENERICS_COUNT)
 389:Generated_Source\PSoC4/CapSense_CSD_CSHL.c ****         /* Exclude generic widget */
 390:Generated_Source\PSoC4/CapSense_CSD_CSHL.c ****         if(widget < CapSense_CSD_END_OF_WIDGETS_INDEX)
 391:Generated_Source\PSoC4/CapSense_CSD_CSHL.c ****         {
 392:Generated_Source\PSoC4/CapSense_CSD_CSHL.c ****     #endif  /* CapSense_CSD_TOTAL_GENERICS_COUNT */
 393:Generated_Source\PSoC4/CapSense_CSD_CSHL.c **** 
 394:Generated_Source\PSoC4/CapSense_CSD_CSHL.c ****     noiseThreshold = CapSense_CSD_noiseThreshold[widget];
 498              		.loc 1 394 0
 499 0016 0F23     		movs	r3, #15
 500 0018 FB18     		adds	r3, r7, r3
ARM GAS  C:\Users\SHOZO\AppData\Local\Temp\ccGGKGa0.s 			page 17


 501 001a 1978     		ldrb	r1, [r3]
 502 001c 0C23     		movs	r3, #12
 503 001e FB18     		adds	r3, r7, r3
 504 0020 6C4A     		ldr	r2, .L26+4
 505 0022 4900     		lsls	r1, r1, #1
 506 0024 8A5A     		ldrh	r2, [r1, r2]
 507 0026 1A80     		strh	r2, [r3]
 395:Generated_Source\PSoC4/CapSense_CSD_CSHL.c ****     filteredRawData = CapSense_CSD_sensorRaw[sensor];
 508              		.loc 1 395 0
 509 0028 1023     		movs	r3, #16
 510 002a FB18     		adds	r3, r7, r3
 511 002c 6A4A     		ldr	r2, .L26+8
 512 002e 7968     		ldr	r1, [r7, #4]
 513 0030 4900     		lsls	r1, r1, #1
 514 0032 8A5A     		ldrh	r2, [r1, r2]
 515 0034 1A80     		strh	r2, [r3]
 396:Generated_Source\PSoC4/CapSense_CSD_CSHL.c **** 
 397:Generated_Source\PSoC4/CapSense_CSD_CSHL.c ****     #if (CapSense_CSD_RAW_FILTER_MASK != 0u)
 398:Generated_Source\PSoC4/CapSense_CSD_CSHL.c ****     if(CapSense_CSD_enableRawFilters != 0u)
 516              		.loc 1 398 0
 517 0036 694B     		ldr	r3, .L26+12
 518 0038 1B78     		ldrb	r3, [r3]
 519 003a 002B     		cmp	r3, #0
 520 003c 26D0     		beq	.L17
 399:Generated_Source\PSoC4/CapSense_CSD_CSHL.c ****     {
 400:Generated_Source\PSoC4/CapSense_CSD_CSHL.c ****         #if (CapSense_CSD_RAW_FILTER_MASK & CapSense_CSD_MEDIAN_FILTER)
 401:Generated_Source\PSoC4/CapSense_CSD_CSHL.c ****             tempRaw = filteredRawData;
 521              		.loc 1 401 0
 522 003e 1223     		movs	r3, #18
 523 0040 FB18     		adds	r3, r7, r3
 524 0042 1022     		movs	r2, #16
 525 0044 BA18     		adds	r2, r7, r2
 526 0046 1288     		ldrh	r2, [r2]
 527 0048 1A80     		strh	r2, [r3]
 402:Generated_Source\PSoC4/CapSense_CSD_CSHL.c ****             filteredRawData = CapSense_CSD_MedianFilter(filteredRawData, CapSense_CSD_rawFilterData
 528              		.loc 1 402 0
 529 004a 654B     		ldr	r3, .L26+16
 530 004c 7A68     		ldr	r2, [r7, #4]
 531 004e 5200     		lsls	r2, r2, #1
 532 0050 D15A     		ldrh	r1, [r2, r3]
 533 0052 644B     		ldr	r3, .L26+20
 534 0054 7A68     		ldr	r2, [r7, #4]
 535 0056 5200     		lsls	r2, r2, #1
 536 0058 D25A     		ldrh	r2, [r2, r3]
 537 005a 1023     		movs	r3, #16
 538 005c FC18     		adds	r4, r7, r3
 539 005e 1023     		movs	r3, #16
 540 0060 FB18     		adds	r3, r7, r3
 541 0062 1B88     		ldrh	r3, [r3]
 542 0064 1800     		movs	r0, r3
 543 0066 FFF7FEFF 		bl	CapSense_CSD_MedianFilter
 544 006a 0300     		movs	r3, r0
 545 006c 2380     		strh	r3, [r4]
 403:Generated_Source\PSoC4/CapSense_CSD_CSHL.c ****                                                             CapSense_CSD_rawFilterData2[sensor]);
 404:Generated_Source\PSoC4/CapSense_CSD_CSHL.c ****             CapSense_CSD_rawFilterData2[sensor] = CapSense_CSD_rawFilterData1[sensor];
 546              		.loc 1 404 0
 547 006e 5C4B     		ldr	r3, .L26+16
ARM GAS  C:\Users\SHOZO\AppData\Local\Temp\ccGGKGa0.s 			page 18


 548 0070 7A68     		ldr	r2, [r7, #4]
 549 0072 5200     		lsls	r2, r2, #1
 550 0074 D15A     		ldrh	r1, [r2, r3]
 551 0076 5B4B     		ldr	r3, .L26+20
 552 0078 7A68     		ldr	r2, [r7, #4]
 553 007a 5200     		lsls	r2, r2, #1
 554 007c D152     		strh	r1, [r2, r3]
 405:Generated_Source\PSoC4/CapSense_CSD_CSHL.c ****             CapSense_CSD_rawFilterData1[sensor] = tempRaw;
 555              		.loc 1 405 0
 556 007e 584B     		ldr	r3, .L26+16
 557 0080 7A68     		ldr	r2, [r7, #4]
 558 0082 5200     		lsls	r2, r2, #1
 559 0084 1221     		movs	r1, #18
 560 0086 7918     		adds	r1, r7, r1
 561 0088 0988     		ldrh	r1, [r1]
 562 008a D152     		strh	r1, [r2, r3]
 563              	.L17:
 406:Generated_Source\PSoC4/CapSense_CSD_CSHL.c **** 
 407:Generated_Source\PSoC4/CapSense_CSD_CSHL.c ****         #elif (CapSense_CSD_RAW_FILTER_MASK & CapSense_CSD_AVERAGING_FILTER)
 408:Generated_Source\PSoC4/CapSense_CSD_CSHL.c ****             tempRaw = filteredRawData;
 409:Generated_Source\PSoC4/CapSense_CSD_CSHL.c ****             filteredRawData = CapSense_CSD_AveragingFilter(filteredRawData, CapSense_CSD_rawFilterD
 410:Generated_Source\PSoC4/CapSense_CSD_CSHL.c ****                                                                CapSense_CSD_rawFilterData2[sensor])
 411:Generated_Source\PSoC4/CapSense_CSD_CSHL.c ****             CapSense_CSD_rawFilterData2[sensor] = CapSense_CSD_rawFilterData1[sensor];
 412:Generated_Source\PSoC4/CapSense_CSD_CSHL.c ****             CapSense_CSD_rawFilterData1[sensor] = tempRaw;
 413:Generated_Source\PSoC4/CapSense_CSD_CSHL.c **** 
 414:Generated_Source\PSoC4/CapSense_CSD_CSHL.c ****         #elif (CapSense_CSD_RAW_FILTER_MASK & CapSense_CSD_IIR2_FILTER)
 415:Generated_Source\PSoC4/CapSense_CSD_CSHL.c ****             filteredRawData = CapSense_CSD_IIR2Filter(filteredRawData, CapSense_CSD_rawFilterData1[
 416:Generated_Source\PSoC4/CapSense_CSD_CSHL.c ****             CapSense_CSD_rawFilterData1[sensor] = filteredRawData;
 417:Generated_Source\PSoC4/CapSense_CSD_CSHL.c **** 
 418:Generated_Source\PSoC4/CapSense_CSD_CSHL.c ****         #elif (CapSense_CSD_RAW_FILTER_MASK & CapSense_CSD_IIR4_FILTER)
 419:Generated_Source\PSoC4/CapSense_CSD_CSHL.c ****             filteredRawData = CapSense_CSD_IIR4Filter(filteredRawData, CapSense_CSD_rawFilterData1[
 420:Generated_Source\PSoC4/CapSense_CSD_CSHL.c ****             CapSense_CSD_rawFilterData1[sensor] = filteredRawData;
 421:Generated_Source\PSoC4/CapSense_CSD_CSHL.c **** 
 422:Generated_Source\PSoC4/CapSense_CSD_CSHL.c ****         #elif (CapSense_CSD_RAW_FILTER_MASK & CapSense_CSD_JITTER_FILTER)
 423:Generated_Source\PSoC4/CapSense_CSD_CSHL.c ****             filteredRawData = CapSense_CSD_JitterFilter(filteredRawData, CapSense_CSD_rawFilterData
 424:Generated_Source\PSoC4/CapSense_CSD_CSHL.c ****             CapSense_CSD_rawFilterData1[sensor] = filteredRawData;
 425:Generated_Source\PSoC4/CapSense_CSD_CSHL.c **** 
 426:Generated_Source\PSoC4/CapSense_CSD_CSHL.c ****         #elif (CapSense_CSD_RAW_FILTER_MASK & CapSense_CSD_IIR8_FILTER)
 427:Generated_Source\PSoC4/CapSense_CSD_CSHL.c ****             filteredRawData = CapSense_CSD_IIR8Filter(filteredRawData, CapSense_CSD_rawFilterData1[
 428:Generated_Source\PSoC4/CapSense_CSD_CSHL.c ****             CapSense_CSD_rawFilterData1[sensor] = filteredRawData;
 429:Generated_Source\PSoC4/CapSense_CSD_CSHL.c **** 
 430:Generated_Source\PSoC4/CapSense_CSD_CSHL.c ****         #elif (CapSense_CSD_RAW_FILTER_MASK & CapSense_CSD_IIR16_FILTER)
 431:Generated_Source\PSoC4/CapSense_CSD_CSHL.c ****             filteredRawData = CapSense_CSD_IIR16Filter(filteredRawData, CapSense_CSD_rawFilterData1
 432:Generated_Source\PSoC4/CapSense_CSD_CSHL.c ****             CapSense_CSD_rawFilterData1[sensor] = filteredRawData;
 433:Generated_Source\PSoC4/CapSense_CSD_CSHL.c **** 
 434:Generated_Source\PSoC4/CapSense_CSD_CSHL.c ****         #else
 435:Generated_Source\PSoC4/CapSense_CSD_CSHL.c ****             /* No Raw filters */
 436:Generated_Source\PSoC4/CapSense_CSD_CSHL.c ****         #endif  /* (CapSense_CSD_RAW_FILTER_MASK & CapSense_CSD_MEDIAN_FILTER) */
 437:Generated_Source\PSoC4/CapSense_CSD_CSHL.c ****     }
 438:Generated_Source\PSoC4/CapSense_CSD_CSHL.c ****     #endif  /* (CapSense_CSD_RAW_FILTER_MASK != 0u) */
 439:Generated_Source\PSoC4/CapSense_CSD_CSHL.c **** 
 440:Generated_Source\PSoC4/CapSense_CSD_CSHL.c ****     #if (CapSense_CSD_TUNING_METHOD == CapSense_CSD__TUNING_AUTO)
 441:Generated_Source\PSoC4/CapSense_CSD_CSHL.c ****         MeasureNoiseEnvelope_P4_v2_60(&CapSense_CSD_config, (uint8)sensor, CapSense_CSD_sensorRaw);
 442:Generated_Source\PSoC4/CapSense_CSD_CSHL.c ****     #endif /* (CapSense_CSD_TUNING_METHOD == CapSense_CSD__TUNING_AUTO) */
 443:Generated_Source\PSoC4/CapSense_CSD_CSHL.c **** 
 444:Generated_Source\PSoC4/CapSense_CSD_CSHL.c ****     /* Baseline calculation */
 445:Generated_Source\PSoC4/CapSense_CSD_CSHL.c ****     /* Calculate difference RawData[cur] - Baseline[prev] */
ARM GAS  C:\Users\SHOZO\AppData\Local\Temp\ccGGKGa0.s 			page 19


 446:Generated_Source\PSoC4/CapSense_CSD_CSHL.c ****     if(filteredRawData >= CapSense_CSD_sensorBaseline[sensor])
 564              		.loc 1 446 0
 565 008c 564B     		ldr	r3, .L26+24
 566 008e 7A68     		ldr	r2, [r7, #4]
 567 0090 5200     		lsls	r2, r2, #1
 568 0092 D35A     		ldrh	r3, [r2, r3]
 569 0094 1022     		movs	r2, #16
 570 0096 BA18     		adds	r2, r7, r2
 571 0098 1288     		ldrh	r2, [r2]
 572 009a 9A42     		cmp	r2, r3
 573 009c 12D3     		bcc	.L18
 447:Generated_Source\PSoC4/CapSense_CSD_CSHL.c ****     {
 448:Generated_Source\PSoC4/CapSense_CSD_CSHL.c ****         CapSense_CSD_lowBaselineResetCnt[sensor] = 0u;
 574              		.loc 1 448 0
 575 009e 534A     		ldr	r2, .L26+28
 576 00a0 7B68     		ldr	r3, [r7, #4]
 577 00a2 D318     		adds	r3, r2, r3
 578 00a4 0022     		movs	r2, #0
 579 00a6 1A70     		strb	r2, [r3]
 449:Generated_Source\PSoC4/CapSense_CSD_CSHL.c ****         tempRaw = filteredRawData - CapSense_CSD_sensorBaseline[sensor];
 580              		.loc 1 449 0
 581 00a8 4F4B     		ldr	r3, .L26+24
 582 00aa 7A68     		ldr	r2, [r7, #4]
 583 00ac 5200     		lsls	r2, r2, #1
 584 00ae D25A     		ldrh	r2, [r2, r3]
 585 00b0 1223     		movs	r3, #18
 586 00b2 FB18     		adds	r3, r7, r3
 587 00b4 1021     		movs	r1, #16
 588 00b6 7918     		adds	r1, r7, r1
 589 00b8 0988     		ldrh	r1, [r1]
 590 00ba 8A1A     		subs	r2, r1, r2
 591 00bc 1A80     		strh	r2, [r3]
 450:Generated_Source\PSoC4/CapSense_CSD_CSHL.c ****         sign = 1u;    /* Positive difference - Calculate the Signal */
 592              		.loc 1 450 0
 593 00be 0123     		movs	r3, #1
 594 00c0 7B61     		str	r3, [r7, #20]
 595 00c2 0CE0     		b	.L19
 596              	.L18:
 451:Generated_Source\PSoC4/CapSense_CSD_CSHL.c ****     }
 452:Generated_Source\PSoC4/CapSense_CSD_CSHL.c ****     else
 453:Generated_Source\PSoC4/CapSense_CSD_CSHL.c ****     {
 454:Generated_Source\PSoC4/CapSense_CSD_CSHL.c ****         tempRaw = CapSense_CSD_sensorBaseline[sensor] - filteredRawData;
 597              		.loc 1 454 0
 598 00c4 484B     		ldr	r3, .L26+24
 599 00c6 7A68     		ldr	r2, [r7, #4]
 600 00c8 5200     		lsls	r2, r2, #1
 601 00ca D15A     		ldrh	r1, [r2, r3]
 602 00cc 1223     		movs	r3, #18
 603 00ce FB18     		adds	r3, r7, r3
 604 00d0 1022     		movs	r2, #16
 605 00d2 BA18     		adds	r2, r7, r2
 606 00d4 1288     		ldrh	r2, [r2]
 607 00d6 8A1A     		subs	r2, r1, r2
 608 00d8 1A80     		strh	r2, [r3]
 455:Generated_Source\PSoC4/CapSense_CSD_CSHL.c ****         sign = 0u;    /* Negative difference - Do NOT calculate the Signal */
 609              		.loc 1 455 0
 610 00da 0023     		movs	r3, #0
ARM GAS  C:\Users\SHOZO\AppData\Local\Temp\ccGGKGa0.s 			page 20


 611 00dc 7B61     		str	r3, [r7, #20]
 612              	.L19:
 456:Generated_Source\PSoC4/CapSense_CSD_CSHL.c ****     }
 457:Generated_Source\PSoC4/CapSense_CSD_CSHL.c **** 
 458:Generated_Source\PSoC4/CapSense_CSD_CSHL.c ****     #if (CapSense_CSD_TUNING_METHOD != CapSense_CSD__TUNING_NONE)
 459:Generated_Source\PSoC4/CapSense_CSD_CSHL.c ****     if((sign == 0u) && (tempRaw > (uint16) CapSense_CSD_negativeNoiseThreshold[widget]))
 613              		.loc 1 459 0
 614 00de 7B69     		ldr	r3, [r7, #20]
 615 00e0 002B     		cmp	r3, #0
 616 00e2 2AD1     		bne	.L20
 617              		.loc 1 459 0 is_stmt 0 discriminator 1
 618 00e4 0F23     		movs	r3, #15
 619 00e6 FB18     		adds	r3, r7, r3
 620 00e8 1A78     		ldrb	r2, [r3]
 621 00ea 414B     		ldr	r3, .L26+32
 622 00ec 5200     		lsls	r2, r2, #1
 623 00ee D35A     		ldrh	r3, [r2, r3]
 624 00f0 1222     		movs	r2, #18
 625 00f2 BA18     		adds	r2, r7, r2
 626 00f4 1288     		ldrh	r2, [r2]
 627 00f6 9A42     		cmp	r2, r3
 628 00f8 1FD9     		bls	.L20
 460:Generated_Source\PSoC4/CapSense_CSD_CSHL.c ****     #else
 461:Generated_Source\PSoC4/CapSense_CSD_CSHL.c ****     if((sign == 0u) && (tempRaw > (uint16) CapSense_CSD_NEGATIVE_NOISE_THRESHOLD))
 462:Generated_Source\PSoC4/CapSense_CSD_CSHL.c ****     #endif /* (CapSense_CSD_TUNING_METHOD != CapSense_CSD__TUNING_NONE) */
 463:Generated_Source\PSoC4/CapSense_CSD_CSHL.c ****     {
 464:Generated_Source\PSoC4/CapSense_CSD_CSHL.c ****         if(CapSense_CSD_lowBaselineResetCnt[sensor] >= CapSense_CSD_lowBaselineReset[sensor])
 629              		.loc 1 464 0 is_stmt 1
 630 00fa 3C4A     		ldr	r2, .L26+28
 631 00fc 7B68     		ldr	r3, [r7, #4]
 632 00fe D318     		adds	r3, r2, r3
 633 0100 1A78     		ldrb	r2, [r3]
 634 0102 3C49     		ldr	r1, .L26+36
 635 0104 7B68     		ldr	r3, [r7, #4]
 636 0106 CB18     		adds	r3, r1, r3
 637 0108 1B78     		ldrb	r3, [r3]
 638 010a 9A42     		cmp	r2, r3
 639 010c 09D3     		bcc	.L21
 465:Generated_Source\PSoC4/CapSense_CSD_CSHL.c ****         {
 466:Generated_Source\PSoC4/CapSense_CSD_CSHL.c ****             CapSense_CSD_BaseInit(sensor);
 640              		.loc 1 466 0
 641 010e 7B68     		ldr	r3, [r7, #4]
 642 0110 1800     		movs	r0, r3
 643 0112 FFF7FEFF 		bl	CapSense_CSD_BaseInit
 467:Generated_Source\PSoC4/CapSense_CSD_CSHL.c ****             CapSense_CSD_lowBaselineResetCnt[sensor] = 0u;
 644              		.loc 1 467 0
 645 0116 354A     		ldr	r2, .L26+28
 646 0118 7B68     		ldr	r3, [r7, #4]
 647 011a D318     		adds	r3, r2, r3
 648 011c 0022     		movs	r2, #0
 649 011e 1A70     		strb	r2, [r3]
 464:Generated_Source\PSoC4/CapSense_CSD_CSHL.c ****         {
 650              		.loc 1 464 0
 651 0120 3AE0     		b	.L23
 652              	.L21:
 468:Generated_Source\PSoC4/CapSense_CSD_CSHL.c ****         }
 469:Generated_Source\PSoC4/CapSense_CSD_CSHL.c ****         else
ARM GAS  C:\Users\SHOZO\AppData\Local\Temp\ccGGKGa0.s 			page 21


 470:Generated_Source\PSoC4/CapSense_CSD_CSHL.c ****         {
 471:Generated_Source\PSoC4/CapSense_CSD_CSHL.c ****             CapSense_CSD_lowBaselineResetCnt[sensor]++;
 653              		.loc 1 471 0
 654 0122 324A     		ldr	r2, .L26+28
 655 0124 7B68     		ldr	r3, [r7, #4]
 656 0126 D318     		adds	r3, r2, r3
 657 0128 1B78     		ldrb	r3, [r3]
 658 012a 0133     		adds	r3, r3, #1
 659 012c D9B2     		uxtb	r1, r3
 660 012e 2F4A     		ldr	r2, .L26+28
 661 0130 7B68     		ldr	r3, [r7, #4]
 662 0132 D318     		adds	r3, r2, r3
 663 0134 0A1C     		adds	r2, r1, #0
 664 0136 1A70     		strb	r2, [r3]
 464:Generated_Source\PSoC4/CapSense_CSD_CSHL.c ****         {
 665              		.loc 1 464 0
 666 0138 2EE0     		b	.L23
 667              	.L20:
 472:Generated_Source\PSoC4/CapSense_CSD_CSHL.c ****         }
 473:Generated_Source\PSoC4/CapSense_CSD_CSHL.c ****     }
 474:Generated_Source\PSoC4/CapSense_CSD_CSHL.c ****     else
 475:Generated_Source\PSoC4/CapSense_CSD_CSHL.c ****     {
 476:Generated_Source\PSoC4/CapSense_CSD_CSHL.c ****         #if (CapSense_CSD_AUTO_RESET == CapSense_CSD_AUTO_RESET_DISABLE)
 477:Generated_Source\PSoC4/CapSense_CSD_CSHL.c ****         #if (CapSense_CSD_TUNING_METHOD != CapSense_CSD__TUNING_NONE)
 478:Generated_Source\PSoC4/CapSense_CSD_CSHL.c ****             /* Update Baseline if lower than noiseThreshold */
 479:Generated_Source\PSoC4/CapSense_CSD_CSHL.c ****             if ( (tempRaw <= noiseThreshold) ||
 480:Generated_Source\PSoC4/CapSense_CSD_CSHL.c ****              ((tempRaw < (uint16) CapSense_CSD_negativeNoiseThreshold[widget])
 481:Generated_Source\PSoC4/CapSense_CSD_CSHL.c ****                && (sign == 0u)))
 482:Generated_Source\PSoC4/CapSense_CSD_CSHL.c ****             {
 483:Generated_Source\PSoC4/CapSense_CSD_CSHL.c ****         #else
 484:Generated_Source\PSoC4/CapSense_CSD_CSHL.c ****             /* Update Baseline if lower than noiseThreshold */
 485:Generated_Source\PSoC4/CapSense_CSD_CSHL.c ****             if ( (tempRaw <= noiseThreshold) ||
 486:Generated_Source\PSoC4/CapSense_CSD_CSHL.c ****                  ((tempRaw < (uint16) CapSense_CSD_NEGATIVE_NOISE_THRESHOLD)
 487:Generated_Source\PSoC4/CapSense_CSD_CSHL.c ****                    && (sign == 0u)))
 488:Generated_Source\PSoC4/CapSense_CSD_CSHL.c ****             {
 489:Generated_Source\PSoC4/CapSense_CSD_CSHL.c ****         #endif /* (CapSense_CSD_TUNING_METHOD != CapSense_CSD__TUNING_NONE) */
 490:Generated_Source\PSoC4/CapSense_CSD_CSHL.c ****         #endif /* (CapSense_CSD_AUTO_RESET == CapSense_CSD_AUTO_RESET_DISABLE) */
 491:Generated_Source\PSoC4/CapSense_CSD_CSHL.c ****                 /* Make full Baseline 23 bits */
 492:Generated_Source\PSoC4/CapSense_CSD_CSHL.c ****                 calc = (uint32) CapSense_CSD_sensorBaseline[sensor] << 8u;
 668              		.loc 1 492 0
 669 013a 2B4B     		ldr	r3, .L26+24
 670 013c 7A68     		ldr	r2, [r7, #4]
 671 013e 5200     		lsls	r2, r2, #1
 672 0140 D35A     		ldrh	r3, [r2, r3]
 673 0142 1B02     		lsls	r3, r3, #8
 674 0144 BB60     		str	r3, [r7, #8]
 493:Generated_Source\PSoC4/CapSense_CSD_CSHL.c ****                 calc |= (uint32) CapSense_CSD_sensorBaselineLow[sensor];
 675              		.loc 1 493 0
 676 0146 2C4A     		ldr	r2, .L26+40
 677 0148 7B68     		ldr	r3, [r7, #4]
 678 014a D318     		adds	r3, r2, r3
 679 014c 1B78     		ldrb	r3, [r3]
 680 014e 1A00     		movs	r2, r3
 681 0150 BB68     		ldr	r3, [r7, #8]
 682 0152 1343     		orrs	r3, r2
 683 0154 BB60     		str	r3, [r7, #8]
 494:Generated_Source\PSoC4/CapSense_CSD_CSHL.c **** 
ARM GAS  C:\Users\SHOZO\AppData\Local\Temp\ccGGKGa0.s 			page 22


 495:Generated_Source\PSoC4/CapSense_CSD_CSHL.c ****                 /* Add Raw Data to Baseline */
 496:Generated_Source\PSoC4/CapSense_CSD_CSHL.c ****                 calc += filteredRawData;
 684              		.loc 1 496 0
 685 0156 1023     		movs	r3, #16
 686 0158 FB18     		adds	r3, r7, r3
 687 015a 1B88     		ldrh	r3, [r3]
 688 015c BA68     		ldr	r2, [r7, #8]
 689 015e D318     		adds	r3, r2, r3
 690 0160 BB60     		str	r3, [r7, #8]
 497:Generated_Source\PSoC4/CapSense_CSD_CSHL.c **** 
 498:Generated_Source\PSoC4/CapSense_CSD_CSHL.c ****                 /* Sub the high Baseline */
 499:Generated_Source\PSoC4/CapSense_CSD_CSHL.c ****                 calc -= CapSense_CSD_sensorBaseline[sensor];
 691              		.loc 1 499 0
 692 0162 214B     		ldr	r3, .L26+24
 693 0164 7A68     		ldr	r2, [r7, #4]
 694 0166 5200     		lsls	r2, r2, #1
 695 0168 D35A     		ldrh	r3, [r2, r3]
 696 016a 1A00     		movs	r2, r3
 697 016c BB68     		ldr	r3, [r7, #8]
 698 016e 9B1A     		subs	r3, r3, r2
 699 0170 BB60     		str	r3, [r7, #8]
 500:Generated_Source\PSoC4/CapSense_CSD_CSHL.c **** 
 501:Generated_Source\PSoC4/CapSense_CSD_CSHL.c ****                 /* Put Baseline and BaselineLow */
 502:Generated_Source\PSoC4/CapSense_CSD_CSHL.c ****                 CapSense_CSD_sensorBaseline[sensor] = ((uint16) (calc >> 8u));
 700              		.loc 1 502 0
 701 0172 BB68     		ldr	r3, [r7, #8]
 702 0174 1B0A     		lsrs	r3, r3, #8
 703 0176 99B2     		uxth	r1, r3
 704 0178 1B4B     		ldr	r3, .L26+24
 705 017a 7A68     		ldr	r2, [r7, #4]
 706 017c 5200     		lsls	r2, r2, #1
 707 017e D152     		strh	r1, [r2, r3]
 503:Generated_Source\PSoC4/CapSense_CSD_CSHL.c ****                 CapSense_CSD_sensorBaselineLow[sensor] = ((uint8) calc);
 708              		.loc 1 503 0
 709 0180 BB68     		ldr	r3, [r7, #8]
 710 0182 D9B2     		uxtb	r1, r3
 711 0184 1C4A     		ldr	r2, .L26+40
 712 0186 7B68     		ldr	r3, [r7, #4]
 713 0188 D318     		adds	r3, r2, r3
 714 018a 0A1C     		adds	r2, r1, #0
 715 018c 1A70     		strb	r2, [r3]
 504:Generated_Source\PSoC4/CapSense_CSD_CSHL.c **** 
 505:Generated_Source\PSoC4/CapSense_CSD_CSHL.c ****                 CapSense_CSD_lowBaselineResetCnt[sensor] = 0u;
 716              		.loc 1 505 0
 717 018e 174A     		ldr	r2, .L26+28
 718 0190 7B68     		ldr	r3, [r7, #4]
 719 0192 D318     		adds	r3, r2, r3
 720 0194 0022     		movs	r2, #0
 721 0196 1A70     		strb	r2, [r3]
 722              	.L23:
 506:Generated_Source\PSoC4/CapSense_CSD_CSHL.c ****         #if (CapSense_CSD_AUTO_RESET == CapSense_CSD_AUTO_RESET_DISABLE)
 507:Generated_Source\PSoC4/CapSense_CSD_CSHL.c ****             }
 508:Generated_Source\PSoC4/CapSense_CSD_CSHL.c ****         #endif /* (CapSense_CSD_AUTO_RESET == CapSense_CSD_AUTO_RESET_DISABLE) */
 509:Generated_Source\PSoC4/CapSense_CSD_CSHL.c ****     }
 510:Generated_Source\PSoC4/CapSense_CSD_CSHL.c **** 
 511:Generated_Source\PSoC4/CapSense_CSD_CSHL.c ****     /* Calculate Signal if positive difference > noiseThreshold */
 512:Generated_Source\PSoC4/CapSense_CSD_CSHL.c ****     if((tempRaw > (uint16) noiseThreshold) && (sign != 0u))
ARM GAS  C:\Users\SHOZO\AppData\Local\Temp\ccGGKGa0.s 			page 23


 723              		.loc 1 512 0
 724 0198 1223     		movs	r3, #18
 725 019a FA18     		adds	r2, r7, r3
 726 019c 0C23     		movs	r3, #12
 727 019e FB18     		adds	r3, r7, r3
 728 01a0 1288     		ldrh	r2, [r2]
 729 01a2 1B88     		ldrh	r3, [r3]
 730 01a4 9A42     		cmp	r2, r3
 731 01a6 0AD9     		bls	.L24
 732              		.loc 1 512 0 is_stmt 0 discriminator 1
 733 01a8 7B69     		ldr	r3, [r7, #20]
 734 01aa 002B     		cmp	r3, #0
 735 01ac 07D0     		beq	.L24
 513:Generated_Source\PSoC4/CapSense_CSD_CSHL.c ****     {
 514:Generated_Source\PSoC4/CapSense_CSD_CSHL.c ****         #if (CapSense_CSD_SIGNAL_SIZE == CapSense_CSD_SIGNAL_SIZE_UINT8)
 515:Generated_Source\PSoC4/CapSense_CSD_CSHL.c ****             /* Over flow defence for uint8 */
 516:Generated_Source\PSoC4/CapSense_CSD_CSHL.c ****             if (tempRaw > 0xFFu)
 517:Generated_Source\PSoC4/CapSense_CSD_CSHL.c ****             {
 518:Generated_Source\PSoC4/CapSense_CSD_CSHL.c ****                 CapSense_CSD_sensorSignal[sensor] = 0xFFu;
 519:Generated_Source\PSoC4/CapSense_CSD_CSHL.c ****             }
 520:Generated_Source\PSoC4/CapSense_CSD_CSHL.c ****             else
 521:Generated_Source\PSoC4/CapSense_CSD_CSHL.c ****             {
 522:Generated_Source\PSoC4/CapSense_CSD_CSHL.c ****                 CapSense_CSD_sensorSignal[sensor] = ((uint8) tempRaw);
 523:Generated_Source\PSoC4/CapSense_CSD_CSHL.c ****             }
 524:Generated_Source\PSoC4/CapSense_CSD_CSHL.c ****         #else
 525:Generated_Source\PSoC4/CapSense_CSD_CSHL.c ****             CapSense_CSD_sensorSignal[sensor] = ((uint16) tempRaw);
 736              		.loc 1 525 0 is_stmt 1
 737 01ae 134B     		ldr	r3, .L26+44
 738 01b0 7A68     		ldr	r2, [r7, #4]
 739 01b2 5200     		lsls	r2, r2, #1
 740 01b4 1221     		movs	r1, #18
 741 01b6 7918     		adds	r1, r7, r1
 742 01b8 0988     		ldrh	r1, [r1]
 743 01ba D152     		strh	r1, [r2, r3]
 744 01bc 04E0     		b	.L25
 745              	.L24:
 526:Generated_Source\PSoC4/CapSense_CSD_CSHL.c ****         #endif  /* (CapSense_CSD_SIGNAL_SIZE == CapSense_CSD_SIGNAL_SIZE_UINT8) */
 527:Generated_Source\PSoC4/CapSense_CSD_CSHL.c ****     }
 528:Generated_Source\PSoC4/CapSense_CSD_CSHL.c ****     else
 529:Generated_Source\PSoC4/CapSense_CSD_CSHL.c ****     {
 530:Generated_Source\PSoC4/CapSense_CSD_CSHL.c ****         /* Signal is zero */
 531:Generated_Source\PSoC4/CapSense_CSD_CSHL.c ****         CapSense_CSD_sensorSignal[sensor] = 0u;
 746              		.loc 1 531 0
 747 01be 0F4B     		ldr	r3, .L26+44
 748 01c0 7A68     		ldr	r2, [r7, #4]
 749 01c2 5200     		lsls	r2, r2, #1
 750 01c4 0021     		movs	r1, #0
 751 01c6 D152     		strh	r1, [r2, r3]
 752              	.L25:
 532:Generated_Source\PSoC4/CapSense_CSD_CSHL.c ****     }
 533:Generated_Source\PSoC4/CapSense_CSD_CSHL.c **** 
 534:Generated_Source\PSoC4/CapSense_CSD_CSHL.c ****     #if (CapSense_CSD_TOTAL_GENERICS_COUNT)
 535:Generated_Source\PSoC4/CapSense_CSD_CSHL.c ****         /* Exclude generic widget */
 536:Generated_Source\PSoC4/CapSense_CSD_CSHL.c ****         }
 537:Generated_Source\PSoC4/CapSense_CSD_CSHL.c ****     #endif  /* CapSense_CSD_TOTAL_GENERICS_COUNT */
 538:Generated_Source\PSoC4/CapSense_CSD_CSHL.c **** }
 753              		.loc 1 538 0
ARM GAS  C:\Users\SHOZO\AppData\Local\Temp\ccGGKGa0.s 			page 24


 754 01c8 C046     		nop
 755 01ca BD46     		mov	sp, r7
 756 01cc 07B0     		add	sp, sp, #28
 757              		@ sp needed
 758 01ce 90BD     		pop	{r4, r7, pc}
 759              	.L27:
 760              		.align	2
 761              	.L26:
 762 01d0 00000000 		.word	CapSense_CSD_widgetNumber
 763 01d4 00000000 		.word	CapSense_CSD_noiseThreshold
 764 01d8 00000000 		.word	CapSense_CSD_sensorRaw
 765 01dc 00000000 		.word	CapSense_CSD_enableRawFilters
 766 01e0 00000000 		.word	CapSense_CSD_rawFilterData1
 767 01e4 00000000 		.word	CapSense_CSD_rawFilterData2
 768 01e8 00000000 		.word	CapSense_CSD_sensorBaseline
 769 01ec 00000000 		.word	CapSense_CSD_lowBaselineResetCnt
 770 01f0 00000000 		.word	CapSense_CSD_negativeNoiseThreshold
 771 01f4 00000000 		.word	CapSense_CSD_lowBaselineReset
 772 01f8 00000000 		.word	CapSense_CSD_sensorBaselineLow
 773 01fc 00000000 		.word	CapSense_CSD_sensorSignal
 774              		.cfi_endproc
 775              	.LFE36:
 776              		.size	CapSense_CSD_UpdateBaselineNoThreshold, .-CapSense_CSD_UpdateBaselineNoThreshold
 777              		.section	.text.CapSense_CSD_UpdateSensorBaseline,"ax",%progbits
 778              		.align	2
 779              		.global	CapSense_CSD_UpdateSensorBaseline
 780              		.code	16
 781              		.thumb_func
 782              		.type	CapSense_CSD_UpdateSensorBaseline, %function
 783              	CapSense_CSD_UpdateSensorBaseline:
 784              	.LFB37:
 539:Generated_Source\PSoC4/CapSense_CSD_CSHL.c **** 
 540:Generated_Source\PSoC4/CapSense_CSD_CSHL.c **** 
 541:Generated_Source\PSoC4/CapSense_CSD_CSHL.c **** /*******************************************************************************
 542:Generated_Source\PSoC4/CapSense_CSD_CSHL.c **** * Function Name: CapSense_CSD_UpdateSensorBaseline
 543:Generated_Source\PSoC4/CapSense_CSD_CSHL.c **** ********************************************************************************
 544:Generated_Source\PSoC4/CapSense_CSD_CSHL.c **** *
 545:Generated_Source\PSoC4/CapSense_CSD_CSHL.c **** * Summary:
 546:Generated_Source\PSoC4/CapSense_CSD_CSHL.c **** *  Updates the CapSense_CSD_sensorBaseline[sensor] array element using the
 547:Generated_Source\PSoC4/CapSense_CSD_CSHL.c **** *  LP filter with k = 256. The signal calculates the difference of count by
 548:Generated_Source\PSoC4/CapSense_CSD_CSHL.c **** *  subtracting the previous baseline from the current raw count value and stores
 549:Generated_Source\PSoC4/CapSense_CSD_CSHL.c **** *  it in CapSense_CSD_sensorSignal[sensor].
 550:Generated_Source\PSoC4/CapSense_CSD_CSHL.c **** *  If the auto reset option is enabled, the baseline updated regards the noise threshold.
 551:Generated_Source\PSoC4/CapSense_CSD_CSHL.c **** *  If the auto reset option is disabled, the baseline stops updating.
 552:Generated_Source\PSoC4/CapSense_CSD_CSHL.c **** *  Baseline is loaded with raw count value if a signal is greater than zero and
 553:Generated_Source\PSoC4/CapSense_CSD_CSHL.c **** *  if signal is less than noise threshold.
 554:Generated_Source\PSoC4/CapSense_CSD_CSHL.c **** *  Raw data filters are applied to the values if enabled before baseline
 555:Generated_Source\PSoC4/CapSense_CSD_CSHL.c **** *  calculation.
 556:Generated_Source\PSoC4/CapSense_CSD_CSHL.c **** *  This API updates the thresholds in the Smartsense Mode.
 557:Generated_Source\PSoC4/CapSense_CSD_CSHL.c **** *
 558:Generated_Source\PSoC4/CapSense_CSD_CSHL.c **** * Parameters:
 559:Generated_Source\PSoC4/CapSense_CSD_CSHL.c **** *  sensor:  Sensor number.
 560:Generated_Source\PSoC4/CapSense_CSD_CSHL.c **** *
 561:Generated_Source\PSoC4/CapSense_CSD_CSHL.c **** * Return:
 562:Generated_Source\PSoC4/CapSense_CSD_CSHL.c **** *  None
 563:Generated_Source\PSoC4/CapSense_CSD_CSHL.c **** *
 564:Generated_Source\PSoC4/CapSense_CSD_CSHL.c **** * Global Variables:
ARM GAS  C:\Users\SHOZO\AppData\Local\Temp\ccGGKGa0.s 			page 25


 565:Generated_Source\PSoC4/CapSense_CSD_CSHL.c **** *  CapSense_CSD_widgetNumber[]  - stores widget numbers.
 566:Generated_Source\PSoC4/CapSense_CSD_CSHL.c **** *
 567:Generated_Source\PSoC4/CapSense_CSD_CSHL.c **** * Side Effects:
 568:Generated_Source\PSoC4/CapSense_CSD_CSHL.c **** *  None
 569:Generated_Source\PSoC4/CapSense_CSD_CSHL.c **** *
 570:Generated_Source\PSoC4/CapSense_CSD_CSHL.c **** *******************************************************************************/
 571:Generated_Source\PSoC4/CapSense_CSD_CSHL.c ****  void CapSense_CSD_UpdateSensorBaseline(uint32 sensor)
 572:Generated_Source\PSoC4/CapSense_CSD_CSHL.c **** {
 785              		.loc 1 572 0
 786              		.cfi_startproc
 787              		@ args = 0, pretend = 0, frame = 8
 788              		@ frame_needed = 1, uses_anonymous_args = 0
 789 0000 80B5     		push	{r7, lr}
 790              		.cfi_def_cfa_offset 8
 791              		.cfi_offset 7, -8
 792              		.cfi_offset 14, -4
 793 0002 82B0     		sub	sp, sp, #8
 794              		.cfi_def_cfa_offset 16
 795 0004 00AF     		add	r7, sp, #0
 796              		.cfi_def_cfa_register 7
 797 0006 7860     		str	r0, [r7, #4]
 573:Generated_Source\PSoC4/CapSense_CSD_CSHL.c ****     #if (CapSense_CSD_TOTAL_GENERICS_COUNT)
 574:Generated_Source\PSoC4/CapSense_CSD_CSHL.c ****         uint32 widget;
 575:Generated_Source\PSoC4/CapSense_CSD_CSHL.c **** 
 576:Generated_Source\PSoC4/CapSense_CSD_CSHL.c ****         widget = CapSense_CSD_widgetNumber[sensor];
 577:Generated_Source\PSoC4/CapSense_CSD_CSHL.c **** 
 578:Generated_Source\PSoC4/CapSense_CSD_CSHL.c ****         /* Exclude generic widget */
 579:Generated_Source\PSoC4/CapSense_CSD_CSHL.c ****         if(widget < CapSense_CSD_END_OF_WIDGETS_INDEX)
 580:Generated_Source\PSoC4/CapSense_CSD_CSHL.c ****         {
 581:Generated_Source\PSoC4/CapSense_CSD_CSHL.c ****     #endif  /* CapSense_CSD_TOTAL_GENERICS_COUNT */
 582:Generated_Source\PSoC4/CapSense_CSD_CSHL.c **** 
 583:Generated_Source\PSoC4/CapSense_CSD_CSHL.c ****     #if (CapSense_CSD_TUNING_METHOD == CapSense_CSD__TUNING_AUTO)
 584:Generated_Source\PSoC4/CapSense_CSD_CSHL.c ****         CapSense_CSD_UpdateThresholds(sensor);
 585:Generated_Source\PSoC4/CapSense_CSD_CSHL.c ****     #endif /* (CapSense_CSD_TUNING_METHOD == CapSense_CSD__TUNING_AUTO) */
 586:Generated_Source\PSoC4/CapSense_CSD_CSHL.c **** 
 587:Generated_Source\PSoC4/CapSense_CSD_CSHL.c ****     CapSense_CSD_UpdateBaselineNoThreshold(sensor);
 798              		.loc 1 587 0
 799 0008 7B68     		ldr	r3, [r7, #4]
 800 000a 1800     		movs	r0, r3
 801 000c FFF7FEFF 		bl	CapSense_CSD_UpdateBaselineNoThreshold
 588:Generated_Source\PSoC4/CapSense_CSD_CSHL.c **** 
 589:Generated_Source\PSoC4/CapSense_CSD_CSHL.c ****     #if (CapSense_CSD_TOTAL_GENERICS_COUNT)
 590:Generated_Source\PSoC4/CapSense_CSD_CSHL.c ****         /* Exclude generic widget */
 591:Generated_Source\PSoC4/CapSense_CSD_CSHL.c ****         }
 592:Generated_Source\PSoC4/CapSense_CSD_CSHL.c ****     #endif  /* CapSense_CSD_TOTAL_GENERICS_COUNT */
 593:Generated_Source\PSoC4/CapSense_CSD_CSHL.c **** }
 802              		.loc 1 593 0
 803 0010 C046     		nop
 804 0012 BD46     		mov	sp, r7
 805 0014 02B0     		add	sp, sp, #8
 806              		@ sp needed
 807 0016 80BD     		pop	{r7, pc}
 808              		.cfi_endproc
 809              	.LFE37:
 810              		.size	CapSense_CSD_UpdateSensorBaseline, .-CapSense_CSD_UpdateSensorBaseline
 811              		.section	.text.CapSense_CSD_UpdateEnabledBaselines,"ax",%progbits
 812              		.align	2
ARM GAS  C:\Users\SHOZO\AppData\Local\Temp\ccGGKGa0.s 			page 26


 813              		.global	CapSense_CSD_UpdateEnabledBaselines
 814              		.code	16
 815              		.thumb_func
 816              		.type	CapSense_CSD_UpdateEnabledBaselines, %function
 817              	CapSense_CSD_UpdateEnabledBaselines:
 818              	.LFB38:
 594:Generated_Source\PSoC4/CapSense_CSD_CSHL.c **** 
 595:Generated_Source\PSoC4/CapSense_CSD_CSHL.c **** 
 596:Generated_Source\PSoC4/CapSense_CSD_CSHL.c **** /*******************************************************************************
 597:Generated_Source\PSoC4/CapSense_CSD_CSHL.c **** * Function Name: CapSense_CSD_UpdateEnabledBaselines
 598:Generated_Source\PSoC4/CapSense_CSD_CSHL.c **** ********************************************************************************
 599:Generated_Source\PSoC4/CapSense_CSD_CSHL.c **** *
 600:Generated_Source\PSoC4/CapSense_CSD_CSHL.c **** * Summary:
 601:Generated_Source\PSoC4/CapSense_CSD_CSHL.c **** *  Checks CapSense_CSD_sensorEnableMask[] array and calls the
 602:Generated_Source\PSoC4/CapSense_CSD_CSHL.c **** *  CapSense_CSD_UpdateSensorBaseline function to update the baselines
 603:Generated_Source\PSoC4/CapSense_CSD_CSHL.c **** *  for the enabled sensors.
 604:Generated_Source\PSoC4/CapSense_CSD_CSHL.c **** *
 605:Generated_Source\PSoC4/CapSense_CSD_CSHL.c **** * Parameters:
 606:Generated_Source\PSoC4/CapSense_CSD_CSHL.c **** *  None
 607:Generated_Source\PSoC4/CapSense_CSD_CSHL.c **** *
 608:Generated_Source\PSoC4/CapSense_CSD_CSHL.c **** * Return:
 609:Generated_Source\PSoC4/CapSense_CSD_CSHL.c **** *  None
 610:Generated_Source\PSoC4/CapSense_CSD_CSHL.c **** *
 611:Generated_Source\PSoC4/CapSense_CSD_CSHL.c **** * Global Variables:
 612:Generated_Source\PSoC4/CapSense_CSD_CSHL.c **** *  CapSense_CSD_sensorEnableMask[] - used to store the sensor scanning
 613:Generated_Source\PSoC4/CapSense_CSD_CSHL.c **** *  state.
 614:Generated_Source\PSoC4/CapSense_CSD_CSHL.c **** *  CapSense_CSD_sensorEnableMask[0] contains the masked bits for sensors
 615:Generated_Source\PSoC4/CapSense_CSD_CSHL.c **** *   0 through 7 (sensor 0 is bit 0, sensor 1 is bit 1).
 616:Generated_Source\PSoC4/CapSense_CSD_CSHL.c **** *  CapSense_CSD_sensorEnableMask[1] contains the masked bits for
 617:Generated_Source\PSoC4/CapSense_CSD_CSHL.c **** *  sensors 8 through 15 (if needed), and so on.
 618:Generated_Source\PSoC4/CapSense_CSD_CSHL.c **** *  0 - sensor doesn't scan by CapSense_CSD_ScanEnabledWidgets().
 619:Generated_Source\PSoC4/CapSense_CSD_CSHL.c **** *  1 - sensor scans by CapSense_CSD_ScanEnabledWidgets().
 620:Generated_Source\PSoC4/CapSense_CSD_CSHL.c **** *
 621:Generated_Source\PSoC4/CapSense_CSD_CSHL.c **** * Side Effects:
 622:Generated_Source\PSoC4/CapSense_CSD_CSHL.c **** *  None
 623:Generated_Source\PSoC4/CapSense_CSD_CSHL.c **** *
 624:Generated_Source\PSoC4/CapSense_CSD_CSHL.c **** *******************************************************************************/
 625:Generated_Source\PSoC4/CapSense_CSD_CSHL.c ****  void CapSense_CSD_UpdateEnabledBaselines(void)
 626:Generated_Source\PSoC4/CapSense_CSD_CSHL.c **** {
 819              		.loc 1 626 0
 820              		.cfi_startproc
 821              		@ args = 0, pretend = 0, frame = 8
 822              		@ frame_needed = 1, uses_anonymous_args = 0
 823 0000 80B5     		push	{r7, lr}
 824              		.cfi_def_cfa_offset 8
 825              		.cfi_offset 7, -8
 826              		.cfi_offset 14, -4
 827 0002 82B0     		sub	sp, sp, #8
 828              		.cfi_def_cfa_offset 16
 829 0004 00AF     		add	r7, sp, #0
 830              		.cfi_def_cfa_register 7
 627:Generated_Source\PSoC4/CapSense_CSD_CSHL.c ****     uint32 i;
 628:Generated_Source\PSoC4/CapSense_CSD_CSHL.c ****     uint32 isSensorEnabled;
 629:Generated_Source\PSoC4/CapSense_CSD_CSHL.c **** 
 630:Generated_Source\PSoC4/CapSense_CSD_CSHL.c ****     for(i = 0u; i < CapSense_CSD_TOTAL_SENSOR_COUNT; i++)
 831              		.loc 1 630 0
 832 0006 0023     		movs	r3, #0
ARM GAS  C:\Users\SHOZO\AppData\Local\Temp\ccGGKGa0.s 			page 27


 833 0008 7B60     		str	r3, [r7, #4]
 834 000a 11E0     		b	.L30
 835              	.L32:
 631:Generated_Source\PSoC4/CapSense_CSD_CSHL.c ****     {
 632:Generated_Source\PSoC4/CapSense_CSD_CSHL.c ****         isSensorEnabled = CapSense_CSD_GetBitValue(CapSense_CSD_sensorEnableMask, i);
 836              		.loc 1 632 0
 837 000c 7A68     		ldr	r2, [r7, #4]
 838 000e 0C4B     		ldr	r3, .L33
 839 0010 1100     		movs	r1, r2
 840 0012 1800     		movs	r0, r3
 841 0014 FFF7FEFF 		bl	CapSense_CSD_GetBitValue
 842 0018 0300     		movs	r3, r0
 843 001a 3B60     		str	r3, [r7]
 633:Generated_Source\PSoC4/CapSense_CSD_CSHL.c **** 
 634:Generated_Source\PSoC4/CapSense_CSD_CSHL.c ****         if(0u != isSensorEnabled)
 844              		.loc 1 634 0
 845 001c 3B68     		ldr	r3, [r7]
 846 001e 002B     		cmp	r3, #0
 847 0020 03D0     		beq	.L31
 635:Generated_Source\PSoC4/CapSense_CSD_CSHL.c ****         {
 636:Generated_Source\PSoC4/CapSense_CSD_CSHL.c ****             CapSense_CSD_UpdateSensorBaseline(i);
 848              		.loc 1 636 0
 849 0022 7B68     		ldr	r3, [r7, #4]
 850 0024 1800     		movs	r0, r3
 851 0026 FFF7FEFF 		bl	CapSense_CSD_UpdateSensorBaseline
 852              	.L31:
 630:Generated_Source\PSoC4/CapSense_CSD_CSHL.c ****     {
 853              		.loc 1 630 0 discriminator 2
 854 002a 7B68     		ldr	r3, [r7, #4]
 855 002c 0133     		adds	r3, r3, #1
 856 002e 7B60     		str	r3, [r7, #4]
 857              	.L30:
 630:Generated_Source\PSoC4/CapSense_CSD_CSHL.c ****     {
 858              		.loc 1 630 0 is_stmt 0 discriminator 1
 859 0030 7B68     		ldr	r3, [r7, #4]
 860 0032 0C2B     		cmp	r3, #12
 861 0034 EAD9     		bls	.L32
 637:Generated_Source\PSoC4/CapSense_CSD_CSHL.c ****         }
 638:Generated_Source\PSoC4/CapSense_CSD_CSHL.c ****     }
 639:Generated_Source\PSoC4/CapSense_CSD_CSHL.c **** }
 862              		.loc 1 639 0 is_stmt 1
 863 0036 C046     		nop
 864 0038 BD46     		mov	sp, r7
 865 003a 02B0     		add	sp, sp, #8
 866              		@ sp needed
 867 003c 80BD     		pop	{r7, pc}
 868              	.L34:
 869 003e C046     		.align	2
 870              	.L33:
 871 0040 00000000 		.word	CapSense_CSD_sensorEnableMask
 872              		.cfi_endproc
 873              	.LFE38:
 874              		.size	CapSense_CSD_UpdateEnabledBaselines, .-CapSense_CSD_UpdateEnabledBaselines
 875              		.section	.text.CapSense_CSD_UpdateWidgetBaseline,"ax",%progbits
 876              		.align	2
 877              		.global	CapSense_CSD_UpdateWidgetBaseline
 878              		.code	16
ARM GAS  C:\Users\SHOZO\AppData\Local\Temp\ccGGKGa0.s 			page 28


 879              		.thumb_func
 880              		.type	CapSense_CSD_UpdateWidgetBaseline, %function
 881              	CapSense_CSD_UpdateWidgetBaseline:
 882              	.LFB39:
 640:Generated_Source\PSoC4/CapSense_CSD_CSHL.c **** 
 641:Generated_Source\PSoC4/CapSense_CSD_CSHL.c **** /*******************************************************************************
 642:Generated_Source\PSoC4/CapSense_CSD_CSHL.c **** * Function Name: CapSense_CSD_UpdateWidgetBaseline
 643:Generated_Source\PSoC4/CapSense_CSD_CSHL.c **** ********************************************************************************
 644:Generated_Source\PSoC4/CapSense_CSD_CSHL.c **** *
 645:Generated_Source\PSoC4/CapSense_CSD_CSHL.c **** * Summary:
 646:Generated_Source\PSoC4/CapSense_CSD_CSHL.c **** *  Checks CapSense_CSD_sensorEnableMask[] array and calls the
 647:Generated_Source\PSoC4/CapSense_CSD_CSHL.c **** *  CapSense_CSD_UpdateSensorBaseline function to update the baselines
 648:Generated_Source\PSoC4/CapSense_CSD_CSHL.c **** *  for the enabled sensors that belong to widget.
 649:Generated_Source\PSoC4/CapSense_CSD_CSHL.c **** *
 650:Generated_Source\PSoC4/CapSense_CSD_CSHL.c **** * Parameters:
 651:Generated_Source\PSoC4/CapSense_CSD_CSHL.c **** *  widget:  Widget number.
 652:Generated_Source\PSoC4/CapSense_CSD_CSHL.c **** *
 653:Generated_Source\PSoC4/CapSense_CSD_CSHL.c **** * Return:
 654:Generated_Source\PSoC4/CapSense_CSD_CSHL.c **** *  None
 655:Generated_Source\PSoC4/CapSense_CSD_CSHL.c **** *
 656:Generated_Source\PSoC4/CapSense_CSD_CSHL.c **** * Global Variables:
 657:Generated_Source\PSoC4/CapSense_CSD_CSHL.c **** *  CapSense_CSD_sensorEnableMask[] - used to store the sensor scanning
 658:Generated_Source\PSoC4/CapSense_CSD_CSHL.c **** *  state.
 659:Generated_Source\PSoC4/CapSense_CSD_CSHL.c **** *  CapSense_CSD_sensorEnableMask[0] contains the masked bits for sensors
 660:Generated_Source\PSoC4/CapSense_CSD_CSHL.c **** *   0 through 7 (sensor 0 is bit 0, sensor 1 is bit 1).
 661:Generated_Source\PSoC4/CapSense_CSD_CSHL.c **** *  CapSense_CSD_sensorEnableMask[1] contains the masked bits for
 662:Generated_Source\PSoC4/CapSense_CSD_CSHL.c **** *  sensors 8 through 15 (if needed), and so on.
 663:Generated_Source\PSoC4/CapSense_CSD_CSHL.c **** *  0 - sensor doesn't scan by CapSense_CSD_ScanEnabledWidgets().
 664:Generated_Source\PSoC4/CapSense_CSD_CSHL.c **** *  1 - sensor scans by CapSense_CSD_ScanEnabledWidgets().
 665:Generated_Source\PSoC4/CapSense_CSD_CSHL.c **** *
 666:Generated_Source\PSoC4/CapSense_CSD_CSHL.c **** * Side Effects:
 667:Generated_Source\PSoC4/CapSense_CSD_CSHL.c **** *  None
 668:Generated_Source\PSoC4/CapSense_CSD_CSHL.c **** *
 669:Generated_Source\PSoC4/CapSense_CSD_CSHL.c **** *******************************************************************************/
 670:Generated_Source\PSoC4/CapSense_CSD_CSHL.c **** void CapSense_CSD_UpdateWidgetBaseline(uint32 widget)
 671:Generated_Source\PSoC4/CapSense_CSD_CSHL.c **** {
 883              		.loc 1 671 0
 884              		.cfi_startproc
 885              		@ args = 0, pretend = 0, frame = 32
 886              		@ frame_needed = 1, uses_anonymous_args = 0
 887 0000 80B5     		push	{r7, lr}
 888              		.cfi_def_cfa_offset 8
 889              		.cfi_offset 7, -8
 890              		.cfi_offset 14, -4
 891 0002 88B0     		sub	sp, sp, #32
 892              		.cfi_def_cfa_offset 40
 893 0004 00AF     		add	r7, sp, #0
 894              		.cfi_def_cfa_register 7
 895 0006 7860     		str	r0, [r7, #4]
 672:Generated_Source\PSoC4/CapSense_CSD_CSHL.c ****     uint32 sensorsPerWidget;
 673:Generated_Source\PSoC4/CapSense_CSD_CSHL.c ****     uint32 firstSensor;
 674:Generated_Source\PSoC4/CapSense_CSD_CSHL.c ****     uint32 lastSensor;
 675:Generated_Source\PSoC4/CapSense_CSD_CSHL.c ****     uint32 i;
 676:Generated_Source\PSoC4/CapSense_CSD_CSHL.c ****     uint32 isSensorEnabled;
 677:Generated_Source\PSoC4/CapSense_CSD_CSHL.c **** 
 678:Generated_Source\PSoC4/CapSense_CSD_CSHL.c ****     /* Get number of sensors in widget */
 679:Generated_Source\PSoC4/CapSense_CSD_CSHL.c ****     sensorsPerWidget = CapSense_CSD_numberOfSensors[widget];
ARM GAS  C:\Users\SHOZO\AppData\Local\Temp\ccGGKGa0.s 			page 29


 896              		.loc 1 679 0
 897 0008 174A     		ldr	r2, .L39
 898 000a 7B68     		ldr	r3, [r7, #4]
 899 000c D318     		adds	r3, r2, r3
 900 000e 1B78     		ldrb	r3, [r3]
 901 0010 BB61     		str	r3, [r7, #24]
 680:Generated_Source\PSoC4/CapSense_CSD_CSHL.c **** 
 681:Generated_Source\PSoC4/CapSense_CSD_CSHL.c ****     /* Get first sensor in widget */
 682:Generated_Source\PSoC4/CapSense_CSD_CSHL.c ****     firstSensor = CapSense_CSD_rawDataIndex[widget];
 902              		.loc 1 682 0
 903 0012 164A     		ldr	r2, .L39+4
 904 0014 7B68     		ldr	r3, [r7, #4]
 905 0016 D318     		adds	r3, r2, r3
 906 0018 1B78     		ldrb	r3, [r3]
 907 001a 7B61     		str	r3, [r7, #20]
 683:Generated_Source\PSoC4/CapSense_CSD_CSHL.c **** 
 684:Generated_Source\PSoC4/CapSense_CSD_CSHL.c ****     /* Get last sensor in widget */
 685:Generated_Source\PSoC4/CapSense_CSD_CSHL.c ****     lastSensor = (CapSense_CSD_rawDataIndex[widget] + sensorsPerWidget);
 908              		.loc 1 685 0
 909 001c 134A     		ldr	r2, .L39+4
 910 001e 7B68     		ldr	r3, [r7, #4]
 911 0020 D318     		adds	r3, r2, r3
 912 0022 1B78     		ldrb	r3, [r3]
 913 0024 1A00     		movs	r2, r3
 914 0026 BB69     		ldr	r3, [r7, #24]
 915 0028 D318     		adds	r3, r2, r3
 916 002a 3B61     		str	r3, [r7, #16]
 686:Generated_Source\PSoC4/CapSense_CSD_CSHL.c **** 
 687:Generated_Source\PSoC4/CapSense_CSD_CSHL.c ****     for(i = firstSensor; i < lastSensor; i++)
 917              		.loc 1 687 0
 918 002c 7B69     		ldr	r3, [r7, #20]
 919 002e FB61     		str	r3, [r7, #28]
 920 0030 11E0     		b	.L36
 921              	.L38:
 688:Generated_Source\PSoC4/CapSense_CSD_CSHL.c ****     {
 689:Generated_Source\PSoC4/CapSense_CSD_CSHL.c ****         isSensorEnabled = CapSense_CSD_GetBitValue(CapSense_CSD_sensorEnableMask, i);
 922              		.loc 1 689 0
 923 0032 FA69     		ldr	r2, [r7, #28]
 924 0034 0E4B     		ldr	r3, .L39+8
 925 0036 1100     		movs	r1, r2
 926 0038 1800     		movs	r0, r3
 927 003a FFF7FEFF 		bl	CapSense_CSD_GetBitValue
 928 003e 0300     		movs	r3, r0
 929 0040 FB60     		str	r3, [r7, #12]
 690:Generated_Source\PSoC4/CapSense_CSD_CSHL.c **** 
 691:Generated_Source\PSoC4/CapSense_CSD_CSHL.c ****         if(0u != isSensorEnabled)
 930              		.loc 1 691 0
 931 0042 FB68     		ldr	r3, [r7, #12]
 932 0044 002B     		cmp	r3, #0
 933 0046 03D0     		beq	.L37
 692:Generated_Source\PSoC4/CapSense_CSD_CSHL.c ****         {
 693:Generated_Source\PSoC4/CapSense_CSD_CSHL.c ****             CapSense_CSD_UpdateSensorBaseline(i);
 934              		.loc 1 693 0
 935 0048 FB69     		ldr	r3, [r7, #28]
 936 004a 1800     		movs	r0, r3
 937 004c FFF7FEFF 		bl	CapSense_CSD_UpdateSensorBaseline
 938              	.L37:
ARM GAS  C:\Users\SHOZO\AppData\Local\Temp\ccGGKGa0.s 			page 30


 687:Generated_Source\PSoC4/CapSense_CSD_CSHL.c ****     {
 939              		.loc 1 687 0 discriminator 2
 940 0050 FB69     		ldr	r3, [r7, #28]
 941 0052 0133     		adds	r3, r3, #1
 942 0054 FB61     		str	r3, [r7, #28]
 943              	.L36:
 687:Generated_Source\PSoC4/CapSense_CSD_CSHL.c ****     {
 944              		.loc 1 687 0 is_stmt 0 discriminator 1
 945 0056 FA69     		ldr	r2, [r7, #28]
 946 0058 3B69     		ldr	r3, [r7, #16]
 947 005a 9A42     		cmp	r2, r3
 948 005c E9D3     		bcc	.L38
 694:Generated_Source\PSoC4/CapSense_CSD_CSHL.c ****         }
 695:Generated_Source\PSoC4/CapSense_CSD_CSHL.c ****     }
 696:Generated_Source\PSoC4/CapSense_CSD_CSHL.c **** }
 949              		.loc 1 696 0 is_stmt 1
 950 005e C046     		nop
 951 0060 BD46     		mov	sp, r7
 952 0062 08B0     		add	sp, sp, #32
 953              		@ sp needed
 954 0064 80BD     		pop	{r7, pc}
 955              	.L40:
 956 0066 C046     		.align	2
 957              	.L39:
 958 0068 00000000 		.word	CapSense_CSD_numberOfSensors
 959 006c 00000000 		.word	CapSense_CSD_rawDataIndex
 960 0070 00000000 		.word	CapSense_CSD_sensorEnableMask
 961              		.cfi_endproc
 962              	.LFE39:
 963              		.size	CapSense_CSD_UpdateWidgetBaseline, .-CapSense_CSD_UpdateWidgetBaseline
 964              		.section	.text.CapSense_CSD_GetBaselineData,"ax",%progbits
 965              		.align	2
 966              		.global	CapSense_CSD_GetBaselineData
 967              		.code	16
 968              		.thumb_func
 969              		.type	CapSense_CSD_GetBaselineData, %function
 970              	CapSense_CSD_GetBaselineData:
 971              	.LFB40:
 697:Generated_Source\PSoC4/CapSense_CSD_CSHL.c **** 
 698:Generated_Source\PSoC4/CapSense_CSD_CSHL.c **** 
 699:Generated_Source\PSoC4/CapSense_CSD_CSHL.c **** /*******************************************************************************
 700:Generated_Source\PSoC4/CapSense_CSD_CSHL.c **** * Function Name: CapSense_CSD_GetBaselineData
 701:Generated_Source\PSoC4/CapSense_CSD_CSHL.c **** ********************************************************************************
 702:Generated_Source\PSoC4/CapSense_CSD_CSHL.c **** *
 703:Generated_Source\PSoC4/CapSense_CSD_CSHL.c **** * Summary:
 704:Generated_Source\PSoC4/CapSense_CSD_CSHL.c **** *  This function reads the sensor baseline from the component.
 705:Generated_Source\PSoC4/CapSense_CSD_CSHL.c **** *
 706:Generated_Source\PSoC4/CapSense_CSD_CSHL.c **** * Parameters:
 707:Generated_Source\PSoC4/CapSense_CSD_CSHL.c **** *  sensor:  Sensor number.
 708:Generated_Source\PSoC4/CapSense_CSD_CSHL.c **** *
 709:Generated_Source\PSoC4/CapSense_CSD_CSHL.c **** * Return:
 710:Generated_Source\PSoC4/CapSense_CSD_CSHL.c **** *  This API returns the baseline value of the sensor indicated by an argument.
 711:Generated_Source\PSoC4/CapSense_CSD_CSHL.c **** *
 712:Generated_Source\PSoC4/CapSense_CSD_CSHL.c **** * Global Variables:
 713:Generated_Source\PSoC4/CapSense_CSD_CSHL.c **** *  CapSense_CSD_sensorBaseline[] - the array with an initial values by scanning
 714:Generated_Source\PSoC4/CapSense_CSD_CSHL.c **** *
 715:Generated_Source\PSoC4/CapSense_CSD_CSHL.c **** * Side Effects:
ARM GAS  C:\Users\SHOZO\AppData\Local\Temp\ccGGKGa0.s 			page 31


 716:Generated_Source\PSoC4/CapSense_CSD_CSHL.c **** *  None
 717:Generated_Source\PSoC4/CapSense_CSD_CSHL.c **** *
 718:Generated_Source\PSoC4/CapSense_CSD_CSHL.c **** *******************************************************************************/
 719:Generated_Source\PSoC4/CapSense_CSD_CSHL.c **** uint16 CapSense_CSD_GetBaselineData(uint32 sensor)
 720:Generated_Source\PSoC4/CapSense_CSD_CSHL.c **** {
 972              		.loc 1 720 0
 973              		.cfi_startproc
 974              		@ args = 0, pretend = 0, frame = 8
 975              		@ frame_needed = 1, uses_anonymous_args = 0
 976 0000 80B5     		push	{r7, lr}
 977              		.cfi_def_cfa_offset 8
 978              		.cfi_offset 7, -8
 979              		.cfi_offset 14, -4
 980 0002 82B0     		sub	sp, sp, #8
 981              		.cfi_def_cfa_offset 16
 982 0004 00AF     		add	r7, sp, #0
 983              		.cfi_def_cfa_register 7
 984 0006 7860     		str	r0, [r7, #4]
 721:Generated_Source\PSoC4/CapSense_CSD_CSHL.c ****     return (CapSense_CSD_sensorBaseline[sensor]);
 985              		.loc 1 721 0
 986 0008 034B     		ldr	r3, .L43
 987 000a 7A68     		ldr	r2, [r7, #4]
 988 000c 5200     		lsls	r2, r2, #1
 989 000e D35A     		ldrh	r3, [r2, r3]
 722:Generated_Source\PSoC4/CapSense_CSD_CSHL.c **** }
 990              		.loc 1 722 0
 991 0010 1800     		movs	r0, r3
 992 0012 BD46     		mov	sp, r7
 993 0014 02B0     		add	sp, sp, #8
 994              		@ sp needed
 995 0016 80BD     		pop	{r7, pc}
 996              	.L44:
 997              		.align	2
 998              	.L43:
 999 0018 00000000 		.word	CapSense_CSD_sensorBaseline
 1000              		.cfi_endproc
 1001              	.LFE40:
 1002              		.size	CapSense_CSD_GetBaselineData, .-CapSense_CSD_GetBaselineData
 1003              		.section	.text.CapSense_CSD_SetBaselineData,"ax",%progbits
 1004              		.align	2
 1005              		.global	CapSense_CSD_SetBaselineData
 1006              		.code	16
 1007              		.thumb_func
 1008              		.type	CapSense_CSD_SetBaselineData, %function
 1009              	CapSense_CSD_SetBaselineData:
 1010              	.LFB41:
 723:Generated_Source\PSoC4/CapSense_CSD_CSHL.c **** 
 724:Generated_Source\PSoC4/CapSense_CSD_CSHL.c **** 
 725:Generated_Source\PSoC4/CapSense_CSD_CSHL.c **** /*******************************************************************************
 726:Generated_Source\PSoC4/CapSense_CSD_CSHL.c **** * Function Name: CapSense_CSD_SetBaselineData
 727:Generated_Source\PSoC4/CapSense_CSD_CSHL.c **** ********************************************************************************
 728:Generated_Source\PSoC4/CapSense_CSD_CSHL.c **** *
 729:Generated_Source\PSoC4/CapSense_CSD_CSHL.c **** * Summary:
 730:Generated_Source\PSoC4/CapSense_CSD_CSHL.c **** *  This API writes the data value passed as an argument to the sensor baseline array.
 731:Generated_Source\PSoC4/CapSense_CSD_CSHL.c **** *
 732:Generated_Source\PSoC4/CapSense_CSD_CSHL.c **** * Parameters:
 733:Generated_Source\PSoC4/CapSense_CSD_CSHL.c **** *  sensor:  Sensor number.
ARM GAS  C:\Users\SHOZO\AppData\Local\Temp\ccGGKGa0.s 			page 32


 734:Generated_Source\PSoC4/CapSense_CSD_CSHL.c **** *  data:    Sensor baseline.
 735:Generated_Source\PSoC4/CapSense_CSD_CSHL.c **** *
 736:Generated_Source\PSoC4/CapSense_CSD_CSHL.c **** * Return:
 737:Generated_Source\PSoC4/CapSense_CSD_CSHL.c **** *  None.
 738:Generated_Source\PSoC4/CapSense_CSD_CSHL.c **** *
 739:Generated_Source\PSoC4/CapSense_CSD_CSHL.c **** * Global Variables:
 740:Generated_Source\PSoC4/CapSense_CSD_CSHL.c **** *  CapSense_CSD_sensorBaseline[] - the array with initial values by scanning
 741:Generated_Source\PSoC4/CapSense_CSD_CSHL.c **** *
 742:Generated_Source\PSoC4/CapSense_CSD_CSHL.c **** * Side Effects:
 743:Generated_Source\PSoC4/CapSense_CSD_CSHL.c **** *  None
 744:Generated_Source\PSoC4/CapSense_CSD_CSHL.c **** *
 745:Generated_Source\PSoC4/CapSense_CSD_CSHL.c **** *******************************************************************************/
 746:Generated_Source\PSoC4/CapSense_CSD_CSHL.c **** void CapSense_CSD_SetBaselineData(uint32 sensor, uint16 data)
 747:Generated_Source\PSoC4/CapSense_CSD_CSHL.c **** {
 1011              		.loc 1 747 0
 1012              		.cfi_startproc
 1013              		@ args = 0, pretend = 0, frame = 8
 1014              		@ frame_needed = 1, uses_anonymous_args = 0
 1015 0000 80B5     		push	{r7, lr}
 1016              		.cfi_def_cfa_offset 8
 1017              		.cfi_offset 7, -8
 1018              		.cfi_offset 14, -4
 1019 0002 82B0     		sub	sp, sp, #8
 1020              		.cfi_def_cfa_offset 16
 1021 0004 00AF     		add	r7, sp, #0
 1022              		.cfi_def_cfa_register 7
 1023 0006 7860     		str	r0, [r7, #4]
 1024 0008 0A00     		movs	r2, r1
 1025 000a BB1C     		adds	r3, r7, #2
 1026 000c 1A80     		strh	r2, [r3]
 748:Generated_Source\PSoC4/CapSense_CSD_CSHL.c ****     CapSense_CSD_sensorBaseline[sensor] = data;
 1027              		.loc 1 748 0
 1028 000e 054B     		ldr	r3, .L46
 1029 0010 7A68     		ldr	r2, [r7, #4]
 1030 0012 5200     		lsls	r2, r2, #1
 1031 0014 B91C     		adds	r1, r7, #2
 1032 0016 0988     		ldrh	r1, [r1]
 1033 0018 D152     		strh	r1, [r2, r3]
 749:Generated_Source\PSoC4/CapSense_CSD_CSHL.c **** }
 1034              		.loc 1 749 0
 1035 001a C046     		nop
 1036 001c BD46     		mov	sp, r7
 1037 001e 02B0     		add	sp, sp, #8
 1038              		@ sp needed
 1039 0020 80BD     		pop	{r7, pc}
 1040              	.L47:
 1041 0022 C046     		.align	2
 1042              	.L46:
 1043 0024 00000000 		.word	CapSense_CSD_sensorBaseline
 1044              		.cfi_endproc
 1045              	.LFE41:
 1046              		.size	CapSense_CSD_SetBaselineData, .-CapSense_CSD_SetBaselineData
 1047              		.section	.text.CapSense_CSD_GetDiffCountData,"ax",%progbits
 1048              		.align	2
 1049              		.global	CapSense_CSD_GetDiffCountData
 1050              		.code	16
 1051              		.thumb_func
ARM GAS  C:\Users\SHOZO\AppData\Local\Temp\ccGGKGa0.s 			page 33


 1052              		.type	CapSense_CSD_GetDiffCountData, %function
 1053              	CapSense_CSD_GetDiffCountData:
 1054              	.LFB42:
 750:Generated_Source\PSoC4/CapSense_CSD_CSHL.c **** 
 751:Generated_Source\PSoC4/CapSense_CSD_CSHL.c **** 
 752:Generated_Source\PSoC4/CapSense_CSD_CSHL.c **** /*******************************************************************************
 753:Generated_Source\PSoC4/CapSense_CSD_CSHL.c **** * Function Name: CapSense_CSD_GetDiffCountData
 754:Generated_Source\PSoC4/CapSense_CSD_CSHL.c **** ********************************************************************************
 755:Generated_Source\PSoC4/CapSense_CSD_CSHL.c **** *
 756:Generated_Source\PSoC4/CapSense_CSD_CSHL.c **** * Summary:
 757:Generated_Source\PSoC4/CapSense_CSD_CSHL.c **** *  This function returns the Sensor Signal from the component.
 758:Generated_Source\PSoC4/CapSense_CSD_CSHL.c **** *
 759:Generated_Source\PSoC4/CapSense_CSD_CSHL.c **** * Parameters:
 760:Generated_Source\PSoC4/CapSense_CSD_CSHL.c **** *  sensor:  Sensor number.
 761:Generated_Source\PSoC4/CapSense_CSD_CSHL.c **** *
 762:Generated_Source\PSoC4/CapSense_CSD_CSHL.c **** * Return:
 763:Generated_Source\PSoC4/CapSense_CSD_CSHL.c **** *  This API returns the difference count value of the sensor indicated by the
 764:Generated_Source\PSoC4/CapSense_CSD_CSHL.c **** *  argument.
 765:Generated_Source\PSoC4/CapSense_CSD_CSHL.c **** *
 766:Generated_Source\PSoC4/CapSense_CSD_CSHL.c **** * Global Variables:
 767:Generated_Source\PSoC4/CapSense_CSD_CSHL.c **** *  CapSense_CSD_sensorSignal[] - the array with difference counts for sensors
 768:Generated_Source\PSoC4/CapSense_CSD_CSHL.c **** *
 769:Generated_Source\PSoC4/CapSense_CSD_CSHL.c **** * Side Effects:
 770:Generated_Source\PSoC4/CapSense_CSD_CSHL.c **** *  None
 771:Generated_Source\PSoC4/CapSense_CSD_CSHL.c **** *
 772:Generated_Source\PSoC4/CapSense_CSD_CSHL.c **** *******************************************************************************/
 773:Generated_Source\PSoC4/CapSense_CSD_CSHL.c **** uint16 CapSense_CSD_GetDiffCountData(uint32 sensor)
 774:Generated_Source\PSoC4/CapSense_CSD_CSHL.c **** {
 1055              		.loc 1 774 0
 1056              		.cfi_startproc
 1057              		@ args = 0, pretend = 0, frame = 8
 1058              		@ frame_needed = 1, uses_anonymous_args = 0
 1059 0000 80B5     		push	{r7, lr}
 1060              		.cfi_def_cfa_offset 8
 1061              		.cfi_offset 7, -8
 1062              		.cfi_offset 14, -4
 1063 0002 82B0     		sub	sp, sp, #8
 1064              		.cfi_def_cfa_offset 16
 1065 0004 00AF     		add	r7, sp, #0
 1066              		.cfi_def_cfa_register 7
 1067 0006 7860     		str	r0, [r7, #4]
 775:Generated_Source\PSoC4/CapSense_CSD_CSHL.c ****     return (CapSense_CSD_sensorSignal[sensor]);
 1068              		.loc 1 775 0
 1069 0008 034B     		ldr	r3, .L50
 1070 000a 7A68     		ldr	r2, [r7, #4]
 1071 000c 5200     		lsls	r2, r2, #1
 1072 000e D35A     		ldrh	r3, [r2, r3]
 776:Generated_Source\PSoC4/CapSense_CSD_CSHL.c **** }
 1073              		.loc 1 776 0
 1074 0010 1800     		movs	r0, r3
 1075 0012 BD46     		mov	sp, r7
 1076 0014 02B0     		add	sp, sp, #8
 1077              		@ sp needed
 1078 0016 80BD     		pop	{r7, pc}
 1079              	.L51:
 1080              		.align	2
 1081              	.L50:
ARM GAS  C:\Users\SHOZO\AppData\Local\Temp\ccGGKGa0.s 			page 34


 1082 0018 00000000 		.word	CapSense_CSD_sensorSignal
 1083              		.cfi_endproc
 1084              	.LFE42:
 1085              		.size	CapSense_CSD_GetDiffCountData, .-CapSense_CSD_GetDiffCountData
 1086              		.section	.text.CapSense_CSD_SetDiffCountData,"ax",%progbits
 1087              		.align	2
 1088              		.global	CapSense_CSD_SetDiffCountData
 1089              		.code	16
 1090              		.thumb_func
 1091              		.type	CapSense_CSD_SetDiffCountData, %function
 1092              	CapSense_CSD_SetDiffCountData:
 1093              	.LFB43:
 777:Generated_Source\PSoC4/CapSense_CSD_CSHL.c **** 
 778:Generated_Source\PSoC4/CapSense_CSD_CSHL.c **** 
 779:Generated_Source\PSoC4/CapSense_CSD_CSHL.c **** /*******************************************************************************
 780:Generated_Source\PSoC4/CapSense_CSD_CSHL.c **** * Function Name: CapSense_CSD_SetDiffCountData
 781:Generated_Source\PSoC4/CapSense_CSD_CSHL.c **** ********************************************************************************
 782:Generated_Source\PSoC4/CapSense_CSD_CSHL.c **** *
 783:Generated_Source\PSoC4/CapSense_CSD_CSHL.c **** * Summary:
 784:Generated_Source\PSoC4/CapSense_CSD_CSHL.c **** *  This API writes the data value passed as an argument to the sensor signal array.
 785:Generated_Source\PSoC4/CapSense_CSD_CSHL.c **** *
 786:Generated_Source\PSoC4/CapSense_CSD_CSHL.c **** * Parameters:
 787:Generated_Source\PSoC4/CapSense_CSD_CSHL.c **** *  sensor:  Sensor number.
 788:Generated_Source\PSoC4/CapSense_CSD_CSHL.c **** *  value:   Sensor signal.
 789:Generated_Source\PSoC4/CapSense_CSD_CSHL.c **** *
 790:Generated_Source\PSoC4/CapSense_CSD_CSHL.c **** * Return:
 791:Generated_Source\PSoC4/CapSense_CSD_CSHL.c **** *  None.
 792:Generated_Source\PSoC4/CapSense_CSD_CSHL.c **** *
 793:Generated_Source\PSoC4/CapSense_CSD_CSHL.c **** * Global Variables:
 794:Generated_Source\PSoC4/CapSense_CSD_CSHL.c **** *  CapSense_CSD_sensorSignal[] - the array with difference counts for sensors
 795:Generated_Source\PSoC4/CapSense_CSD_CSHL.c **** *
 796:Generated_Source\PSoC4/CapSense_CSD_CSHL.c **** * Side Effects:
 797:Generated_Source\PSoC4/CapSense_CSD_CSHL.c **** *  None
 798:Generated_Source\PSoC4/CapSense_CSD_CSHL.c **** *
 799:Generated_Source\PSoC4/CapSense_CSD_CSHL.c **** *******************************************************************************/
 800:Generated_Source\PSoC4/CapSense_CSD_CSHL.c **** void CapSense_CSD_SetDiffCountData(uint32 sensor, uint16 value)
 801:Generated_Source\PSoC4/CapSense_CSD_CSHL.c **** {
 1094              		.loc 1 801 0
 1095              		.cfi_startproc
 1096              		@ args = 0, pretend = 0, frame = 8
 1097              		@ frame_needed = 1, uses_anonymous_args = 0
 1098 0000 80B5     		push	{r7, lr}
 1099              		.cfi_def_cfa_offset 8
 1100              		.cfi_offset 7, -8
 1101              		.cfi_offset 14, -4
 1102 0002 82B0     		sub	sp, sp, #8
 1103              		.cfi_def_cfa_offset 16
 1104 0004 00AF     		add	r7, sp, #0
 1105              		.cfi_def_cfa_register 7
 1106 0006 7860     		str	r0, [r7, #4]
 1107 0008 0A00     		movs	r2, r1
 1108 000a BB1C     		adds	r3, r7, #2
 1109 000c 1A80     		strh	r2, [r3]
 802:Generated_Source\PSoC4/CapSense_CSD_CSHL.c ****     CapSense_CSD_sensorSignal[sensor] = value;
 1110              		.loc 1 802 0
 1111 000e 054B     		ldr	r3, .L53
 1112 0010 7A68     		ldr	r2, [r7, #4]
ARM GAS  C:\Users\SHOZO\AppData\Local\Temp\ccGGKGa0.s 			page 35


 1113 0012 5200     		lsls	r2, r2, #1
 1114 0014 B91C     		adds	r1, r7, #2
 1115 0016 0988     		ldrh	r1, [r1]
 1116 0018 D152     		strh	r1, [r2, r3]
 803:Generated_Source\PSoC4/CapSense_CSD_CSHL.c **** }
 1117              		.loc 1 803 0
 1118 001a C046     		nop
 1119 001c BD46     		mov	sp, r7
 1120 001e 02B0     		add	sp, sp, #8
 1121              		@ sp needed
 1122 0020 80BD     		pop	{r7, pc}
 1123              	.L54:
 1124 0022 C046     		.align	2
 1125              	.L53:
 1126 0024 00000000 		.word	CapSense_CSD_sensorSignal
 1127              		.cfi_endproc
 1128              	.LFE43:
 1129              		.size	CapSense_CSD_SetDiffCountData, .-CapSense_CSD_SetDiffCountData
 1130              		.section	.text.CapSense_CSD_GetFingerThreshold,"ax",%progbits
 1131              		.align	2
 1132              		.global	CapSense_CSD_GetFingerThreshold
 1133              		.code	16
 1134              		.thumb_func
 1135              		.type	CapSense_CSD_GetFingerThreshold, %function
 1136              	CapSense_CSD_GetFingerThreshold:
 1137              	.LFB44:
 804:Generated_Source\PSoC4/CapSense_CSD_CSHL.c **** 
 805:Generated_Source\PSoC4/CapSense_CSD_CSHL.c **** 
 806:Generated_Source\PSoC4/CapSense_CSD_CSHL.c **** /*******************************************************************************
 807:Generated_Source\PSoC4/CapSense_CSD_CSHL.c **** * Function Name: CapSense_CSD_GetFingerThreshold
 808:Generated_Source\PSoC4/CapSense_CSD_CSHL.c **** ********************************************************************************
 809:Generated_Source\PSoC4/CapSense_CSD_CSHL.c **** *
 810:Generated_Source\PSoC4/CapSense_CSD_CSHL.c **** * Summary:
 811:Generated_Source\PSoC4/CapSense_CSD_CSHL.c **** *  This function reads the finger threshold from the component.
 812:Generated_Source\PSoC4/CapSense_CSD_CSHL.c **** *
 813:Generated_Source\PSoC4/CapSense_CSD_CSHL.c **** * Parameters:
 814:Generated_Source\PSoC4/CapSense_CSD_CSHL.c **** *  widget:  widget number.
 815:Generated_Source\PSoC4/CapSense_CSD_CSHL.c **** *
 816:Generated_Source\PSoC4/CapSense_CSD_CSHL.c **** * Return:
 817:Generated_Source\PSoC4/CapSense_CSD_CSHL.c **** *  This API returns the finger threshold of the widget indicated by the argument.
 818:Generated_Source\PSoC4/CapSense_CSD_CSHL.c **** *
 819:Generated_Source\PSoC4/CapSense_CSD_CSHL.c **** * Global Variables:
 820:Generated_Source\PSoC4/CapSense_CSD_CSHL.c **** *  CapSense_CSD_fingerThreshold[] - This array contains the level of signal
 821:Generated_Source\PSoC4/CapSense_CSD_CSHL.c **** *  for each widget that is determined if a finger is present on the widget.
 822:Generated_Source\PSoC4/CapSense_CSD_CSHL.c **** *
 823:Generated_Source\PSoC4/CapSense_CSD_CSHL.c **** * Side Effects:
 824:Generated_Source\PSoC4/CapSense_CSD_CSHL.c **** *  None
 825:Generated_Source\PSoC4/CapSense_CSD_CSHL.c **** *
 826:Generated_Source\PSoC4/CapSense_CSD_CSHL.c **** *******************************************************************************/
 827:Generated_Source\PSoC4/CapSense_CSD_CSHL.c **** uint16 CapSense_CSD_GetFingerThreshold(uint32 widget)
 828:Generated_Source\PSoC4/CapSense_CSD_CSHL.c **** {
 1138              		.loc 1 828 0
 1139              		.cfi_startproc
 1140              		@ args = 0, pretend = 0, frame = 8
 1141              		@ frame_needed = 1, uses_anonymous_args = 0
 1142 0000 80B5     		push	{r7, lr}
 1143              		.cfi_def_cfa_offset 8
ARM GAS  C:\Users\SHOZO\AppData\Local\Temp\ccGGKGa0.s 			page 36


 1144              		.cfi_offset 7, -8
 1145              		.cfi_offset 14, -4
 1146 0002 82B0     		sub	sp, sp, #8
 1147              		.cfi_def_cfa_offset 16
 1148 0004 00AF     		add	r7, sp, #0
 1149              		.cfi_def_cfa_register 7
 1150 0006 7860     		str	r0, [r7, #4]
 829:Generated_Source\PSoC4/CapSense_CSD_CSHL.c ****     return(CapSense_CSD_fingerThreshold[widget]);
 1151              		.loc 1 829 0
 1152 0008 034B     		ldr	r3, .L57
 1153 000a 7A68     		ldr	r2, [r7, #4]
 1154 000c 5200     		lsls	r2, r2, #1
 1155 000e D35A     		ldrh	r3, [r2, r3]
 830:Generated_Source\PSoC4/CapSense_CSD_CSHL.c **** }
 1156              		.loc 1 830 0
 1157 0010 1800     		movs	r0, r3
 1158 0012 BD46     		mov	sp, r7
 1159 0014 02B0     		add	sp, sp, #8
 1160              		@ sp needed
 1161 0016 80BD     		pop	{r7, pc}
 1162              	.L58:
 1163              		.align	2
 1164              	.L57:
 1165 0018 00000000 		.word	CapSense_CSD_fingerThreshold
 1166              		.cfi_endproc
 1167              	.LFE44:
 1168              		.size	CapSense_CSD_GetFingerThreshold, .-CapSense_CSD_GetFingerThreshold
 1169              		.section	.text.CapSense_CSD_GetNoiseThreshold,"ax",%progbits
 1170              		.align	2
 1171              		.global	CapSense_CSD_GetNoiseThreshold
 1172              		.code	16
 1173              		.thumb_func
 1174              		.type	CapSense_CSD_GetNoiseThreshold, %function
 1175              	CapSense_CSD_GetNoiseThreshold:
 1176              	.LFB45:
 831:Generated_Source\PSoC4/CapSense_CSD_CSHL.c **** 
 832:Generated_Source\PSoC4/CapSense_CSD_CSHL.c **** 
 833:Generated_Source\PSoC4/CapSense_CSD_CSHL.c **** /*******************************************************************************
 834:Generated_Source\PSoC4/CapSense_CSD_CSHL.c **** * Function Name: CapSense_CSD_GetNoiseThreshold
 835:Generated_Source\PSoC4/CapSense_CSD_CSHL.c **** ********************************************************************************
 836:Generated_Source\PSoC4/CapSense_CSD_CSHL.c **** *
 837:Generated_Source\PSoC4/CapSense_CSD_CSHL.c **** * Summary:
 838:Generated_Source\PSoC4/CapSense_CSD_CSHL.c **** *  This function reads the noise threshold from the component.
 839:Generated_Source\PSoC4/CapSense_CSD_CSHL.c **** *
 840:Generated_Source\PSoC4/CapSense_CSD_CSHL.c **** * Parameters:
 841:Generated_Source\PSoC4/CapSense_CSD_CSHL.c **** *  widget:  widget number.
 842:Generated_Source\PSoC4/CapSense_CSD_CSHL.c **** *
 843:Generated_Source\PSoC4/CapSense_CSD_CSHL.c **** * Return:
 844:Generated_Source\PSoC4/CapSense_CSD_CSHL.c **** *  This API returns the noise threshold of the widget indicated by the argument.
 845:Generated_Source\PSoC4/CapSense_CSD_CSHL.c **** *
 846:Generated_Source\PSoC4/CapSense_CSD_CSHL.c **** * Global Variables:
 847:Generated_Source\PSoC4/CapSense_CSD_CSHL.c **** *  CapSense_CSD_noiseThreshold[] - This array contains the level of signal
 848:Generated_Source\PSoC4/CapSense_CSD_CSHL.c **** *  for each widget that determines the level of noise in the capacitive scan.
 849:Generated_Source\PSoC4/CapSense_CSD_CSHL.c **** *
 850:Generated_Source\PSoC4/CapSense_CSD_CSHL.c **** * Side Effects:
 851:Generated_Source\PSoC4/CapSense_CSD_CSHL.c **** *  None
 852:Generated_Source\PSoC4/CapSense_CSD_CSHL.c **** *
ARM GAS  C:\Users\SHOZO\AppData\Local\Temp\ccGGKGa0.s 			page 37


 853:Generated_Source\PSoC4/CapSense_CSD_CSHL.c **** *******************************************************************************/
 854:Generated_Source\PSoC4/CapSense_CSD_CSHL.c **** uint16 CapSense_CSD_GetNoiseThreshold(uint32 widget)
 855:Generated_Source\PSoC4/CapSense_CSD_CSHL.c **** {
 1177              		.loc 1 855 0
 1178              		.cfi_startproc
 1179              		@ args = 0, pretend = 0, frame = 8
 1180              		@ frame_needed = 1, uses_anonymous_args = 0
 1181 0000 80B5     		push	{r7, lr}
 1182              		.cfi_def_cfa_offset 8
 1183              		.cfi_offset 7, -8
 1184              		.cfi_offset 14, -4
 1185 0002 82B0     		sub	sp, sp, #8
 1186              		.cfi_def_cfa_offset 16
 1187 0004 00AF     		add	r7, sp, #0
 1188              		.cfi_def_cfa_register 7
 1189 0006 7860     		str	r0, [r7, #4]
 856:Generated_Source\PSoC4/CapSense_CSD_CSHL.c ****     return (CapSense_CSD_noiseThreshold[widget]);
 1190              		.loc 1 856 0
 1191 0008 034B     		ldr	r3, .L61
 1192 000a 7A68     		ldr	r2, [r7, #4]
 1193 000c 5200     		lsls	r2, r2, #1
 1194 000e D35A     		ldrh	r3, [r2, r3]
 857:Generated_Source\PSoC4/CapSense_CSD_CSHL.c **** }
 1195              		.loc 1 857 0
 1196 0010 1800     		movs	r0, r3
 1197 0012 BD46     		mov	sp, r7
 1198 0014 02B0     		add	sp, sp, #8
 1199              		@ sp needed
 1200 0016 80BD     		pop	{r7, pc}
 1201              	.L62:
 1202              		.align	2
 1203              	.L61:
 1204 0018 00000000 		.word	CapSense_CSD_noiseThreshold
 1205              		.cfi_endproc
 1206              	.LFE45:
 1207              		.size	CapSense_CSD_GetNoiseThreshold, .-CapSense_CSD_GetNoiseThreshold
 1208              		.section	.text.CapSense_CSD_GetFingerHysteresis,"ax",%progbits
 1209              		.align	2
 1210              		.global	CapSense_CSD_GetFingerHysteresis
 1211              		.code	16
 1212              		.thumb_func
 1213              		.type	CapSense_CSD_GetFingerHysteresis, %function
 1214              	CapSense_CSD_GetFingerHysteresis:
 1215              	.LFB46:
 858:Generated_Source\PSoC4/CapSense_CSD_CSHL.c **** 
 859:Generated_Source\PSoC4/CapSense_CSD_CSHL.c **** 
 860:Generated_Source\PSoC4/CapSense_CSD_CSHL.c **** /*******************************************************************************
 861:Generated_Source\PSoC4/CapSense_CSD_CSHL.c **** * Function Name: CapSense_CSD_GetFingerHysteresis
 862:Generated_Source\PSoC4/CapSense_CSD_CSHL.c **** ********************************************************************************
 863:Generated_Source\PSoC4/CapSense_CSD_CSHL.c **** *
 864:Generated_Source\PSoC4/CapSense_CSD_CSHL.c **** * Summary:
 865:Generated_Source\PSoC4/CapSense_CSD_CSHL.c **** *  This function reads the Hysteresis value from the component.
 866:Generated_Source\PSoC4/CapSense_CSD_CSHL.c **** *
 867:Generated_Source\PSoC4/CapSense_CSD_CSHL.c **** * Parameters:
 868:Generated_Source\PSoC4/CapSense_CSD_CSHL.c **** *  widget:  widget number.
 869:Generated_Source\PSoC4/CapSense_CSD_CSHL.c **** *
 870:Generated_Source\PSoC4/CapSense_CSD_CSHL.c **** * Return:
ARM GAS  C:\Users\SHOZO\AppData\Local\Temp\ccGGKGa0.s 			page 38


 871:Generated_Source\PSoC4/CapSense_CSD_CSHL.c **** *  This API returns the Hysteresis of the widget indicated by the argument.
 872:Generated_Source\PSoC4/CapSense_CSD_CSHL.c **** *
 873:Generated_Source\PSoC4/CapSense_CSD_CSHL.c **** * Global Variables:
 874:Generated_Source\PSoC4/CapSense_CSD_CSHL.c **** *  CapSense_CSD_hysteresis[] - This array contains the hysteresis value
 875:Generated_Source\PSoC4/CapSense_CSD_CSHL.c **** *   for each widget.
 876:Generated_Source\PSoC4/CapSense_CSD_CSHL.c **** *  CapSense_CSD_widgetNumberSld - structure with dynamic sliders' parameters.
 877:Generated_Source\PSoC4/CapSense_CSD_CSHL.c **** *
 878:Generated_Source\PSoC4/CapSense_CSD_CSHL.c **** * Side Effects:
 879:Generated_Source\PSoC4/CapSense_CSD_CSHL.c **** *  None
 880:Generated_Source\PSoC4/CapSense_CSD_CSHL.c **** *
 881:Generated_Source\PSoC4/CapSense_CSD_CSHL.c **** *******************************************************************************/
 882:Generated_Source\PSoC4/CapSense_CSD_CSHL.c **** uint16 CapSense_CSD_GetFingerHysteresis(uint32 widget)
 883:Generated_Source\PSoC4/CapSense_CSD_CSHL.c **** {
 1216              		.loc 1 883 0
 1217              		.cfi_startproc
 1218              		@ args = 0, pretend = 0, frame = 8
 1219              		@ frame_needed = 1, uses_anonymous_args = 0
 1220 0000 80B5     		push	{r7, lr}
 1221              		.cfi_def_cfa_offset 8
 1222              		.cfi_offset 7, -8
 1223              		.cfi_offset 14, -4
 1224 0002 82B0     		sub	sp, sp, #8
 1225              		.cfi_def_cfa_offset 16
 1226 0004 00AF     		add	r7, sp, #0
 1227              		.cfi_def_cfa_register 7
 1228 0006 7860     		str	r0, [r7, #4]
 884:Generated_Source\PSoC4/CapSense_CSD_CSHL.c ****     return(CapSense_CSD_hysteresis[widget]);
 1229              		.loc 1 884 0
 1230 0008 034B     		ldr	r3, .L65
 1231 000a 7A68     		ldr	r2, [r7, #4]
 1232 000c 5200     		lsls	r2, r2, #1
 1233 000e D35A     		ldrh	r3, [r2, r3]
 885:Generated_Source\PSoC4/CapSense_CSD_CSHL.c **** }
 1234              		.loc 1 885 0
 1235 0010 1800     		movs	r0, r3
 1236 0012 BD46     		mov	sp, r7
 1237 0014 02B0     		add	sp, sp, #8
 1238              		@ sp needed
 1239 0016 80BD     		pop	{r7, pc}
 1240              	.L66:
 1241              		.align	2
 1242              	.L65:
 1243 0018 00000000 		.word	CapSense_CSD_hysteresis
 1244              		.cfi_endproc
 1245              	.LFE46:
 1246              		.size	CapSense_CSD_GetFingerHysteresis, .-CapSense_CSD_GetFingerHysteresis
 1247              		.section	.text.CapSense_CSD_GetNegativeNoiseThreshold,"ax",%progbits
 1248              		.align	2
 1249              		.global	CapSense_CSD_GetNegativeNoiseThreshold
 1250              		.code	16
 1251              		.thumb_func
 1252              		.type	CapSense_CSD_GetNegativeNoiseThreshold, %function
 1253              	CapSense_CSD_GetNegativeNoiseThreshold:
 1254              	.LFB47:
 886:Generated_Source\PSoC4/CapSense_CSD_CSHL.c **** 
 887:Generated_Source\PSoC4/CapSense_CSD_CSHL.c **** 
 888:Generated_Source\PSoC4/CapSense_CSD_CSHL.c **** /*******************************************************************************
ARM GAS  C:\Users\SHOZO\AppData\Local\Temp\ccGGKGa0.s 			page 39


 889:Generated_Source\PSoC4/CapSense_CSD_CSHL.c **** * Function Name: CapSense_CSD_GetNegativeNoiseThreshold
 890:Generated_Source\PSoC4/CapSense_CSD_CSHL.c **** ********************************************************************************
 891:Generated_Source\PSoC4/CapSense_CSD_CSHL.c **** *
 892:Generated_Source\PSoC4/CapSense_CSD_CSHL.c **** * Summary:
 893:Generated_Source\PSoC4/CapSense_CSD_CSHL.c **** *  This function reads the negative noise threshold from the component.
 894:Generated_Source\PSoC4/CapSense_CSD_CSHL.c **** *
 895:Generated_Source\PSoC4/CapSense_CSD_CSHL.c **** * Parameters:
 896:Generated_Source\PSoC4/CapSense_CSD_CSHL.c **** *  None.
 897:Generated_Source\PSoC4/CapSense_CSD_CSHL.c **** *
 898:Generated_Source\PSoC4/CapSense_CSD_CSHL.c **** * Return Value:
 899:Generated_Source\PSoC4/CapSense_CSD_CSHL.c **** *  This API returns the negative noise threshold
 900:Generated_Source\PSoC4/CapSense_CSD_CSHL.c **** *
 901:Generated_Source\PSoC4/CapSense_CSD_CSHL.c **** * Global Variables:
 902:Generated_Source\PSoC4/CapSense_CSD_CSHL.c **** *  CapSense_CSD_negativeNoiseThreshold - This variable specifies the negative
 903:Generated_Source\PSoC4/CapSense_CSD_CSHL.c **** *   difference between the raw count and baseline levels for Baseline resetting
 904:Generated_Source\PSoC4/CapSense_CSD_CSHL.c **** *   to the raw count level.
 905:Generated_Source\PSoC4/CapSense_CSD_CSHL.c **** *
 906:Generated_Source\PSoC4/CapSense_CSD_CSHL.c **** * Side Effects:
 907:Generated_Source\PSoC4/CapSense_CSD_CSHL.c **** *  None
 908:Generated_Source\PSoC4/CapSense_CSD_CSHL.c **** *
 909:Generated_Source\PSoC4/CapSense_CSD_CSHL.c **** *******************************************************************************/
 910:Generated_Source\PSoC4/CapSense_CSD_CSHL.c **** uint16 CapSense_CSD_GetNegativeNoiseThreshold(uint32 widget)
 911:Generated_Source\PSoC4/CapSense_CSD_CSHL.c **** {
 1255              		.loc 1 911 0
 1256              		.cfi_startproc
 1257              		@ args = 0, pretend = 0, frame = 8
 1258              		@ frame_needed = 1, uses_anonymous_args = 0
 1259 0000 80B5     		push	{r7, lr}
 1260              		.cfi_def_cfa_offset 8
 1261              		.cfi_offset 7, -8
 1262              		.cfi_offset 14, -4
 1263 0002 82B0     		sub	sp, sp, #8
 1264              		.cfi_def_cfa_offset 16
 1265 0004 00AF     		add	r7, sp, #0
 1266              		.cfi_def_cfa_register 7
 1267 0006 7860     		str	r0, [r7, #4]
 912:Generated_Source\PSoC4/CapSense_CSD_CSHL.c **** #if (CapSense_CSD_TUNING_METHOD != CapSense_CSD__TUNING_NONE)
 913:Generated_Source\PSoC4/CapSense_CSD_CSHL.c ****     return(CapSense_CSD_negativeNoiseThreshold[widget]);
 1268              		.loc 1 913 0
 1269 0008 034B     		ldr	r3, .L69
 1270 000a 7A68     		ldr	r2, [r7, #4]
 1271 000c 5200     		lsls	r2, r2, #1
 1272 000e D35A     		ldrh	r3, [r2, r3]
 914:Generated_Source\PSoC4/CapSense_CSD_CSHL.c **** #else
 915:Generated_Source\PSoC4/CapSense_CSD_CSHL.c ****     return(CapSense_CSD_NEGATIVE_NOISE_THRESHOLD);
 916:Generated_Source\PSoC4/CapSense_CSD_CSHL.c **** #endif /* (CapSense_CSD_TUNING_METHOD != CapSense_CSD__TUNING_NONE) */
 917:Generated_Source\PSoC4/CapSense_CSD_CSHL.c **** }
 1273              		.loc 1 917 0
 1274 0010 1800     		movs	r0, r3
 1275 0012 BD46     		mov	sp, r7
 1276 0014 02B0     		add	sp, sp, #8
 1277              		@ sp needed
 1278 0016 80BD     		pop	{r7, pc}
 1279              	.L70:
 1280              		.align	2
 1281              	.L69:
 1282 0018 00000000 		.word	CapSense_CSD_negativeNoiseThreshold
ARM GAS  C:\Users\SHOZO\AppData\Local\Temp\ccGGKGa0.s 			page 40


 1283              		.cfi_endproc
 1284              	.LFE47:
 1285              		.size	CapSense_CSD_GetNegativeNoiseThreshold, .-CapSense_CSD_GetNegativeNoiseThreshold
 1286              		.section	.text.CapSense_CSD_SetFingerThreshold,"ax",%progbits
 1287              		.align	2
 1288              		.global	CapSense_CSD_SetFingerThreshold
 1289              		.code	16
 1290              		.thumb_func
 1291              		.type	CapSense_CSD_SetFingerThreshold, %function
 1292              	CapSense_CSD_SetFingerThreshold:
 1293              	.LFB48:
 918:Generated_Source\PSoC4/CapSense_CSD_CSHL.c **** 
 919:Generated_Source\PSoC4/CapSense_CSD_CSHL.c **** 
 920:Generated_Source\PSoC4/CapSense_CSD_CSHL.c **** #if(CapSense_CSD_TUNING_METHOD != CapSense_CSD__TUNING_NONE)
 921:Generated_Source\PSoC4/CapSense_CSD_CSHL.c ****     /*******************************************************************************
 922:Generated_Source\PSoC4/CapSense_CSD_CSHL.c ****     * Function Name: CapSense_CSD_SetFingerThreshold
 923:Generated_Source\PSoC4/CapSense_CSD_CSHL.c ****     ********************************************************************************
 924:Generated_Source\PSoC4/CapSense_CSD_CSHL.c ****     *
 925:Generated_Source\PSoC4/CapSense_CSD_CSHL.c ****     * Summary:
 926:Generated_Source\PSoC4/CapSense_CSD_CSHL.c ****     *  This API sets the finger threshold value for a widget.
 927:Generated_Source\PSoC4/CapSense_CSD_CSHL.c ****     *
 928:Generated_Source\PSoC4/CapSense_CSD_CSHL.c ****     * Parameters:
 929:Generated_Source\PSoC4/CapSense_CSD_CSHL.c ****     *  sensorNumber:  widget index.
 930:Generated_Source\PSoC4/CapSense_CSD_CSHL.c ****     *  value:  Finger threshold value for the widget.
 931:Generated_Source\PSoC4/CapSense_CSD_CSHL.c ****     *
 932:Generated_Source\PSoC4/CapSense_CSD_CSHL.c ****     * Return Value:
 933:Generated_Source\PSoC4/CapSense_CSD_CSHL.c ****     *  None
 934:Generated_Source\PSoC4/CapSense_CSD_CSHL.c ****     *
 935:Generated_Source\PSoC4/CapSense_CSD_CSHL.c ****     * Global Variables:
 936:Generated_Source\PSoC4/CapSense_CSD_CSHL.c ****     *  CapSense_CSD_fingerThreshold[] - This array contains the level of signal
 937:Generated_Source\PSoC4/CapSense_CSD_CSHL.c ****     *   for each widget that determines if a finger is present on the widget.
 938:Generated_Source\PSoC4/CapSense_CSD_CSHL.c ****     *
 939:Generated_Source\PSoC4/CapSense_CSD_CSHL.c ****     * Side Effects:
 940:Generated_Source\PSoC4/CapSense_CSD_CSHL.c ****     *  None
 941:Generated_Source\PSoC4/CapSense_CSD_CSHL.c ****     *
 942:Generated_Source\PSoC4/CapSense_CSD_CSHL.c ****     *******************************************************************************/
 943:Generated_Source\PSoC4/CapSense_CSD_CSHL.c ****     void CapSense_CSD_SetFingerThreshold(uint32 widget, uint16 value)
 944:Generated_Source\PSoC4/CapSense_CSD_CSHL.c ****     {
 1294              		.loc 1 944 0
 1295              		.cfi_startproc
 1296              		@ args = 0, pretend = 0, frame = 8
 1297              		@ frame_needed = 1, uses_anonymous_args = 0
 1298 0000 80B5     		push	{r7, lr}
 1299              		.cfi_def_cfa_offset 8
 1300              		.cfi_offset 7, -8
 1301              		.cfi_offset 14, -4
 1302 0002 82B0     		sub	sp, sp, #8
 1303              		.cfi_def_cfa_offset 16
 1304 0004 00AF     		add	r7, sp, #0
 1305              		.cfi_def_cfa_register 7
 1306 0006 7860     		str	r0, [r7, #4]
 1307 0008 0A00     		movs	r2, r1
 1308 000a BB1C     		adds	r3, r7, #2
 1309 000c 1A80     		strh	r2, [r3]
 945:Generated_Source\PSoC4/CapSense_CSD_CSHL.c ****         CapSense_CSD_fingerThreshold[widget] = value;
 1310              		.loc 1 945 0
 1311 000e 054B     		ldr	r3, .L72
ARM GAS  C:\Users\SHOZO\AppData\Local\Temp\ccGGKGa0.s 			page 41


 1312 0010 7A68     		ldr	r2, [r7, #4]
 1313 0012 5200     		lsls	r2, r2, #1
 1314 0014 B91C     		adds	r1, r7, #2
 1315 0016 0988     		ldrh	r1, [r1]
 1316 0018 D152     		strh	r1, [r2, r3]
 946:Generated_Source\PSoC4/CapSense_CSD_CSHL.c ****     }
 1317              		.loc 1 946 0
 1318 001a C046     		nop
 1319 001c BD46     		mov	sp, r7
 1320 001e 02B0     		add	sp, sp, #8
 1321              		@ sp needed
 1322 0020 80BD     		pop	{r7, pc}
 1323              	.L73:
 1324 0022 C046     		.align	2
 1325              	.L72:
 1326 0024 00000000 		.word	CapSense_CSD_fingerThreshold
 1327              		.cfi_endproc
 1328              	.LFE48:
 1329              		.size	CapSense_CSD_SetFingerThreshold, .-CapSense_CSD_SetFingerThreshold
 1330              		.section	.text.CapSense_CSD_SetNoiseThreshold,"ax",%progbits
 1331              		.align	2
 1332              		.global	CapSense_CSD_SetNoiseThreshold
 1333              		.code	16
 1334              		.thumb_func
 1335              		.type	CapSense_CSD_SetNoiseThreshold, %function
 1336              	CapSense_CSD_SetNoiseThreshold:
 1337              	.LFB49:
 947:Generated_Source\PSoC4/CapSense_CSD_CSHL.c **** 
 948:Generated_Source\PSoC4/CapSense_CSD_CSHL.c **** 
 949:Generated_Source\PSoC4/CapSense_CSD_CSHL.c ****     /*******************************************************************************
 950:Generated_Source\PSoC4/CapSense_CSD_CSHL.c ****     * Function Name: CapSense_CSD_SetNoiseThreshold
 951:Generated_Source\PSoC4/CapSense_CSD_CSHL.c ****     ********************************************************************************
 952:Generated_Source\PSoC4/CapSense_CSD_CSHL.c ****     *
 953:Generated_Source\PSoC4/CapSense_CSD_CSHL.c ****     * Summary:
 954:Generated_Source\PSoC4/CapSense_CSD_CSHL.c ****     *  This API sets the Noise Threshold value for each widget.
 955:Generated_Source\PSoC4/CapSense_CSD_CSHL.c ****     *
 956:Generated_Source\PSoC4/CapSense_CSD_CSHL.c ****     * Parameters:
 957:Generated_Source\PSoC4/CapSense_CSD_CSHL.c ****     *  widget:  Sensor index number.
 958:Generated_Source\PSoC4/CapSense_CSD_CSHL.c ****     *  value:   Noise Threshold value for widget.
 959:Generated_Source\PSoC4/CapSense_CSD_CSHL.c ****     *
 960:Generated_Source\PSoC4/CapSense_CSD_CSHL.c ****     * Return Value:
 961:Generated_Source\PSoC4/CapSense_CSD_CSHL.c ****     *  None
 962:Generated_Source\PSoC4/CapSense_CSD_CSHL.c ****     *
 963:Generated_Source\PSoC4/CapSense_CSD_CSHL.c ****     * Global Variables:
 964:Generated_Source\PSoC4/CapSense_CSD_CSHL.c ****     *  CapSense_CSD_noiseThreshold[] - This array contains the level of signal
 965:Generated_Source\PSoC4/CapSense_CSD_CSHL.c ****     *   for each widget that determines the level of noise in the capacitive scan.
 966:Generated_Source\PSoC4/CapSense_CSD_CSHL.c ****     *
 967:Generated_Source\PSoC4/CapSense_CSD_CSHL.c ****     * Side Effects:
 968:Generated_Source\PSoC4/CapSense_CSD_CSHL.c ****     *  None
 969:Generated_Source\PSoC4/CapSense_CSD_CSHL.c ****     *
 970:Generated_Source\PSoC4/CapSense_CSD_CSHL.c ****     *******************************************************************************/
 971:Generated_Source\PSoC4/CapSense_CSD_CSHL.c ****     void CapSense_CSD_SetNoiseThreshold(uint32 widget, uint16 value)
 972:Generated_Source\PSoC4/CapSense_CSD_CSHL.c ****     {
 1338              		.loc 1 972 0
 1339              		.cfi_startproc
 1340              		@ args = 0, pretend = 0, frame = 8
 1341              		@ frame_needed = 1, uses_anonymous_args = 0
ARM GAS  C:\Users\SHOZO\AppData\Local\Temp\ccGGKGa0.s 			page 42


 1342 0000 80B5     		push	{r7, lr}
 1343              		.cfi_def_cfa_offset 8
 1344              		.cfi_offset 7, -8
 1345              		.cfi_offset 14, -4
 1346 0002 82B0     		sub	sp, sp, #8
 1347              		.cfi_def_cfa_offset 16
 1348 0004 00AF     		add	r7, sp, #0
 1349              		.cfi_def_cfa_register 7
 1350 0006 7860     		str	r0, [r7, #4]
 1351 0008 0A00     		movs	r2, r1
 1352 000a BB1C     		adds	r3, r7, #2
 1353 000c 1A80     		strh	r2, [r3]
 973:Generated_Source\PSoC4/CapSense_CSD_CSHL.c ****         CapSense_CSD_noiseThreshold[widget] = value;
 1354              		.loc 1 973 0
 1355 000e 054B     		ldr	r3, .L75
 1356 0010 7A68     		ldr	r2, [r7, #4]
 1357 0012 5200     		lsls	r2, r2, #1
 1358 0014 B91C     		adds	r1, r7, #2
 1359 0016 0988     		ldrh	r1, [r1]
 1360 0018 D152     		strh	r1, [r2, r3]
 974:Generated_Source\PSoC4/CapSense_CSD_CSHL.c ****     }
 1361              		.loc 1 974 0
 1362 001a C046     		nop
 1363 001c BD46     		mov	sp, r7
 1364 001e 02B0     		add	sp, sp, #8
 1365              		@ sp needed
 1366 0020 80BD     		pop	{r7, pc}
 1367              	.L76:
 1368 0022 C046     		.align	2
 1369              	.L75:
 1370 0024 00000000 		.word	CapSense_CSD_noiseThreshold
 1371              		.cfi_endproc
 1372              	.LFE49:
 1373              		.size	CapSense_CSD_SetNoiseThreshold, .-CapSense_CSD_SetNoiseThreshold
 1374              		.section	.text.CapSense_CSD_SetFingerHysteresis,"ax",%progbits
 1375              		.align	2
 1376              		.global	CapSense_CSD_SetFingerHysteresis
 1377              		.code	16
 1378              		.thumb_func
 1379              		.type	CapSense_CSD_SetFingerHysteresis, %function
 1380              	CapSense_CSD_SetFingerHysteresis:
 1381              	.LFB50:
 975:Generated_Source\PSoC4/CapSense_CSD_CSHL.c **** 
 976:Generated_Source\PSoC4/CapSense_CSD_CSHL.c **** 
 977:Generated_Source\PSoC4/CapSense_CSD_CSHL.c ****     /*******************************************************************************
 978:Generated_Source\PSoC4/CapSense_CSD_CSHL.c ****     * Function Name: CapSense_CSD_SetFingerHysteresis
 979:Generated_Source\PSoC4/CapSense_CSD_CSHL.c ****     ********************************************************************************
 980:Generated_Source\PSoC4/CapSense_CSD_CSHL.c ****     *
 981:Generated_Source\PSoC4/CapSense_CSD_CSHL.c ****     * Summary:
 982:Generated_Source\PSoC4/CapSense_CSD_CSHL.c ****     *  This API sets the Hysteresis value of a widget
 983:Generated_Source\PSoC4/CapSense_CSD_CSHL.c ****     *
 984:Generated_Source\PSoC4/CapSense_CSD_CSHL.c ****     * Parameters:
 985:Generated_Source\PSoC4/CapSense_CSD_CSHL.c ****     *  value:  Hysteresis value for widgets.
 986:Generated_Source\PSoC4/CapSense_CSD_CSHL.c ****     *  widget:  widget number
 987:Generated_Source\PSoC4/CapSense_CSD_CSHL.c ****     *
 988:Generated_Source\PSoC4/CapSense_CSD_CSHL.c ****     * Return Value:
 989:Generated_Source\PSoC4/CapSense_CSD_CSHL.c ****     *  None
ARM GAS  C:\Users\SHOZO\AppData\Local\Temp\ccGGKGa0.s 			page 43


 990:Generated_Source\PSoC4/CapSense_CSD_CSHL.c ****     *
 991:Generated_Source\PSoC4/CapSense_CSD_CSHL.c ****     * Global Variables:
 992:Generated_Source\PSoC4/CapSense_CSD_CSHL.c ****     *  CapSense_CSD_hysteresis[] - This array contains the hysteresis value for each widget.
 993:Generated_Source\PSoC4/CapSense_CSD_CSHL.c ****     *  CapSense_CSD_widgetNumberSld - structure with dynamic sliders' parameters.
 994:Generated_Source\PSoC4/CapSense_CSD_CSHL.c ****     *
 995:Generated_Source\PSoC4/CapSense_CSD_CSHL.c ****     * Side Effects:
 996:Generated_Source\PSoC4/CapSense_CSD_CSHL.c ****     *  None
 997:Generated_Source\PSoC4/CapSense_CSD_CSHL.c ****     *
 998:Generated_Source\PSoC4/CapSense_CSD_CSHL.c ****     *******************************************************************************/
 999:Generated_Source\PSoC4/CapSense_CSD_CSHL.c ****     void CapSense_CSD_SetFingerHysteresis(uint32 widget, uint16 value)
1000:Generated_Source\PSoC4/CapSense_CSD_CSHL.c ****     {
 1382              		.loc 1 1000 0
 1383              		.cfi_startproc
 1384              		@ args = 0, pretend = 0, frame = 8
 1385              		@ frame_needed = 1, uses_anonymous_args = 0
 1386 0000 80B5     		push	{r7, lr}
 1387              		.cfi_def_cfa_offset 8
 1388              		.cfi_offset 7, -8
 1389              		.cfi_offset 14, -4
 1390 0002 82B0     		sub	sp, sp, #8
 1391              		.cfi_def_cfa_offset 16
 1392 0004 00AF     		add	r7, sp, #0
 1393              		.cfi_def_cfa_register 7
 1394 0006 7860     		str	r0, [r7, #4]
 1395 0008 0A00     		movs	r2, r1
 1396 000a BB1C     		adds	r3, r7, #2
 1397 000c 1A80     		strh	r2, [r3]
1001:Generated_Source\PSoC4/CapSense_CSD_CSHL.c ****         CapSense_CSD_hysteresis[widget] = value;
 1398              		.loc 1 1001 0
 1399 000e 054B     		ldr	r3, .L78
 1400 0010 7A68     		ldr	r2, [r7, #4]
 1401 0012 5200     		lsls	r2, r2, #1
 1402 0014 B91C     		adds	r1, r7, #2
 1403 0016 0988     		ldrh	r1, [r1]
 1404 0018 D152     		strh	r1, [r2, r3]
1002:Generated_Source\PSoC4/CapSense_CSD_CSHL.c ****     }
 1405              		.loc 1 1002 0
 1406 001a C046     		nop
 1407 001c BD46     		mov	sp, r7
 1408 001e 02B0     		add	sp, sp, #8
 1409              		@ sp needed
 1410 0020 80BD     		pop	{r7, pc}
 1411              	.L79:
 1412 0022 C046     		.align	2
 1413              	.L78:
 1414 0024 00000000 		.word	CapSense_CSD_hysteresis
 1415              		.cfi_endproc
 1416              	.LFE50:
 1417              		.size	CapSense_CSD_SetFingerHysteresis, .-CapSense_CSD_SetFingerHysteresis
 1418              		.section	.text.CapSense_CSD_SetNegativeNoiseThreshold,"ax",%progbits
 1419              		.align	2
 1420              		.global	CapSense_CSD_SetNegativeNoiseThreshold
 1421              		.code	16
 1422              		.thumb_func
 1423              		.type	CapSense_CSD_SetNegativeNoiseThreshold, %function
 1424              	CapSense_CSD_SetNegativeNoiseThreshold:
 1425              	.LFB51:
ARM GAS  C:\Users\SHOZO\AppData\Local\Temp\ccGGKGa0.s 			page 44


1003:Generated_Source\PSoC4/CapSense_CSD_CSHL.c **** 
1004:Generated_Source\PSoC4/CapSense_CSD_CSHL.c **** 
1005:Generated_Source\PSoC4/CapSense_CSD_CSHL.c ****     /*******************************************************************************
1006:Generated_Source\PSoC4/CapSense_CSD_CSHL.c ****     * Function Name: CapSense_CSD_SetNegativeNoiseThreshold
1007:Generated_Source\PSoC4/CapSense_CSD_CSHL.c ****     ********************************************************************************
1008:Generated_Source\PSoC4/CapSense_CSD_CSHL.c ****     *
1009:Generated_Source\PSoC4/CapSense_CSD_CSHL.c ****     * Summary:
1010:Generated_Source\PSoC4/CapSense_CSD_CSHL.c ****     *  This API sets the Negative Noise Threshold value of a widget
1011:Generated_Source\PSoC4/CapSense_CSD_CSHL.c ****     *
1012:Generated_Source\PSoC4/CapSense_CSD_CSHL.c ****     * Parameters:
1013:Generated_Source\PSoC4/CapSense_CSD_CSHL.c ****     *  value:  Negative Noise Threshold value for widgets.
1014:Generated_Source\PSoC4/CapSense_CSD_CSHL.c ****     *  widget: widget number
1015:Generated_Source\PSoC4/CapSense_CSD_CSHL.c ****     *
1016:Generated_Source\PSoC4/CapSense_CSD_CSHL.c ****     * Return Value:
1017:Generated_Source\PSoC4/CapSense_CSD_CSHL.c ****     *  None
1018:Generated_Source\PSoC4/CapSense_CSD_CSHL.c ****     *
1019:Generated_Source\PSoC4/CapSense_CSD_CSHL.c ****     * Global Variables:
1020:Generated_Source\PSoC4/CapSense_CSD_CSHL.c ****     *  CapSense_CSD_negativeNoiseThreshold  - This parameter specifies the negative
1021:Generated_Source\PSoC4/CapSense_CSD_CSHL.c ****     *   difference between the raw count and baseline levels for Baseline resetting to
1022:Generated_Source\PSoC4/CapSense_CSD_CSHL.c ****     *   the raw count level.
1023:Generated_Source\PSoC4/CapSense_CSD_CSHL.c ****     *
1024:Generated_Source\PSoC4/CapSense_CSD_CSHL.c ****     * Side Effects:
1025:Generated_Source\PSoC4/CapSense_CSD_CSHL.c ****     *  None
1026:Generated_Source\PSoC4/CapSense_CSD_CSHL.c ****     *
1027:Generated_Source\PSoC4/CapSense_CSD_CSHL.c ****     *******************************************************************************/
1028:Generated_Source\PSoC4/CapSense_CSD_CSHL.c ****     void CapSense_CSD_SetNegativeNoiseThreshold(uint32 widget, uint16 value)
1029:Generated_Source\PSoC4/CapSense_CSD_CSHL.c ****     {
 1426              		.loc 1 1029 0
 1427              		.cfi_startproc
 1428              		@ args = 0, pretend = 0, frame = 8
 1429              		@ frame_needed = 1, uses_anonymous_args = 0
 1430 0000 80B5     		push	{r7, lr}
 1431              		.cfi_def_cfa_offset 8
 1432              		.cfi_offset 7, -8
 1433              		.cfi_offset 14, -4
 1434 0002 82B0     		sub	sp, sp, #8
 1435              		.cfi_def_cfa_offset 16
 1436 0004 00AF     		add	r7, sp, #0
 1437              		.cfi_def_cfa_register 7
 1438 0006 7860     		str	r0, [r7, #4]
 1439 0008 0A00     		movs	r2, r1
 1440 000a BB1C     		adds	r3, r7, #2
 1441 000c 1A80     		strh	r2, [r3]
1030:Generated_Source\PSoC4/CapSense_CSD_CSHL.c ****         CapSense_CSD_negativeNoiseThreshold[widget] = value;
 1442              		.loc 1 1030 0
 1443 000e 054B     		ldr	r3, .L81
 1444 0010 7A68     		ldr	r2, [r7, #4]
 1445 0012 5200     		lsls	r2, r2, #1
 1446 0014 B91C     		adds	r1, r7, #2
 1447 0016 0988     		ldrh	r1, [r1]
 1448 0018 D152     		strh	r1, [r2, r3]
1031:Generated_Source\PSoC4/CapSense_CSD_CSHL.c ****     }
 1449              		.loc 1 1031 0
 1450 001a C046     		nop
 1451 001c BD46     		mov	sp, r7
 1452 001e 02B0     		add	sp, sp, #8
 1453              		@ sp needed
ARM GAS  C:\Users\SHOZO\AppData\Local\Temp\ccGGKGa0.s 			page 45


 1454 0020 80BD     		pop	{r7, pc}
 1455              	.L82:
 1456 0022 C046     		.align	2
 1457              	.L81:
 1458 0024 00000000 		.word	CapSense_CSD_negativeNoiseThreshold
 1459              		.cfi_endproc
 1460              	.LFE51:
 1461              		.size	CapSense_CSD_SetNegativeNoiseThreshold, .-CapSense_CSD_SetNegativeNoiseThreshold
 1462              		.section	.text.CapSense_CSD_SetDebounce,"ax",%progbits
 1463              		.align	2
 1464              		.global	CapSense_CSD_SetDebounce
 1465              		.code	16
 1466              		.thumb_func
 1467              		.type	CapSense_CSD_SetDebounce, %function
 1468              	CapSense_CSD_SetDebounce:
 1469              	.LFB52:
1032:Generated_Source\PSoC4/CapSense_CSD_CSHL.c **** 
1033:Generated_Source\PSoC4/CapSense_CSD_CSHL.c **** 
1034:Generated_Source\PSoC4/CapSense_CSD_CSHL.c ****     /*******************************************************************************
1035:Generated_Source\PSoC4/CapSense_CSD_CSHL.c ****     * Function Name: CapSense_CSD_SetDebounce
1036:Generated_Source\PSoC4/CapSense_CSD_CSHL.c ****     ********************************************************************************
1037:Generated_Source\PSoC4/CapSense_CSD_CSHL.c ****     *
1038:Generated_Source\PSoC4/CapSense_CSD_CSHL.c ****     * Summary:
1039:Generated_Source\PSoC4/CapSense_CSD_CSHL.c ****     *  This API sets the debounce value for a widget.
1040:Generated_Source\PSoC4/CapSense_CSD_CSHL.c ****     *
1041:Generated_Source\PSoC4/CapSense_CSD_CSHL.c ****     * Parameters:
1042:Generated_Source\PSoC4/CapSense_CSD_CSHL.c ****     *  value:  Debounce value for widget.
1043:Generated_Source\PSoC4/CapSense_CSD_CSHL.c ****     *  widget: widget index.
1044:Generated_Source\PSoC4/CapSense_CSD_CSHL.c ****     *
1045:Generated_Source\PSoC4/CapSense_CSD_CSHL.c ****     * Return Value:
1046:Generated_Source\PSoC4/CapSense_CSD_CSHL.c ****     *  None
1047:Generated_Source\PSoC4/CapSense_CSD_CSHL.c ****     *
1048:Generated_Source\PSoC4/CapSense_CSD_CSHL.c ****     * Global Variables:
1049:Generated_Source\PSoC4/CapSense_CSD_CSHL.c ****     *  CapSense_CSD_debounce[] - This array contains the debounce value for each widget.
1050:Generated_Source\PSoC4/CapSense_CSD_CSHL.c ****     *  CapSense_CSD_widgetNumberSld - structure with dynamic sliders' parameters.
1051:Generated_Source\PSoC4/CapSense_CSD_CSHL.c ****     *
1052:Generated_Source\PSoC4/CapSense_CSD_CSHL.c ****     * Side Effects:
1053:Generated_Source\PSoC4/CapSense_CSD_CSHL.c ****     *  None
1054:Generated_Source\PSoC4/CapSense_CSD_CSHL.c ****     *
1055:Generated_Source\PSoC4/CapSense_CSD_CSHL.c ****     *******************************************************************************/
1056:Generated_Source\PSoC4/CapSense_CSD_CSHL.c ****     void CapSense_CSD_SetDebounce(uint32 widget, uint8 value)
1057:Generated_Source\PSoC4/CapSense_CSD_CSHL.c ****     {
 1470              		.loc 1 1057 0
 1471              		.cfi_startproc
 1472              		@ args = 0, pretend = 0, frame = 8
 1473              		@ frame_needed = 1, uses_anonymous_args = 0
 1474 0000 80B5     		push	{r7, lr}
 1475              		.cfi_def_cfa_offset 8
 1476              		.cfi_offset 7, -8
 1477              		.cfi_offset 14, -4
 1478 0002 82B0     		sub	sp, sp, #8
 1479              		.cfi_def_cfa_offset 16
 1480 0004 00AF     		add	r7, sp, #0
 1481              		.cfi_def_cfa_register 7
 1482 0006 7860     		str	r0, [r7, #4]
 1483 0008 0A00     		movs	r2, r1
 1484 000a FB1C     		adds	r3, r7, #3
ARM GAS  C:\Users\SHOZO\AppData\Local\Temp\ccGGKGa0.s 			page 46


 1485 000c 1A70     		strb	r2, [r3]
1058:Generated_Source\PSoC4/CapSense_CSD_CSHL.c ****         CapSense_CSD_debounce[widget] = value;
 1486              		.loc 1 1058 0
 1487 000e 054A     		ldr	r2, .L84
 1488 0010 7B68     		ldr	r3, [r7, #4]
 1489 0012 D318     		adds	r3, r2, r3
 1490 0014 FA1C     		adds	r2, r7, #3
 1491 0016 1278     		ldrb	r2, [r2]
 1492 0018 1A70     		strb	r2, [r3]
1059:Generated_Source\PSoC4/CapSense_CSD_CSHL.c ****     }
 1493              		.loc 1 1059 0
 1494 001a C046     		nop
 1495 001c BD46     		mov	sp, r7
 1496 001e 02B0     		add	sp, sp, #8
 1497              		@ sp needed
 1498 0020 80BD     		pop	{r7, pc}
 1499              	.L85:
 1500 0022 C046     		.align	2
 1501              	.L84:
 1502 0024 00000000 		.word	CapSense_CSD_debounce
 1503              		.cfi_endproc
 1504              	.LFE52:
 1505              		.size	CapSense_CSD_SetDebounce, .-CapSense_CSD_SetDebounce
 1506              		.section	.text.CapSense_CSD_SetLowBaselineReset,"ax",%progbits
 1507              		.align	2
 1508              		.global	CapSense_CSD_SetLowBaselineReset
 1509              		.code	16
 1510              		.thumb_func
 1511              		.type	CapSense_CSD_SetLowBaselineReset, %function
 1512              	CapSense_CSD_SetLowBaselineReset:
 1513              	.LFB53:
1060:Generated_Source\PSoC4/CapSense_CSD_CSHL.c **** 
1061:Generated_Source\PSoC4/CapSense_CSD_CSHL.c **** 
1062:Generated_Source\PSoC4/CapSense_CSD_CSHL.c ****     /*******************************************************************************
1063:Generated_Source\PSoC4/CapSense_CSD_CSHL.c ****     * Function Name: CapSense_CSD_SetLowBaselineReset
1064:Generated_Source\PSoC4/CapSense_CSD_CSHL.c ****     ********************************************************************************
1065:Generated_Source\PSoC4/CapSense_CSD_CSHL.c ****     *
1066:Generated_Source\PSoC4/CapSense_CSD_CSHL.c ****     * Summary:
1067:Generated_Source\PSoC4/CapSense_CSD_CSHL.c ****     *  This API sets the low baseline reset threshold value for the sensor.
1068:Generated_Source\PSoC4/CapSense_CSD_CSHL.c ****     *
1069:Generated_Source\PSoC4/CapSense_CSD_CSHL.c ****     * Parameters:
1070:Generated_Source\PSoC4/CapSense_CSD_CSHL.c ****     *  value: low baseline reset threshold value.
1071:Generated_Source\PSoC4/CapSense_CSD_CSHL.c ****     *  sensor: Sensor index.
1072:Generated_Source\PSoC4/CapSense_CSD_CSHL.c ****     *
1073:Generated_Source\PSoC4/CapSense_CSD_CSHL.c ****     * Return Value:
1074:Generated_Source\PSoC4/CapSense_CSD_CSHL.c ****     *  None
1075:Generated_Source\PSoC4/CapSense_CSD_CSHL.c ****     *
1076:Generated_Source\PSoC4/CapSense_CSD_CSHL.c ****     * Global Variables:
1077:Generated_Source\PSoC4/CapSense_CSD_CSHL.c ****     *  CapSense_CSD_lowBaselineReset[] - This array contains the Baseline update
1078:Generated_Source\PSoC4/CapSense_CSD_CSHL.c ****     *  threshold value for each sensor.
1079:Generated_Source\PSoC4/CapSense_CSD_CSHL.c ****     *
1080:Generated_Source\PSoC4/CapSense_CSD_CSHL.c ****     * Side Effects:
1081:Generated_Source\PSoC4/CapSense_CSD_CSHL.c ****     *  None
1082:Generated_Source\PSoC4/CapSense_CSD_CSHL.c ****     *
1083:Generated_Source\PSoC4/CapSense_CSD_CSHL.c ****     *******************************************************************************/
1084:Generated_Source\PSoC4/CapSense_CSD_CSHL.c ****     void CapSense_CSD_SetLowBaselineReset(uint32 sensor, uint8 value)
1085:Generated_Source\PSoC4/CapSense_CSD_CSHL.c ****     {
ARM GAS  C:\Users\SHOZO\AppData\Local\Temp\ccGGKGa0.s 			page 47


 1514              		.loc 1 1085 0
 1515              		.cfi_startproc
 1516              		@ args = 0, pretend = 0, frame = 8
 1517              		@ frame_needed = 1, uses_anonymous_args = 0
 1518 0000 80B5     		push	{r7, lr}
 1519              		.cfi_def_cfa_offset 8
 1520              		.cfi_offset 7, -8
 1521              		.cfi_offset 14, -4
 1522 0002 82B0     		sub	sp, sp, #8
 1523              		.cfi_def_cfa_offset 16
 1524 0004 00AF     		add	r7, sp, #0
 1525              		.cfi_def_cfa_register 7
 1526 0006 7860     		str	r0, [r7, #4]
 1527 0008 0A00     		movs	r2, r1
 1528 000a FB1C     		adds	r3, r7, #3
 1529 000c 1A70     		strb	r2, [r3]
1086:Generated_Source\PSoC4/CapSense_CSD_CSHL.c ****         CapSense_CSD_lowBaselineReset[sensor] = value;
 1530              		.loc 1 1086 0
 1531 000e 054A     		ldr	r2, .L87
 1532 0010 7B68     		ldr	r3, [r7, #4]
 1533 0012 D318     		adds	r3, r2, r3
 1534 0014 FA1C     		adds	r2, r7, #3
 1535 0016 1278     		ldrb	r2, [r2]
 1536 0018 1A70     		strb	r2, [r3]
1087:Generated_Source\PSoC4/CapSense_CSD_CSHL.c ****     }
 1537              		.loc 1 1087 0
 1538 001a C046     		nop
 1539 001c BD46     		mov	sp, r7
 1540 001e 02B0     		add	sp, sp, #8
 1541              		@ sp needed
 1542 0020 80BD     		pop	{r7, pc}
 1543              	.L88:
 1544 0022 C046     		.align	2
 1545              	.L87:
 1546 0024 00000000 		.word	CapSense_CSD_lowBaselineReset
 1547              		.cfi_endproc
 1548              	.LFE53:
 1549              		.size	CapSense_CSD_SetLowBaselineReset, .-CapSense_CSD_SetLowBaselineReset
 1550              		.section	.text.CapSense_CSD_CheckIsSensorActive,"ax",%progbits
 1551              		.align	2
 1552              		.global	CapSense_CSD_CheckIsSensorActive
 1553              		.code	16
 1554              		.thumb_func
 1555              		.type	CapSense_CSD_CheckIsSensorActive, %function
 1556              	CapSense_CSD_CheckIsSensorActive:
 1557              	.LFB54:
1088:Generated_Source\PSoC4/CapSense_CSD_CSHL.c **** #endif /* (CapSense_CSD_TUNING_METHOD != CapSense_CSD__TUNING_NONE) */
1089:Generated_Source\PSoC4/CapSense_CSD_CSHL.c **** 
1090:Generated_Source\PSoC4/CapSense_CSD_CSHL.c **** 
1091:Generated_Source\PSoC4/CapSense_CSD_CSHL.c **** /*******************************************************************************
1092:Generated_Source\PSoC4/CapSense_CSD_CSHL.c **** * Function Name: CapSense_CSD_CheckIsSensorActive
1093:Generated_Source\PSoC4/CapSense_CSD_CSHL.c **** ********************************************************************************
1094:Generated_Source\PSoC4/CapSense_CSD_CSHL.c **** *
1095:Generated_Source\PSoC4/CapSense_CSD_CSHL.c **** * Summary:
1096:Generated_Source\PSoC4/CapSense_CSD_CSHL.c **** *  Compares the CapSense_CSD_sensorSignal[sensor] array element to the finger
1097:Generated_Source\PSoC4/CapSense_CSD_CSHL.c **** *  threshold of the widget it belongs to. The hysteresis and debounce are taken into
1098:Generated_Source\PSoC4/CapSense_CSD_CSHL.c **** *  account. The hysteresis is added or subtracted from the finger threshold
ARM GAS  C:\Users\SHOZO\AppData\Local\Temp\ccGGKGa0.s 			page 48


1099:Generated_Source\PSoC4/CapSense_CSD_CSHL.c **** *  based on whether the sensor is currently active.
1100:Generated_Source\PSoC4/CapSense_CSD_CSHL.c **** *  If the sensor is active, the threshold is lowered by the hysteresis amount.
1101:Generated_Source\PSoC4/CapSense_CSD_CSHL.c **** *  If the sensor is inactive, the threshold is raised by the hysteresis amount.
1102:Generated_Source\PSoC4/CapSense_CSD_CSHL.c **** *  The debounce counter is added to the sensor active transition.
1103:Generated_Source\PSoC4/CapSense_CSD_CSHL.c **** *  This function updates the CapSense_CSD_sensorOnMask[] array element.
1104:Generated_Source\PSoC4/CapSense_CSD_CSHL.c **** *
1105:Generated_Source\PSoC4/CapSense_CSD_CSHL.c **** * Parameters:
1106:Generated_Source\PSoC4/CapSense_CSD_CSHL.c **** *  sensor:  Sensor number.
1107:Generated_Source\PSoC4/CapSense_CSD_CSHL.c **** *
1108:Generated_Source\PSoC4/CapSense_CSD_CSHL.c **** * Return:
1109:Generated_Source\PSoC4/CapSense_CSD_CSHL.c **** *  Returns sensor state 1 if active, 0 if not active.
1110:Generated_Source\PSoC4/CapSense_CSD_CSHL.c **** *
1111:Generated_Source\PSoC4/CapSense_CSD_CSHL.c **** * Global Variables:
1112:Generated_Source\PSoC4/CapSense_CSD_CSHL.c **** *  CapSense_CSD_sensorSignal[] - used to store the difference between
1113:Generated_Source\PSoC4/CapSense_CSD_CSHL.c **** *  the current value of raw data and a previous value of the baseline.
1114:Generated_Source\PSoC4/CapSense_CSD_CSHL.c **** *  CapSense_CSD_debounceCounter[]   - used to store the current debounce
1115:Generated_Source\PSoC4/CapSense_CSD_CSHL.c **** *  counter of the sensor. the widget which have this parameter are buttons, matrix
1116:Generated_Source\PSoC4/CapSense_CSD_CSHL.c **** *  buttons, proximity, and guard. All other widgets don't have the  debounce parameter
1117:Generated_Source\PSoC4/CapSense_CSD_CSHL.c **** *  and use the last element of this array with value 0 (it means no debounce).
1118:Generated_Source\PSoC4/CapSense_CSD_CSHL.c **** *  CapSense_CSD_sensorOnMask[] - used to store the sensors on/off state.
1119:Generated_Source\PSoC4/CapSense_CSD_CSHL.c **** *  CapSense_CSD_sensorOnMask[0] contains the masked bits for sensors
1120:Generated_Source\PSoC4/CapSense_CSD_CSHL.c **** *   0 through 7 (sensor 0 is bit 0, sensor 1 is bit 1).
1121:Generated_Source\PSoC4/CapSense_CSD_CSHL.c **** *  CapSense_CSD_sensorEnableMask[1] contains the masked bits for
1122:Generated_Source\PSoC4/CapSense_CSD_CSHL.c **** *  sensors 8 through 15 (if needed), and so on.
1123:Generated_Source\PSoC4/CapSense_CSD_CSHL.c **** *  0 - sensor is inactive.
1124:Generated_Source\PSoC4/CapSense_CSD_CSHL.c **** *  1 - sensor is active.
1125:Generated_Source\PSoC4/CapSense_CSD_CSHL.c **** *
1126:Generated_Source\PSoC4/CapSense_CSD_CSHL.c **** * Side Effects:
1127:Generated_Source\PSoC4/CapSense_CSD_CSHL.c **** *  None
1128:Generated_Source\PSoC4/CapSense_CSD_CSHL.c **** *
1129:Generated_Source\PSoC4/CapSense_CSD_CSHL.c **** *******************************************************************************/
1130:Generated_Source\PSoC4/CapSense_CSD_CSHL.c **** uint32 CapSense_CSD_CheckIsSensorActive(uint32 sensor)
1131:Generated_Source\PSoC4/CapSense_CSD_CSHL.c **** {
 1558              		.loc 1 1131 0
 1559              		.cfi_startproc
 1560              		@ args = 0, pretend = 0, frame = 16
 1561              		@ frame_needed = 1, uses_anonymous_args = 0
 1562 0000 80B5     		push	{r7, lr}
 1563              		.cfi_def_cfa_offset 8
 1564              		.cfi_offset 7, -8
 1565              		.cfi_offset 14, -4
 1566 0002 84B0     		sub	sp, sp, #16
 1567              		.cfi_def_cfa_offset 24
 1568 0004 00AF     		add	r7, sp, #0
 1569              		.cfi_def_cfa_register 7
 1570 0006 7860     		str	r0, [r7, #4]
1132:Generated_Source\PSoC4/CapSense_CSD_CSHL.c ****     uint8 widget;
1133:Generated_Source\PSoC4/CapSense_CSD_CSHL.c ****     uint8 debounce;
1134:Generated_Source\PSoC4/CapSense_CSD_CSHL.c ****     uint8 debounceIndex;
1135:Generated_Source\PSoC4/CapSense_CSD_CSHL.c **** 
1136:Generated_Source\PSoC4/CapSense_CSD_CSHL.c ****     uint16 fingerThreshold;
1137:Generated_Source\PSoC4/CapSense_CSD_CSHL.c ****     uint16 hysteresis;
1138:Generated_Source\PSoC4/CapSense_CSD_CSHL.c ****     
1139:Generated_Source\PSoC4/CapSense_CSD_CSHL.c **** 
1140:Generated_Source\PSoC4/CapSense_CSD_CSHL.c ****     /* Prepare to find debounce counter index */
1141:Generated_Source\PSoC4/CapSense_CSD_CSHL.c ****     widget = CapSense_CSD_widgetNumber[sensor];
 1571              		.loc 1 1141 0
ARM GAS  C:\Users\SHOZO\AppData\Local\Temp\ccGGKGa0.s 			page 49


 1572 0008 0F23     		movs	r3, #15
 1573 000a FB18     		adds	r3, r7, r3
 1574 000c 4249     		ldr	r1, .L98
 1575 000e 7A68     		ldr	r2, [r7, #4]
 1576 0010 8A18     		adds	r2, r1, r2
 1577 0012 1278     		ldrb	r2, [r2]
 1578 0014 1A70     		strb	r2, [r3]
1142:Generated_Source\PSoC4/CapSense_CSD_CSHL.c **** 
1143:Generated_Source\PSoC4/CapSense_CSD_CSHL.c ****     fingerThreshold = CapSense_CSD_fingerThreshold[widget];
 1579              		.loc 1 1143 0
 1580 0016 0F23     		movs	r3, #15
 1581 0018 FB18     		adds	r3, r7, r3
 1582 001a 1978     		ldrb	r1, [r3]
 1583 001c 0C23     		movs	r3, #12
 1584 001e FB18     		adds	r3, r7, r3
 1585 0020 3E4A     		ldr	r2, .L98+4
 1586 0022 4900     		lsls	r1, r1, #1
 1587 0024 8A5A     		ldrh	r2, [r1, r2]
 1588 0026 1A80     		strh	r2, [r3]
1144:Generated_Source\PSoC4/CapSense_CSD_CSHL.c ****     hysteresis = CapSense_CSD_hysteresis[widget];
 1589              		.loc 1 1144 0
 1590 0028 0F23     		movs	r3, #15
 1591 002a FB18     		adds	r3, r7, r3
 1592 002c 1978     		ldrb	r1, [r3]
 1593 002e 0A23     		movs	r3, #10
 1594 0030 FB18     		adds	r3, r7, r3
 1595 0032 3B4A     		ldr	r2, .L98+8
 1596 0034 4900     		lsls	r1, r1, #1
 1597 0036 8A5A     		ldrh	r2, [r1, r2]
 1598 0038 1A80     		strh	r2, [r3]
1145:Generated_Source\PSoC4/CapSense_CSD_CSHL.c ****     debounce = CapSense_CSD_debounce[widget];
 1599              		.loc 1 1145 0
 1600 003a 0F23     		movs	r3, #15
 1601 003c FB18     		adds	r3, r7, r3
 1602 003e 1A78     		ldrb	r2, [r3]
 1603 0040 0923     		movs	r3, #9
 1604 0042 FB18     		adds	r3, r7, r3
 1605 0044 3749     		ldr	r1, .L98+12
 1606 0046 8A5C     		ldrb	r2, [r1, r2]
 1607 0048 1A70     		strb	r2, [r3]
1146:Generated_Source\PSoC4/CapSense_CSD_CSHL.c **** 
1147:Generated_Source\PSoC4/CapSense_CSD_CSHL.c ****         debounceIndex = widget;
 1608              		.loc 1 1147 0
 1609 004a 0823     		movs	r3, #8
 1610 004c FB18     		adds	r3, r7, r3
 1611 004e 0F22     		movs	r2, #15
 1612 0050 BA18     		adds	r2, r7, r2
 1613 0052 1278     		ldrb	r2, [r2]
 1614 0054 1A70     		strb	r2, [r3]
1148:Generated_Source\PSoC4/CapSense_CSD_CSHL.c **** 
1149:Generated_Source\PSoC4/CapSense_CSD_CSHL.c **** 
1150:Generated_Source\PSoC4/CapSense_CSD_CSHL.c ****     /* Was on */
1151:Generated_Source\PSoC4/CapSense_CSD_CSHL.c ****     if (0u != CapSense_CSD_GetBitValue(CapSense_CSD_sensorOnMask, sensor))
 1615              		.loc 1 1151 0
 1616 0056 7A68     		ldr	r2, [r7, #4]
 1617 0058 334B     		ldr	r3, .L98+16
 1618 005a 1100     		movs	r1, r2
ARM GAS  C:\Users\SHOZO\AppData\Local\Temp\ccGGKGa0.s 			page 50


 1619 005c 1800     		movs	r0, r3
 1620 005e FFF7FEFF 		bl	CapSense_CSD_GetBitValue
 1621 0062 031E     		subs	r3, r0, #0
 1622 0064 1CD0     		beq	.L90
1152:Generated_Source\PSoC4/CapSense_CSD_CSHL.c ****     {
1153:Generated_Source\PSoC4/CapSense_CSD_CSHL.c ****         /* Hysteresis minus */
1154:Generated_Source\PSoC4/CapSense_CSD_CSHL.c ****         if (CapSense_CSD_sensorSignal[sensor] < (fingerThreshold - hysteresis))
 1623              		.loc 1 1154 0
 1624 0066 314B     		ldr	r3, .L98+20
 1625 0068 7A68     		ldr	r2, [r7, #4]
 1626 006a 5200     		lsls	r2, r2, #1
 1627 006c D35A     		ldrh	r3, [r2, r3]
 1628 006e 1900     		movs	r1, r3
 1629 0070 0C23     		movs	r3, #12
 1630 0072 FB18     		adds	r3, r7, r3
 1631 0074 1A88     		ldrh	r2, [r3]
 1632 0076 0A23     		movs	r3, #10
 1633 0078 FB18     		adds	r3, r7, r3
 1634 007a 1B88     		ldrh	r3, [r3]
 1635 007c D31A     		subs	r3, r2, r3
 1636 007e 9942     		cmp	r1, r3
 1637 0080 3BDA     		bge	.L92
1155:Generated_Source\PSoC4/CapSense_CSD_CSHL.c ****         {
1156:Generated_Source\PSoC4/CapSense_CSD_CSHL.c ****             CapSense_CSD_SetBitValue(CapSense_CSD_sensorOnMask, sensor, 0u);
 1638              		.loc 1 1156 0
 1639 0082 7968     		ldr	r1, [r7, #4]
 1640 0084 284B     		ldr	r3, .L98+16
 1641 0086 0022     		movs	r2, #0
 1642 0088 1800     		movs	r0, r3
 1643 008a FFF7FEFF 		bl	CapSense_CSD_SetBitValue
1157:Generated_Source\PSoC4/CapSense_CSD_CSHL.c ****             /* Sensor inactive - reset Debounce counter */
1158:Generated_Source\PSoC4/CapSense_CSD_CSHL.c ****             CapSense_CSD_debounceCounter[debounceIndex] = debounce;
 1644              		.loc 1 1158 0
 1645 008e 0823     		movs	r3, #8
 1646 0090 FB18     		adds	r3, r7, r3
 1647 0092 1B78     		ldrb	r3, [r3]
 1648 0094 264A     		ldr	r2, .L98+24
 1649 0096 0921     		movs	r1, #9
 1650 0098 7918     		adds	r1, r7, r1
 1651 009a 0978     		ldrb	r1, [r1]
 1652 009c D154     		strb	r1, [r2, r3]
 1653 009e 2CE0     		b	.L92
 1654              	.L90:
1159:Generated_Source\PSoC4/CapSense_CSD_CSHL.c ****         }
1160:Generated_Source\PSoC4/CapSense_CSD_CSHL.c ****     }
1161:Generated_Source\PSoC4/CapSense_CSD_CSHL.c ****     else    /* Was off */
1162:Generated_Source\PSoC4/CapSense_CSD_CSHL.c ****     {
1163:Generated_Source\PSoC4/CapSense_CSD_CSHL.c ****         /* Hysteresis plus */
1164:Generated_Source\PSoC4/CapSense_CSD_CSHL.c ****         if (CapSense_CSD_sensorSignal[sensor] >= (fingerThreshold + hysteresis))
 1655              		.loc 1 1164 0
 1656 00a0 224B     		ldr	r3, .L98+20
 1657 00a2 7A68     		ldr	r2, [r7, #4]
 1658 00a4 5200     		lsls	r2, r2, #1
 1659 00a6 D35A     		ldrh	r3, [r2, r3]
 1660 00a8 1900     		movs	r1, r3
 1661 00aa 0C23     		movs	r3, #12
 1662 00ac FB18     		adds	r3, r7, r3
ARM GAS  C:\Users\SHOZO\AppData\Local\Temp\ccGGKGa0.s 			page 51


 1663 00ae 1A88     		ldrh	r2, [r3]
 1664 00b0 0A23     		movs	r3, #10
 1665 00b2 FB18     		adds	r3, r7, r3
 1666 00b4 1B88     		ldrh	r3, [r3]
 1667 00b6 D318     		adds	r3, r2, r3
 1668 00b8 9942     		cmp	r1, r3
 1669 00ba 16DB     		blt	.L93
1165:Generated_Source\PSoC4/CapSense_CSD_CSHL.c ****         {
1166:Generated_Source\PSoC4/CapSense_CSD_CSHL.c ****             CapSense_CSD_debounceCounter[debounceIndex]--;
 1670              		.loc 1 1166 0
 1671 00bc 0823     		movs	r3, #8
 1672 00be FB18     		adds	r3, r7, r3
 1673 00c0 1B78     		ldrb	r3, [r3]
 1674 00c2 1B4A     		ldr	r2, .L98+24
 1675 00c4 D25C     		ldrb	r2, [r2, r3]
 1676 00c6 013A     		subs	r2, r2, #1
 1677 00c8 D1B2     		uxtb	r1, r2
 1678 00ca 194A     		ldr	r2, .L98+24
 1679 00cc D154     		strb	r1, [r2, r3]
1167:Generated_Source\PSoC4/CapSense_CSD_CSHL.c ****             /* Sensor active, decrement debounce counter */
1168:Generated_Source\PSoC4/CapSense_CSD_CSHL.c ****             if(CapSense_CSD_debounceCounter[debounceIndex] == 0u)
 1680              		.loc 1 1168 0
 1681 00ce 0823     		movs	r3, #8
 1682 00d0 FB18     		adds	r3, r7, r3
 1683 00d2 1B78     		ldrb	r3, [r3]
 1684 00d4 164A     		ldr	r2, .L98+24
 1685 00d6 D35C     		ldrb	r3, [r2, r3]
 1686 00d8 002B     		cmp	r3, #0
 1687 00da 0ED1     		bne	.L92
1169:Generated_Source\PSoC4/CapSense_CSD_CSHL.c ****             {
1170:Generated_Source\PSoC4/CapSense_CSD_CSHL.c ****                 CapSense_CSD_SetBitValue(CapSense_CSD_sensorOnMask, sensor, 1u);
 1688              		.loc 1 1170 0
 1689 00dc 7968     		ldr	r1, [r7, #4]
 1690 00de 124B     		ldr	r3, .L98+16
 1691 00e0 0122     		movs	r2, #1
 1692 00e2 1800     		movs	r0, r3
 1693 00e4 FFF7FEFF 		bl	CapSense_CSD_SetBitValue
 1694 00e8 07E0     		b	.L92
 1695              	.L93:
1171:Generated_Source\PSoC4/CapSense_CSD_CSHL.c ****             }
1172:Generated_Source\PSoC4/CapSense_CSD_CSHL.c ****         }
1173:Generated_Source\PSoC4/CapSense_CSD_CSHL.c ****         else
1174:Generated_Source\PSoC4/CapSense_CSD_CSHL.c ****         {
1175:Generated_Source\PSoC4/CapSense_CSD_CSHL.c ****             /* Sensor inactive - reset Debounce counter */
1176:Generated_Source\PSoC4/CapSense_CSD_CSHL.c ****             CapSense_CSD_debounceCounter[debounceIndex] = debounce;
 1696              		.loc 1 1176 0
 1697 00ea 0823     		movs	r3, #8
 1698 00ec FB18     		adds	r3, r7, r3
 1699 00ee 1B78     		ldrb	r3, [r3]
 1700 00f0 0F4A     		ldr	r2, .L98+24
 1701 00f2 0921     		movs	r1, #9
 1702 00f4 7918     		adds	r1, r7, r1
 1703 00f6 0978     		ldrb	r1, [r1]
 1704 00f8 D154     		strb	r1, [r2, r3]
 1705              	.L92:
1177:Generated_Source\PSoC4/CapSense_CSD_CSHL.c ****         }
1178:Generated_Source\PSoC4/CapSense_CSD_CSHL.c ****     }
ARM GAS  C:\Users\SHOZO\AppData\Local\Temp\ccGGKGa0.s 			page 52


1179:Generated_Source\PSoC4/CapSense_CSD_CSHL.c **** 
1180:Generated_Source\PSoC4/CapSense_CSD_CSHL.c ****     return ((uint32)((0u != CapSense_CSD_GetBitValue(CapSense_CSD_sensorOnMask, sensor)) ? 1u : 0u)
 1706              		.loc 1 1180 0
 1707 00fa 7A68     		ldr	r2, [r7, #4]
 1708 00fc 0A4B     		ldr	r3, .L98+16
 1709 00fe 1100     		movs	r1, r2
 1710 0100 1800     		movs	r0, r3
 1711 0102 FFF7FEFF 		bl	CapSense_CSD_GetBitValue
 1712 0106 031E     		subs	r3, r0, #0
 1713 0108 01D0     		beq	.L95
 1714              		.loc 1 1180 0 is_stmt 0 discriminator 1
 1715 010a 0123     		movs	r3, #1
 1716 010c 00E0     		b	.L97
 1717              	.L95:
 1718              		.loc 1 1180 0 discriminator 2
 1719 010e 0023     		movs	r3, #0
 1720              	.L97:
1181:Generated_Source\PSoC4/CapSense_CSD_CSHL.c **** }
 1721              		.loc 1 1181 0 is_stmt 1 discriminator 5
 1722 0110 1800     		movs	r0, r3
 1723 0112 BD46     		mov	sp, r7
 1724 0114 04B0     		add	sp, sp, #16
 1725              		@ sp needed
 1726 0116 80BD     		pop	{r7, pc}
 1727              	.L99:
 1728              		.align	2
 1729              	.L98:
 1730 0118 00000000 		.word	CapSense_CSD_widgetNumber
 1731 011c 00000000 		.word	CapSense_CSD_fingerThreshold
 1732 0120 00000000 		.word	CapSense_CSD_hysteresis
 1733 0124 00000000 		.word	CapSense_CSD_debounce
 1734 0128 00000000 		.word	CapSense_CSD_sensorOnMask
 1735 012c 00000000 		.word	CapSense_CSD_sensorSignal
 1736 0130 4C000000 		.word	CapSense_CSD_debounceCounter
 1737              		.cfi_endproc
 1738              	.LFE54:
 1739              		.size	CapSense_CSD_CheckIsSensorActive, .-CapSense_CSD_CheckIsSensorActive
 1740              		.section	.text.CapSense_CSD_CheckIsWidgetActive,"ax",%progbits
 1741              		.align	2
 1742              		.global	CapSense_CSD_CheckIsWidgetActive
 1743              		.code	16
 1744              		.thumb_func
 1745              		.type	CapSense_CSD_CheckIsWidgetActive, %function
 1746              	CapSense_CSD_CheckIsWidgetActive:
 1747              	.LFB55:
1182:Generated_Source\PSoC4/CapSense_CSD_CSHL.c **** 
1183:Generated_Source\PSoC4/CapSense_CSD_CSHL.c **** 
1184:Generated_Source\PSoC4/CapSense_CSD_CSHL.c **** /*******************************************************************************
1185:Generated_Source\PSoC4/CapSense_CSD_CSHL.c **** * Function Name: CapSense_CSD_CheckIsWidgetActive
1186:Generated_Source\PSoC4/CapSense_CSD_CSHL.c **** ********************************************************************************
1187:Generated_Source\PSoC4/CapSense_CSD_CSHL.c **** *
1188:Generated_Source\PSoC4/CapSense_CSD_CSHL.c **** * Summary:
1189:Generated_Source\PSoC4/CapSense_CSD_CSHL.c **** *  Compares the CapSense_sensorSignal[] array element to the finger threshold of
1190:Generated_Source\PSoC4/CapSense_CSD_CSHL.c **** * the widget it belongs to. The hysteresis and debounce are taken into account.
1191:Generated_Source\PSoC4/CapSense_CSD_CSHL.c **** * The hysteresis is added or subtracted from the finger threshold based on whether
1192:Generated_Source\PSoC4/CapSense_CSD_CSHL.c **** *  the sensor is currently active. If the sensor is active, the threshold is
1193:Generated_Source\PSoC4/CapSense_CSD_CSHL.c **** *  lowered by the hysteresis amount. If the sensor is inactive, the threshold
ARM GAS  C:\Users\SHOZO\AppData\Local\Temp\ccGGKGa0.s 			page 53


1194:Generated_Source\PSoC4/CapSense_CSD_CSHL.c **** *  is raised by the hysteresis amount.
1195:Generated_Source\PSoC4/CapSense_CSD_CSHL.c **** * The debounce counter added to the sensor active transition.
1196:Generated_Source\PSoC4/CapSense_CSD_CSHL.c **** * This function updates CapSense_sensorOnMask[] array element
1197:Generated_Source\PSoC4/CapSense_CSD_CSHL.c **** *
1198:Generated_Source\PSoC4/CapSense_CSD_CSHL.c **** * Parameters:
1199:Generated_Source\PSoC4/CapSense_CSD_CSHL.c **** *  widget:  widget number.
1200:Generated_Source\PSoC4/CapSense_CSD_CSHL.c **** *
1201:Generated_Source\PSoC4/CapSense_CSD_CSHL.c **** * Return:
1202:Generated_Source\PSoC4/CapSense_CSD_CSHL.c **** *  Returns widget sensor state 1 if one or more sensors within widget is/are
1203:Generated_Source\PSoC4/CapSense_CSD_CSHL.c **** *  active, 0 if all sensors within widget are inactive.
1204:Generated_Source\PSoC4/CapSense_CSD_CSHL.c **** *
1205:Generated_Source\PSoC4/CapSense_CSD_CSHL.c **** * Global Variables:
1206:Generated_Source\PSoC4/CapSense_CSD_CSHL.c **** *  rawDataIndex[]: Contains the  1st sensor position in the widget
1207:Generated_Source\PSoC4/CapSense_CSD_CSHL.c **** *
1208:Generated_Source\PSoC4/CapSense_CSD_CSHL.c **** * Side Effects:
1209:Generated_Source\PSoC4/CapSense_CSD_CSHL.c **** *  None
1210:Generated_Source\PSoC4/CapSense_CSD_CSHL.c **** *
1211:Generated_Source\PSoC4/CapSense_CSD_CSHL.c **** *******************************************************************************/
1212:Generated_Source\PSoC4/CapSense_CSD_CSHL.c **** uint32 CapSense_CSD_CheckIsWidgetActive(uint32 widget)
1213:Generated_Source\PSoC4/CapSense_CSD_CSHL.c **** {
 1748              		.loc 1 1213 0
 1749              		.cfi_startproc
 1750              		@ args = 0, pretend = 0, frame = 24
 1751              		@ frame_needed = 1, uses_anonymous_args = 0
 1752 0000 80B5     		push	{r7, lr}
 1753              		.cfi_def_cfa_offset 8
 1754              		.cfi_offset 7, -8
 1755              		.cfi_offset 14, -4
 1756 0002 86B0     		sub	sp, sp, #24
 1757              		.cfi_def_cfa_offset 32
 1758 0004 00AF     		add	r7, sp, #0
 1759              		.cfi_def_cfa_register 7
 1760 0006 7860     		str	r0, [r7, #4]
1214:Generated_Source\PSoC4/CapSense_CSD_CSHL.c ****     uint32 rawIndex = (uint32)CapSense_CSD_rawDataIndex[widget];
 1761              		.loc 1 1214 0
 1762 0008 114A     		ldr	r2, .L104
 1763 000a 7B68     		ldr	r3, [r7, #4]
 1764 000c D318     		adds	r3, r2, r3
 1765 000e 1B78     		ldrb	r3, [r3]
 1766 0010 7B61     		str	r3, [r7, #20]
1215:Generated_Source\PSoC4/CapSense_CSD_CSHL.c ****     uint32 numOfSensors = (uint32)CapSense_CSD_numberOfSensors[widget] + rawIndex;
 1767              		.loc 1 1215 0
 1768 0012 104A     		ldr	r2, .L104+4
 1769 0014 7B68     		ldr	r3, [r7, #4]
 1770 0016 D318     		adds	r3, r2, r3
 1771 0018 1B78     		ldrb	r3, [r3]
 1772 001a 1A00     		movs	r2, r3
 1773 001c 7B69     		ldr	r3, [r7, #20]
 1774 001e D318     		adds	r3, r2, r3
 1775 0020 FB60     		str	r3, [r7, #12]
1216:Generated_Source\PSoC4/CapSense_CSD_CSHL.c ****     uint32 state = 0u;
 1776              		.loc 1 1216 0
 1777 0022 0023     		movs	r3, #0
 1778 0024 3B61     		str	r3, [r7, #16]
 1779              	.L102:
1217:Generated_Source\PSoC4/CapSense_CSD_CSHL.c **** 
1218:Generated_Source\PSoC4/CapSense_CSD_CSHL.c ****     /* Check all sensors of widget */
ARM GAS  C:\Users\SHOZO\AppData\Local\Temp\ccGGKGa0.s 			page 54


1219:Generated_Source\PSoC4/CapSense_CSD_CSHL.c ****     do
1220:Generated_Source\PSoC4/CapSense_CSD_CSHL.c ****     {
1221:Generated_Source\PSoC4/CapSense_CSD_CSHL.c ****         if(CapSense_CSD_CheckIsSensorActive((uint32)rawIndex) != 0u)
 1780              		.loc 1 1221 0
 1781 0026 7B69     		ldr	r3, [r7, #20]
 1782 0028 1800     		movs	r0, r3
 1783 002a FFF7FEFF 		bl	CapSense_CSD_CheckIsSensorActive
 1784 002e 031E     		subs	r3, r0, #0
 1785 0030 01D0     		beq	.L101
1222:Generated_Source\PSoC4/CapSense_CSD_CSHL.c ****         {
1223:Generated_Source\PSoC4/CapSense_CSD_CSHL.c ****             state = CapSense_CSD_SENSOR_IS_ACTIVE;
 1786              		.loc 1 1223 0
 1787 0032 0123     		movs	r3, #1
 1788 0034 3B61     		str	r3, [r7, #16]
 1789              	.L101:
1224:Generated_Source\PSoC4/CapSense_CSD_CSHL.c ****         }
1225:Generated_Source\PSoC4/CapSense_CSD_CSHL.c ****         rawIndex++;
 1790              		.loc 1 1225 0
 1791 0036 7B69     		ldr	r3, [r7, #20]
 1792 0038 0133     		adds	r3, r3, #1
 1793 003a 7B61     		str	r3, [r7, #20]
1226:Generated_Source\PSoC4/CapSense_CSD_CSHL.c ****     }
1227:Generated_Source\PSoC4/CapSense_CSD_CSHL.c ****     while(rawIndex < numOfSensors);
 1794              		.loc 1 1227 0
 1795 003c 7A69     		ldr	r2, [r7, #20]
 1796 003e FB68     		ldr	r3, [r7, #12]
 1797 0040 9A42     		cmp	r2, r3
 1798 0042 F0D3     		bcc	.L102
1228:Generated_Source\PSoC4/CapSense_CSD_CSHL.c **** 
1229:Generated_Source\PSoC4/CapSense_CSD_CSHL.c **** 
1230:Generated_Source\PSoC4/CapSense_CSD_CSHL.c **** 
1231:Generated_Source\PSoC4/CapSense_CSD_CSHL.c ****     return state;
 1799              		.loc 1 1231 0
 1800 0044 3B69     		ldr	r3, [r7, #16]
1232:Generated_Source\PSoC4/CapSense_CSD_CSHL.c **** }
 1801              		.loc 1 1232 0
 1802 0046 1800     		movs	r0, r3
 1803 0048 BD46     		mov	sp, r7
 1804 004a 06B0     		add	sp, sp, #24
 1805              		@ sp needed
 1806 004c 80BD     		pop	{r7, pc}
 1807              	.L105:
 1808 004e C046     		.align	2
 1809              	.L104:
 1810 0050 00000000 		.word	CapSense_CSD_rawDataIndex
 1811 0054 00000000 		.word	CapSense_CSD_numberOfSensors
 1812              		.cfi_endproc
 1813              	.LFE55:
 1814              		.size	CapSense_CSD_CheckIsWidgetActive, .-CapSense_CSD_CheckIsWidgetActive
 1815              		.section	.text.CapSense_CSD_CheckIsAnyWidgetActive,"ax",%progbits
 1816              		.align	2
 1817              		.global	CapSense_CSD_CheckIsAnyWidgetActive
 1818              		.code	16
 1819              		.thumb_func
 1820              		.type	CapSense_CSD_CheckIsAnyWidgetActive, %function
 1821              	CapSense_CSD_CheckIsAnyWidgetActive:
 1822              	.LFB56:
ARM GAS  C:\Users\SHOZO\AppData\Local\Temp\ccGGKGa0.s 			page 55


1233:Generated_Source\PSoC4/CapSense_CSD_CSHL.c **** 
1234:Generated_Source\PSoC4/CapSense_CSD_CSHL.c **** 
1235:Generated_Source\PSoC4/CapSense_CSD_CSHL.c **** /*******************************************************************************
1236:Generated_Source\PSoC4/CapSense_CSD_CSHL.c **** * Function Name: CapSense_CSD_CheckIsAnyWidgetActive
1237:Generated_Source\PSoC4/CapSense_CSD_CSHL.c **** ********************************************************************************
1238:Generated_Source\PSoC4/CapSense_CSD_CSHL.c **** *
1239:Generated_Source\PSoC4/CapSense_CSD_CSHL.c **** * Summary:
1240:Generated_Source\PSoC4/CapSense_CSD_CSHL.c **** *  Compares all the sensors of the CapSense_CSD_Signal[] array to their finger
1241:Generated_Source\PSoC4/CapSense_CSD_CSHL.c **** *  threshold. Calls CapSense_CSD_CheckIsWidgetActive() for each widget so
1242:Generated_Source\PSoC4/CapSense_CSD_CSHL.c **** *  the CapSense_CSD_sensorOnMask[] array is up to date after calling this
1243:Generated_Source\PSoC4/CapSense_CSD_CSHL.c **** *  function.
1244:Generated_Source\PSoC4/CapSense_CSD_CSHL.c **** *
1245:Generated_Source\PSoC4/CapSense_CSD_CSHL.c **** * Parameters:
1246:Generated_Source\PSoC4/CapSense_CSD_CSHL.c **** *  widget:  widget number.
1247:Generated_Source\PSoC4/CapSense_CSD_CSHL.c **** *
1248:Generated_Source\PSoC4/CapSense_CSD_CSHL.c **** * Return:
1249:Generated_Source\PSoC4/CapSense_CSD_CSHL.c **** *  Returns 1 if any widget is active, 0 none of widgets are active.
1250:Generated_Source\PSoC4/CapSense_CSD_CSHL.c **** *
1251:Generated_Source\PSoC4/CapSense_CSD_CSHL.c **** * Global Variables:
1252:Generated_Source\PSoC4/CapSense_CSD_CSHL.c **** *  None
1253:Generated_Source\PSoC4/CapSense_CSD_CSHL.c **** *
1254:Generated_Source\PSoC4/CapSense_CSD_CSHL.c **** * Side Effects:
1255:Generated_Source\PSoC4/CapSense_CSD_CSHL.c **** *  None
1256:Generated_Source\PSoC4/CapSense_CSD_CSHL.c **** *
1257:Generated_Source\PSoC4/CapSense_CSD_CSHL.c **** *******************************************************************************/
1258:Generated_Source\PSoC4/CapSense_CSD_CSHL.c **** uint32 CapSense_CSD_CheckIsAnyWidgetActive(void)
1259:Generated_Source\PSoC4/CapSense_CSD_CSHL.c **** {
 1823              		.loc 1 1259 0
 1824              		.cfi_startproc
 1825              		@ args = 0, pretend = 0, frame = 8
 1826              		@ frame_needed = 1, uses_anonymous_args = 0
 1827 0000 80B5     		push	{r7, lr}
 1828              		.cfi_def_cfa_offset 8
 1829              		.cfi_offset 7, -8
 1830              		.cfi_offset 14, -4
 1831 0002 82B0     		sub	sp, sp, #8
 1832              		.cfi_def_cfa_offset 16
 1833 0004 00AF     		add	r7, sp, #0
 1834              		.cfi_def_cfa_register 7
1260:Generated_Source\PSoC4/CapSense_CSD_CSHL.c **** 
1261:Generated_Source\PSoC4/CapSense_CSD_CSHL.c ****         uint32 i;
1262:Generated_Source\PSoC4/CapSense_CSD_CSHL.c ****     uint32 state = 0u;
 1835              		.loc 1 1262 0
 1836 0006 0023     		movs	r3, #0
 1837 0008 3B60     		str	r3, [r7]
1263:Generated_Source\PSoC4/CapSense_CSD_CSHL.c ****     
1264:Generated_Source\PSoC4/CapSense_CSD_CSHL.c ****     for(i = 0u; i < CapSense_CSD_TOTAL_WIDGET_COUNT; i++)
 1838              		.loc 1 1264 0
 1839 000a 0023     		movs	r3, #0
 1840 000c 7B60     		str	r3, [r7, #4]
 1841 000e 0AE0     		b	.L107
 1842              	.L109:
1265:Generated_Source\PSoC4/CapSense_CSD_CSHL.c ****     {
1266:Generated_Source\PSoC4/CapSense_CSD_CSHL.c ****         if (CapSense_CSD_CheckIsWidgetActive(i) != 0u)
 1843              		.loc 1 1266 0
 1844 0010 7B68     		ldr	r3, [r7, #4]
 1845 0012 1800     		movs	r0, r3
ARM GAS  C:\Users\SHOZO\AppData\Local\Temp\ccGGKGa0.s 			page 56


 1846 0014 FFF7FEFF 		bl	CapSense_CSD_CheckIsWidgetActive
 1847 0018 031E     		subs	r3, r0, #0
 1848 001a 01D0     		beq	.L108
1267:Generated_Source\PSoC4/CapSense_CSD_CSHL.c ****         {
1268:Generated_Source\PSoC4/CapSense_CSD_CSHL.c ****             state = CapSense_CSD_WIDGET_IS_ACTIVE;
 1849              		.loc 1 1268 0
 1850 001c 0123     		movs	r3, #1
 1851 001e 3B60     		str	r3, [r7]
 1852              	.L108:
1264:Generated_Source\PSoC4/CapSense_CSD_CSHL.c ****     {
 1853              		.loc 1 1264 0 discriminator 2
 1854 0020 7B68     		ldr	r3, [r7, #4]
 1855 0022 0133     		adds	r3, r3, #1
 1856 0024 7B60     		str	r3, [r7, #4]
 1857              	.L107:
1264:Generated_Source\PSoC4/CapSense_CSD_CSHL.c ****     {
 1858              		.loc 1 1264 0 is_stmt 0 discriminator 1
 1859 0026 7B68     		ldr	r3, [r7, #4]
 1860 0028 0C2B     		cmp	r3, #12
 1861 002a F1D9     		bls	.L109
1269:Generated_Source\PSoC4/CapSense_CSD_CSHL.c ****         }
1270:Generated_Source\PSoC4/CapSense_CSD_CSHL.c ****     }
1271:Generated_Source\PSoC4/CapSense_CSD_CSHL.c ****     
1272:Generated_Source\PSoC4/CapSense_CSD_CSHL.c **** 
1273:Generated_Source\PSoC4/CapSense_CSD_CSHL.c **** 
1274:Generated_Source\PSoC4/CapSense_CSD_CSHL.c ****     return state;
 1862              		.loc 1 1274 0 is_stmt 1
 1863 002c 3B68     		ldr	r3, [r7]
1275:Generated_Source\PSoC4/CapSense_CSD_CSHL.c **** }
 1864              		.loc 1 1275 0
 1865 002e 1800     		movs	r0, r3
 1866 0030 BD46     		mov	sp, r7
 1867 0032 02B0     		add	sp, sp, #8
 1868              		@ sp needed
 1869 0034 80BD     		pop	{r7, pc}
 1870              		.cfi_endproc
 1871              	.LFE56:
 1872              		.size	CapSense_CSD_CheckIsAnyWidgetActive, .-CapSense_CSD_CheckIsAnyWidgetActive
 1873 0036 C046     		.section	.text.CapSense_CSD_EnableWidget,"ax",%progbits
 1874              		.align	2
 1875              		.global	CapSense_CSD_EnableWidget
 1876              		.code	16
 1877              		.thumb_func
 1878              		.type	CapSense_CSD_EnableWidget, %function
 1879              	CapSense_CSD_EnableWidget:
 1880              	.LFB57:
1276:Generated_Source\PSoC4/CapSense_CSD_CSHL.c **** 
1277:Generated_Source\PSoC4/CapSense_CSD_CSHL.c **** 
1278:Generated_Source\PSoC4/CapSense_CSD_CSHL.c **** /*******************************************************************************
1279:Generated_Source\PSoC4/CapSense_CSD_CSHL.c **** * Function Name: CapSense_CSD_EnableWidget
1280:Generated_Source\PSoC4/CapSense_CSD_CSHL.c **** ********************************************************************************
1281:Generated_Source\PSoC4/CapSense_CSD_CSHL.c **** *
1282:Generated_Source\PSoC4/CapSense_CSD_CSHL.c **** * Summary:
1283:Generated_Source\PSoC4/CapSense_CSD_CSHL.c **** *  Enables all the widget elements (sensors) to the scanning process.
1284:Generated_Source\PSoC4/CapSense_CSD_CSHL.c **** *
1285:Generated_Source\PSoC4/CapSense_CSD_CSHL.c **** * Parameters:
1286:Generated_Source\PSoC4/CapSense_CSD_CSHL.c **** *  widget:  widget number.
ARM GAS  C:\Users\SHOZO\AppData\Local\Temp\ccGGKGa0.s 			page 57


1287:Generated_Source\PSoC4/CapSense_CSD_CSHL.c **** *
1288:Generated_Source\PSoC4/CapSense_CSD_CSHL.c **** * Return:
1289:Generated_Source\PSoC4/CapSense_CSD_CSHL.c **** *  None
1290:Generated_Source\PSoC4/CapSense_CSD_CSHL.c **** *
1291:Generated_Source\PSoC4/CapSense_CSD_CSHL.c **** * Global Variables:
1292:Generated_Source\PSoC4/CapSense_CSD_CSHL.c **** *  CapSense_CSD_sensorEnableMask[] - used to store the sensor scanning
1293:Generated_Source\PSoC4/CapSense_CSD_CSHL.c **** *  state.
1294:Generated_Source\PSoC4/CapSense_CSD_CSHL.c **** *  CapSense_CSD_sensorEnableMask[0] contains the masked bits for sensors
1295:Generated_Source\PSoC4/CapSense_CSD_CSHL.c **** *  0 through 7 (sensor 0 is bit 0, sensor 1 is bit 1).
1296:Generated_Source\PSoC4/CapSense_CSD_CSHL.c **** *  CapSense_CSD_sensorEnableMask[1] contains the masked bits for
1297:Generated_Source\PSoC4/CapSense_CSD_CSHL.c **** *  sensors 8 through 15 (if needed), and so on.
1298:Generated_Source\PSoC4/CapSense_CSD_CSHL.c **** *  0 - sensor doesn't scan by CapSense_CSD_ScanEnabledWidgets().
1299:Generated_Source\PSoC4/CapSense_CSD_CSHL.c **** *  1 - sensor scans by CapSense_CSD_ScanEnabledWidgets().
1300:Generated_Source\PSoC4/CapSense_CSD_CSHL.c **** *
1301:Generated_Source\PSoC4/CapSense_CSD_CSHL.c **** * Side Effects:
1302:Generated_Source\PSoC4/CapSense_CSD_CSHL.c **** *  None
1303:Generated_Source\PSoC4/CapSense_CSD_CSHL.c **** *
1304:Generated_Source\PSoC4/CapSense_CSD_CSHL.c **** *******************************************************************************/
1305:Generated_Source\PSoC4/CapSense_CSD_CSHL.c **** void CapSense_CSD_EnableWidget(uint32 widget)
1306:Generated_Source\PSoC4/CapSense_CSD_CSHL.c **** {
 1881              		.loc 1 1306 0
 1882              		.cfi_startproc
 1883              		@ args = 0, pretend = 0, frame = 16
 1884              		@ frame_needed = 1, uses_anonymous_args = 0
 1885 0000 80B5     		push	{r7, lr}
 1886              		.cfi_def_cfa_offset 8
 1887              		.cfi_offset 7, -8
 1888              		.cfi_offset 14, -4
 1889 0002 84B0     		sub	sp, sp, #16
 1890              		.cfi_def_cfa_offset 24
 1891 0004 00AF     		add	r7, sp, #0
 1892              		.cfi_def_cfa_register 7
 1893 0006 7860     		str	r0, [r7, #4]
1307:Generated_Source\PSoC4/CapSense_CSD_CSHL.c **** 
1308:Generated_Source\PSoC4/CapSense_CSD_CSHL.c ****     uint8 rawIndex = CapSense_CSD_rawDataIndex[widget];
 1894              		.loc 1 1308 0
 1895 0008 0F23     		movs	r3, #15
 1896 000a FB18     		adds	r3, r7, r3
 1897 000c 1549     		ldr	r1, .L113
 1898 000e 7A68     		ldr	r2, [r7, #4]
 1899 0010 8A18     		adds	r2, r1, r2
 1900 0012 1278     		ldrb	r2, [r2]
 1901 0014 1A70     		strb	r2, [r3]
1309:Generated_Source\PSoC4/CapSense_CSD_CSHL.c ****     uint8 numOfSensors = CapSense_CSD_numberOfSensors[widget] + rawIndex;
 1902              		.loc 1 1309 0
 1903 0016 144A     		ldr	r2, .L113+4
 1904 0018 7B68     		ldr	r3, [r7, #4]
 1905 001a D318     		adds	r3, r2, r3
 1906 001c 1978     		ldrb	r1, [r3]
 1907 001e 0E23     		movs	r3, #14
 1908 0020 FB18     		adds	r3, r7, r3
 1909 0022 0F22     		movs	r2, #15
 1910 0024 BA18     		adds	r2, r7, r2
 1911 0026 1278     		ldrb	r2, [r2]
 1912 0028 8A18     		adds	r2, r1, r2
 1913 002a 1A70     		strb	r2, [r3]
 1914              	.L112:
ARM GAS  C:\Users\SHOZO\AppData\Local\Temp\ccGGKGa0.s 			page 58


1310:Generated_Source\PSoC4/CapSense_CSD_CSHL.c **** 
1311:Generated_Source\PSoC4/CapSense_CSD_CSHL.c ****     /* Enable all sensors of widget */
1312:Generated_Source\PSoC4/CapSense_CSD_CSHL.c ****     do
1313:Generated_Source\PSoC4/CapSense_CSD_CSHL.c ****     {
1314:Generated_Source\PSoC4/CapSense_CSD_CSHL.c ****         CapSense_CSD_SetBitValue(CapSense_CSD_sensorEnableMask, (uint32)rawIndex, 1u);
 1915              		.loc 1 1314 0 discriminator 1
 1916 002c 0F23     		movs	r3, #15
 1917 002e FB18     		adds	r3, r7, r3
 1918 0030 1978     		ldrb	r1, [r3]
 1919 0032 0E4B     		ldr	r3, .L113+8
 1920 0034 0122     		movs	r2, #1
 1921 0036 1800     		movs	r0, r3
 1922 0038 FFF7FEFF 		bl	CapSense_CSD_SetBitValue
1315:Generated_Source\PSoC4/CapSense_CSD_CSHL.c ****         rawIndex++;
 1923              		.loc 1 1315 0 discriminator 1
 1924 003c 0F23     		movs	r3, #15
 1925 003e FB18     		adds	r3, r7, r3
 1926 0040 1A78     		ldrb	r2, [r3]
 1927 0042 0F23     		movs	r3, #15
 1928 0044 FB18     		adds	r3, r7, r3
 1929 0046 0132     		adds	r2, r2, #1
 1930 0048 1A70     		strb	r2, [r3]
1316:Generated_Source\PSoC4/CapSense_CSD_CSHL.c ****     }
1317:Generated_Source\PSoC4/CapSense_CSD_CSHL.c ****     while(rawIndex < numOfSensors);
 1931              		.loc 1 1317 0 discriminator 1
 1932 004a 0F23     		movs	r3, #15
 1933 004c FA18     		adds	r2, r7, r3
 1934 004e 0E23     		movs	r3, #14
 1935 0050 FB18     		adds	r3, r7, r3
 1936 0052 1278     		ldrb	r2, [r2]
 1937 0054 1B78     		ldrb	r3, [r3]
 1938 0056 9A42     		cmp	r2, r3
 1939 0058 E8D3     		bcc	.L112
1318:Generated_Source\PSoC4/CapSense_CSD_CSHL.c **** }
 1940              		.loc 1 1318 0
 1941 005a C046     		nop
 1942 005c BD46     		mov	sp, r7
 1943 005e 04B0     		add	sp, sp, #16
 1944              		@ sp needed
 1945 0060 80BD     		pop	{r7, pc}
 1946              	.L114:
 1947 0062 C046     		.align	2
 1948              	.L113:
 1949 0064 00000000 		.word	CapSense_CSD_rawDataIndex
 1950 0068 00000000 		.word	CapSense_CSD_numberOfSensors
 1951 006c 00000000 		.word	CapSense_CSD_sensorEnableMask
 1952              		.cfi_endproc
 1953              	.LFE57:
 1954              		.size	CapSense_CSD_EnableWidget, .-CapSense_CSD_EnableWidget
 1955              		.section	.text.CapSense_CSD_DisableWidget,"ax",%progbits
 1956              		.align	2
 1957              		.global	CapSense_CSD_DisableWidget
 1958              		.code	16
 1959              		.thumb_func
 1960              		.type	CapSense_CSD_DisableWidget, %function
 1961              	CapSense_CSD_DisableWidget:
 1962              	.LFB58:
ARM GAS  C:\Users\SHOZO\AppData\Local\Temp\ccGGKGa0.s 			page 59


1319:Generated_Source\PSoC4/CapSense_CSD_CSHL.c **** 
1320:Generated_Source\PSoC4/CapSense_CSD_CSHL.c **** 
1321:Generated_Source\PSoC4/CapSense_CSD_CSHL.c **** /*******************************************************************************
1322:Generated_Source\PSoC4/CapSense_CSD_CSHL.c **** * Function Name: CapSense_CSD_DisableWidget
1323:Generated_Source\PSoC4/CapSense_CSD_CSHL.c **** ********************************************************************************
1324:Generated_Source\PSoC4/CapSense_CSD_CSHL.c **** *
1325:Generated_Source\PSoC4/CapSense_CSD_CSHL.c **** * Summary:
1326:Generated_Source\PSoC4/CapSense_CSD_CSHL.c **** *  Disables all the widget elements (sensors) from the scanning process.
1327:Generated_Source\PSoC4/CapSense_CSD_CSHL.c **** *
1328:Generated_Source\PSoC4/CapSense_CSD_CSHL.c **** * Parameters:
1329:Generated_Source\PSoC4/CapSense_CSD_CSHL.c **** *  widget:  widget number.
1330:Generated_Source\PSoC4/CapSense_CSD_CSHL.c **** *
1331:Generated_Source\PSoC4/CapSense_CSD_CSHL.c **** * Return:
1332:Generated_Source\PSoC4/CapSense_CSD_CSHL.c **** *  None
1333:Generated_Source\PSoC4/CapSense_CSD_CSHL.c **** *
1334:Generated_Source\PSoC4/CapSense_CSD_CSHL.c **** * Global Variables:
1335:Generated_Source\PSoC4/CapSense_CSD_CSHL.c **** *  CapSense_CSD_sensorEnableMask[] - used to store the sensor scanning
1336:Generated_Source\PSoC4/CapSense_CSD_CSHL.c **** *  state.
1337:Generated_Source\PSoC4/CapSense_CSD_CSHL.c **** *  CapSense_CSD_sensorEnableMask[0] contains the masked bits for sensors
1338:Generated_Source\PSoC4/CapSense_CSD_CSHL.c **** *  0 through 7 (sensor 0 is bit 0, sensor 1 is bit 1).
1339:Generated_Source\PSoC4/CapSense_CSD_CSHL.c **** *  CapSense_CSD_sensorEnableMask[1] contains the masked bits for
1340:Generated_Source\PSoC4/CapSense_CSD_CSHL.c **** *  sensors 8 through 15 (if needed), and so on.
1341:Generated_Source\PSoC4/CapSense_CSD_CSHL.c **** *  0 - sensor isn't scanned by CapSense_CSD_ScanEnabledWidgets().
1342:Generated_Source\PSoC4/CapSense_CSD_CSHL.c **** *  1 - sensor is scanned by CapSense_CSD_ScanEnabledWidgets().
1343:Generated_Source\PSoC4/CapSense_CSD_CSHL.c **** *
1344:Generated_Source\PSoC4/CapSense_CSD_CSHL.c **** * Side Effects:
1345:Generated_Source\PSoC4/CapSense_CSD_CSHL.c **** *  None
1346:Generated_Source\PSoC4/CapSense_CSD_CSHL.c **** *
1347:Generated_Source\PSoC4/CapSense_CSD_CSHL.c **** *******************************************************************************/
1348:Generated_Source\PSoC4/CapSense_CSD_CSHL.c **** void CapSense_CSD_DisableWidget(uint32 widget)
1349:Generated_Source\PSoC4/CapSense_CSD_CSHL.c **** {
 1963              		.loc 1 1349 0
 1964              		.cfi_startproc
 1965              		@ args = 0, pretend = 0, frame = 16
 1966              		@ frame_needed = 1, uses_anonymous_args = 0
 1967 0000 80B5     		push	{r7, lr}
 1968              		.cfi_def_cfa_offset 8
 1969              		.cfi_offset 7, -8
 1970              		.cfi_offset 14, -4
 1971 0002 84B0     		sub	sp, sp, #16
 1972              		.cfi_def_cfa_offset 24
 1973 0004 00AF     		add	r7, sp, #0
 1974              		.cfi_def_cfa_register 7
 1975 0006 7860     		str	r0, [r7, #4]
1350:Generated_Source\PSoC4/CapSense_CSD_CSHL.c ****     uint8 rawIndex = CapSense_CSD_rawDataIndex[widget];
 1976              		.loc 1 1350 0
 1977 0008 0F23     		movs	r3, #15
 1978 000a FB18     		adds	r3, r7, r3
 1979 000c 1549     		ldr	r1, .L117
 1980 000e 7A68     		ldr	r2, [r7, #4]
 1981 0010 8A18     		adds	r2, r1, r2
 1982 0012 1278     		ldrb	r2, [r2]
 1983 0014 1A70     		strb	r2, [r3]
1351:Generated_Source\PSoC4/CapSense_CSD_CSHL.c ****     uint8 numOfSensors = CapSense_CSD_numberOfSensors[widget] + rawIndex;
 1984              		.loc 1 1351 0
 1985 0016 144A     		ldr	r2, .L117+4
 1986 0018 7B68     		ldr	r3, [r7, #4]
ARM GAS  C:\Users\SHOZO\AppData\Local\Temp\ccGGKGa0.s 			page 60


 1987 001a D318     		adds	r3, r2, r3
 1988 001c 1978     		ldrb	r1, [r3]
 1989 001e 0E23     		movs	r3, #14
 1990 0020 FB18     		adds	r3, r7, r3
 1991 0022 0F22     		movs	r2, #15
 1992 0024 BA18     		adds	r2, r7, r2
 1993 0026 1278     		ldrb	r2, [r2]
 1994 0028 8A18     		adds	r2, r1, r2
 1995 002a 1A70     		strb	r2, [r3]
 1996              	.L116:
1352:Generated_Source\PSoC4/CapSense_CSD_CSHL.c **** 
1353:Generated_Source\PSoC4/CapSense_CSD_CSHL.c ****     /* Disable all sensors of widget */
1354:Generated_Source\PSoC4/CapSense_CSD_CSHL.c ****     do
1355:Generated_Source\PSoC4/CapSense_CSD_CSHL.c ****     {
1356:Generated_Source\PSoC4/CapSense_CSD_CSHL.c **** 
1357:Generated_Source\PSoC4/CapSense_CSD_CSHL.c ****         CapSense_CSD_SetBitValue(CapSense_CSD_sensorEnableMask, (uint32)rawIndex, 0u);
 1997              		.loc 1 1357 0 discriminator 1
 1998 002c 0F23     		movs	r3, #15
 1999 002e FB18     		adds	r3, r7, r3
 2000 0030 1978     		ldrb	r1, [r3]
 2001 0032 0E4B     		ldr	r3, .L117+8
 2002 0034 0022     		movs	r2, #0
 2003 0036 1800     		movs	r0, r3
 2004 0038 FFF7FEFF 		bl	CapSense_CSD_SetBitValue
1358:Generated_Source\PSoC4/CapSense_CSD_CSHL.c ****         rawIndex++;
 2005              		.loc 1 1358 0 discriminator 1
 2006 003c 0F23     		movs	r3, #15
 2007 003e FB18     		adds	r3, r7, r3
 2008 0040 1A78     		ldrb	r2, [r3]
 2009 0042 0F23     		movs	r3, #15
 2010 0044 FB18     		adds	r3, r7, r3
 2011 0046 0132     		adds	r2, r2, #1
 2012 0048 1A70     		strb	r2, [r3]
1359:Generated_Source\PSoC4/CapSense_CSD_CSHL.c ****     }
1360:Generated_Source\PSoC4/CapSense_CSD_CSHL.c ****     while(rawIndex < numOfSensors);
 2013              		.loc 1 1360 0 discriminator 1
 2014 004a 0F23     		movs	r3, #15
 2015 004c FA18     		adds	r2, r7, r3
 2016 004e 0E23     		movs	r3, #14
 2017 0050 FB18     		adds	r3, r7, r3
 2018 0052 1278     		ldrb	r2, [r2]
 2019 0054 1B78     		ldrb	r3, [r3]
 2020 0056 9A42     		cmp	r2, r3
 2021 0058 E8D3     		bcc	.L116
1361:Generated_Source\PSoC4/CapSense_CSD_CSHL.c **** }
 2022              		.loc 1 1361 0
 2023 005a C046     		nop
 2024 005c BD46     		mov	sp, r7
 2025 005e 04B0     		add	sp, sp, #16
 2026              		@ sp needed
 2027 0060 80BD     		pop	{r7, pc}
 2028              	.L118:
 2029 0062 C046     		.align	2
 2030              	.L117:
 2031 0064 00000000 		.word	CapSense_CSD_rawDataIndex
 2032 0068 00000000 		.word	CapSense_CSD_numberOfSensors
 2033 006c 00000000 		.word	CapSense_CSD_sensorEnableMask
ARM GAS  C:\Users\SHOZO\AppData\Local\Temp\ccGGKGa0.s 			page 61


 2034              		.cfi_endproc
 2035              	.LFE58:
 2036              		.size	CapSense_CSD_DisableWidget, .-CapSense_CSD_DisableWidget
 2037              		.section	.text.CapSense_CSD_MedianFilter,"ax",%progbits
 2038              		.align	2
 2039              		.global	CapSense_CSD_MedianFilter
 2040              		.code	16
 2041              		.thumb_func
 2042              		.type	CapSense_CSD_MedianFilter, %function
 2043              	CapSense_CSD_MedianFilter:
 2044              	.LFB59:
1362:Generated_Source\PSoC4/CapSense_CSD_CSHL.c **** 
1363:Generated_Source\PSoC4/CapSense_CSD_CSHL.c **** 
1364:Generated_Source\PSoC4/CapSense_CSD_CSHL.c **** #if(CapSense_CSD_TOTAL_CENTROIDS_BASIC_COUNT)
1365:Generated_Source\PSoC4/CapSense_CSD_CSHL.c ****     /*******************************************************************************
1366:Generated_Source\PSoC4/CapSense_CSD_CSHL.c ****     * Function Name: CapSense_CSD_FindMaximum
1367:Generated_Source\PSoC4/CapSense_CSD_CSHL.c ****     ********************************************************************************
1368:Generated_Source\PSoC4/CapSense_CSD_CSHL.c ****     *
1369:Generated_Source\PSoC4/CapSense_CSD_CSHL.c ****     * Summary:
1370:Generated_Source\PSoC4/CapSense_CSD_CSHL.c ****     *  Finds the index of the maximum element within a defined centroid. Checks
1371:Generated_Source\PSoC4/CapSense_CSD_CSHL.c ****     *  CapSense_CSD_sensorSignal[] within a defined centroid and
1372:Generated_Source\PSoC4/CapSense_CSD_CSHL.c ****     *  returns the index of the maximum element. The values below the finger threshold are
1373:Generated_Source\PSoC4/CapSense_CSD_CSHL.c ****     *  ignored.
1374:Generated_Source\PSoC4/CapSense_CSD_CSHL.c ****     *  The centroid is defined by offset of the first element and a number of elements - count.
1375:Generated_Source\PSoC4/CapSense_CSD_CSHL.c ****     *  The diplexed centroid requires at least two consecutive elements above
1376:Generated_Source\PSoC4/CapSense_CSD_CSHL.c ****     *  FingerThreshold to find the index of the maximum element.
1377:Generated_Source\PSoC4/CapSense_CSD_CSHL.c ****     *
1378:Generated_Source\PSoC4/CapSense_CSD_CSHL.c ****     * Parameters:
1379:Generated_Source\PSoC4/CapSense_CSD_CSHL.c ****     *  offset:  Start index of centroid in CapSense_CSD_sensorSignal[] array.
1380:Generated_Source\PSoC4/CapSense_CSD_CSHL.c ****     *  count:   number of elements within centroid.
1381:Generated_Source\PSoC4/CapSense_CSD_CSHL.c ****     *  fingerThreshold:  Finger threshold.
1382:Generated_Source\PSoC4/CapSense_CSD_CSHL.c ****     *  diplex:   pointer to diplex table.
1383:Generated_Source\PSoC4/CapSense_CSD_CSHL.c ****     *
1384:Generated_Source\PSoC4/CapSense_CSD_CSHL.c ****     * Return:
1385:Generated_Source\PSoC4/CapSense_CSD_CSHL.c ****     *  Returns the index of the maximum element within a defined centroid.
1386:Generated_Source\PSoC4/CapSense_CSD_CSHL.c ****     *  If the index of the maximum element isn't found it returns 0xFF.
1387:Generated_Source\PSoC4/CapSense_CSD_CSHL.c ****     *
1388:Generated_Source\PSoC4/CapSense_CSD_CSHL.c ****     * Global Variables:
1389:Generated_Source\PSoC4/CapSense_CSD_CSHL.c ****     *  CapSense_CSD_startOfSlider[] - contains the index of the first slider element
1390:Generated_Source\PSoC4/CapSense_CSD_CSHL.c ****     *
1391:Generated_Source\PSoC4/CapSense_CSD_CSHL.c ****     * Side Effects:
1392:Generated_Source\PSoC4/CapSense_CSD_CSHL.c ****     *  None
1393:Generated_Source\PSoC4/CapSense_CSD_CSHL.c ****     *
1394:Generated_Source\PSoC4/CapSense_CSD_CSHL.c ****     *******************************************************************************/
1395:Generated_Source\PSoC4/CapSense_CSD_CSHL.c ****     #if (CapSense_CSD_IS_DIPLEX_SLIDER)
1396:Generated_Source\PSoC4/CapSense_CSD_CSHL.c ****         uint8 CapSense_CSD_FindMaximum(uint8 offset, uint8 count, uint16 fingerThreshold, const uin
1397:Generated_Source\PSoC4/CapSense_CSD_CSHL.c ****     #else
1398:Generated_Source\PSoC4/CapSense_CSD_CSHL.c ****         uint8 CapSense_CSD_FindMaximum(uint8 offset, uint8 count, uint16 fingerThreshold)
1399:Generated_Source\PSoC4/CapSense_CSD_CSHL.c ****     #endif /* (CapSense_CSD_IS_DIPLEX_SLIDER) */
1400:Generated_Source\PSoC4/CapSense_CSD_CSHL.c ****     {
1401:Generated_Source\PSoC4/CapSense_CSD_CSHL.c ****         uint8 i;
1402:Generated_Source\PSoC4/CapSense_CSD_CSHL.c ****         #if (CapSense_CSD_IS_DIPLEX_SLIDER)
1403:Generated_Source\PSoC4/CapSense_CSD_CSHL.c ****             uint8 curPos = 0u;
1404:Generated_Source\PSoC4/CapSense_CSD_CSHL.c ****             /* No centroid at Start */
1405:Generated_Source\PSoC4/CapSense_CSD_CSHL.c ****             uint8 curCntrdSize = 0u;
1406:Generated_Source\PSoC4/CapSense_CSD_CSHL.c ****             uint8 curCtrdStartPos = CapSense_CSD_MAXIMUM_CENTROID;
1407:Generated_Source\PSoC4/CapSense_CSD_CSHL.c ****             /* Biggest centroid is zero */
ARM GAS  C:\Users\SHOZO\AppData\Local\Temp\ccGGKGa0.s 			page 62


1408:Generated_Source\PSoC4/CapSense_CSD_CSHL.c ****             uint8 biggestCtrdSize = 0u;
1409:Generated_Source\PSoC4/CapSense_CSD_CSHL.c ****             uint8 biggestCtrdStartPos = 0u;
1410:Generated_Source\PSoC4/CapSense_CSD_CSHL.c ****         #endif /* (CapSense_CSD_IS_DIPLEX_SLIDER) */
1411:Generated_Source\PSoC4/CapSense_CSD_CSHL.c ****         uint8 maximum = CapSense_CSD_MAXIMUM_CENTROID;
1412:Generated_Source\PSoC4/CapSense_CSD_CSHL.c **** 
1413:Generated_Source\PSoC4/CapSense_CSD_CSHL.c ****         uint16 temp = 0u;
1414:Generated_Source\PSoC4/CapSense_CSD_CSHL.c ****         uint16 *startOfSlider = &CapSense_CSD_sensorSignal[offset];
1415:Generated_Source\PSoC4/CapSense_CSD_CSHL.c **** 
1416:Generated_Source\PSoC4/CapSense_CSD_CSHL.c ****         #if (CapSense_CSD_IS_DIPLEX_SLIDER)
1417:Generated_Source\PSoC4/CapSense_CSD_CSHL.c ****             if(diplex != 0u)
1418:Generated_Source\PSoC4/CapSense_CSD_CSHL.c ****             {
1419:Generated_Source\PSoC4/CapSense_CSD_CSHL.c ****                 /* Initialize */
1420:Generated_Source\PSoC4/CapSense_CSD_CSHL.c ****                 i = 0u;
1421:Generated_Source\PSoC4/CapSense_CSD_CSHL.c **** 
1422:Generated_Source\PSoC4/CapSense_CSD_CSHL.c ****                 /* Make slider x2 as Diplexed */
1423:Generated_Source\PSoC4/CapSense_CSD_CSHL.c ****                 count <<= 1u;
1424:Generated_Source\PSoC4/CapSense_CSD_CSHL.c ****                 while(1u)
1425:Generated_Source\PSoC4/CapSense_CSD_CSHL.c ****                 {
1426:Generated_Source\PSoC4/CapSense_CSD_CSHL.c ****                     if (startOfSlider[curPos] > 0u)    /* Looking for centroids */
1427:Generated_Source\PSoC4/CapSense_CSD_CSHL.c ****                     {
1428:Generated_Source\PSoC4/CapSense_CSD_CSHL.c ****                         if (curCtrdStartPos == CapSense_CSD_MAXIMUM_CENTROID)
1429:Generated_Source\PSoC4/CapSense_CSD_CSHL.c ****                         {
1430:Generated_Source\PSoC4/CapSense_CSD_CSHL.c ****                             /* Start of centroid */
1431:Generated_Source\PSoC4/CapSense_CSD_CSHL.c ****                             curCtrdStartPos = i;
1432:Generated_Source\PSoC4/CapSense_CSD_CSHL.c ****                             curCntrdSize++;
1433:Generated_Source\PSoC4/CapSense_CSD_CSHL.c ****                         }
1434:Generated_Source\PSoC4/CapSense_CSD_CSHL.c ****                         else
1435:Generated_Source\PSoC4/CapSense_CSD_CSHL.c ****                         {
1436:Generated_Source\PSoC4/CapSense_CSD_CSHL.c ****                             curCntrdSize++;
1437:Generated_Source\PSoC4/CapSense_CSD_CSHL.c ****                         }
1438:Generated_Source\PSoC4/CapSense_CSD_CSHL.c ****                     }
1439:Generated_Source\PSoC4/CapSense_CSD_CSHL.c ****                     else   /* Select biggest and indicate zero start */
1440:Generated_Source\PSoC4/CapSense_CSD_CSHL.c ****                     {
1441:Generated_Source\PSoC4/CapSense_CSD_CSHL.c ****                         if(curCntrdSize > 0u)
1442:Generated_Source\PSoC4/CapSense_CSD_CSHL.c ****                         {
1443:Generated_Source\PSoC4/CapSense_CSD_CSHL.c ****                             /* We are at the end of current */
1444:Generated_Source\PSoC4/CapSense_CSD_CSHL.c ****                             if(curCntrdSize > biggestCtrdSize)
1445:Generated_Source\PSoC4/CapSense_CSD_CSHL.c ****                             {
1446:Generated_Source\PSoC4/CapSense_CSD_CSHL.c ****                                 biggestCtrdSize = curCntrdSize;
1447:Generated_Source\PSoC4/CapSense_CSD_CSHL.c ****                                 biggestCtrdStartPos = curCtrdStartPos;
1448:Generated_Source\PSoC4/CapSense_CSD_CSHL.c ****                             }
1449:Generated_Source\PSoC4/CapSense_CSD_CSHL.c **** 
1450:Generated_Source\PSoC4/CapSense_CSD_CSHL.c ****                             curCntrdSize = 0u;
1451:Generated_Source\PSoC4/CapSense_CSD_CSHL.c ****                             curCtrdStartPos = CapSense_CSD_MAXIMUM_CENTROID;
1452:Generated_Source\PSoC4/CapSense_CSD_CSHL.c ****                         }
1453:Generated_Source\PSoC4/CapSense_CSD_CSHL.c ****                     }
1454:Generated_Source\PSoC4/CapSense_CSD_CSHL.c **** 
1455:Generated_Source\PSoC4/CapSense_CSD_CSHL.c ****                     i++;
1456:Generated_Source\PSoC4/CapSense_CSD_CSHL.c ****                     curPos = diplex[i];
1457:Generated_Source\PSoC4/CapSense_CSD_CSHL.c ****                     if(i == count)
1458:Generated_Source\PSoC4/CapSense_CSD_CSHL.c ****                     {
1459:Generated_Source\PSoC4/CapSense_CSD_CSHL.c ****                         break;
1460:Generated_Source\PSoC4/CapSense_CSD_CSHL.c ****                     }
1461:Generated_Source\PSoC4/CapSense_CSD_CSHL.c ****                 }
1462:Generated_Source\PSoC4/CapSense_CSD_CSHL.c **** 
1463:Generated_Source\PSoC4/CapSense_CSD_CSHL.c ****                     /* Find biggest centroid if two are same size, last one wins
1464:Generated_Source\PSoC4/CapSense_CSD_CSHL.c ****                        We are at the end of current */
ARM GAS  C:\Users\SHOZO\AppData\Local\Temp\ccGGKGa0.s 			page 63


1465:Generated_Source\PSoC4/CapSense_CSD_CSHL.c ****                 if (curCntrdSize >= biggestCtrdSize)
1466:Generated_Source\PSoC4/CapSense_CSD_CSHL.c ****                 {
1467:Generated_Source\PSoC4/CapSense_CSD_CSHL.c ****                     biggestCtrdSize = curCntrdSize;
1468:Generated_Source\PSoC4/CapSense_CSD_CSHL.c ****                     biggestCtrdStartPos = curCtrdStartPos;
1469:Generated_Source\PSoC4/CapSense_CSD_CSHL.c ****                 }
1470:Generated_Source\PSoC4/CapSense_CSD_CSHL.c ****             }
1471:Generated_Source\PSoC4/CapSense_CSD_CSHL.c ****             else
1472:Generated_Source\PSoC4/CapSense_CSD_CSHL.c ****             {
1473:Generated_Source\PSoC4/CapSense_CSD_CSHL.c ****                 /* Without diplexing */
1474:Generated_Source\PSoC4/CapSense_CSD_CSHL.c ****                 biggestCtrdSize = count;
1475:Generated_Source\PSoC4/CapSense_CSD_CSHL.c ****             }
1476:Generated_Source\PSoC4/CapSense_CSD_CSHL.c **** 
1477:Generated_Source\PSoC4/CapSense_CSD_CSHL.c **** 
1478:Generated_Source\PSoC4/CapSense_CSD_CSHL.c ****             /* Check centroid size */
1479:Generated_Source\PSoC4/CapSense_CSD_CSHL.c ****             #if (CapSense_CSD_IS_NON_DIPLEX_SLIDER)
1480:Generated_Source\PSoC4/CapSense_CSD_CSHL.c ****                 if((biggestCtrdSize >= 2u) || ((biggestCtrdSize == 1u) && (diplex == 0u)))
1481:Generated_Source\PSoC4/CapSense_CSD_CSHL.c ****             #else
1482:Generated_Source\PSoC4/CapSense_CSD_CSHL.c ****                 if(biggestCtrdSize >= 2u)
1483:Generated_Source\PSoC4/CapSense_CSD_CSHL.c ****             #endif /* (CapSense_CSD_IS_NON_DIPLEX_SLIDER) */
1484:Generated_Source\PSoC4/CapSense_CSD_CSHL.c ****                 {
1485:Generated_Source\PSoC4/CapSense_CSD_CSHL.c ****                     for (i = biggestCtrdStartPos; i < (biggestCtrdStartPos + biggestCtrdSize); i++)
1486:Generated_Source\PSoC4/CapSense_CSD_CSHL.c ****                     {
1487:Generated_Source\PSoC4/CapSense_CSD_CSHL.c ****                         #if (CapSense_CSD_IS_DIPLEX_SLIDER && CapSense_CSD_IS_NON_DIPLEX_SLIDER)
1488:Generated_Source\PSoC4/CapSense_CSD_CSHL.c ****                             if (diplex == 0u)
1489:Generated_Source\PSoC4/CapSense_CSD_CSHL.c ****                             {
1490:Generated_Source\PSoC4/CapSense_CSD_CSHL.c ****                                 curPos = i;
1491:Generated_Source\PSoC4/CapSense_CSD_CSHL.c ****                             }
1492:Generated_Source\PSoC4/CapSense_CSD_CSHL.c ****                             else
1493:Generated_Source\PSoC4/CapSense_CSD_CSHL.c ****                             {
1494:Generated_Source\PSoC4/CapSense_CSD_CSHL.c ****                                 curPos = diplex[i];
1495:Generated_Source\PSoC4/CapSense_CSD_CSHL.c ****                             }
1496:Generated_Source\PSoC4/CapSense_CSD_CSHL.c ****                         #elif (CapSense_CSD_IS_DIPLEX_SLIDER)
1497:Generated_Source\PSoC4/CapSense_CSD_CSHL.c ****                             curPos = diplex[i];
1498:Generated_Source\PSoC4/CapSense_CSD_CSHL.c ****                         #endif /* (CapSense_CSD_IS_DIPLEX_SLIDER && CapSense_CSD_IS_NON_DIPLEX_SLID
1499:Generated_Source\PSoC4/CapSense_CSD_CSHL.c ****                         /* Looking for greater element within centroid */
1500:Generated_Source\PSoC4/CapSense_CSD_CSHL.c ****                         if(startOfSlider[curPos] > fingerThreshold)
1501:Generated_Source\PSoC4/CapSense_CSD_CSHL.c ****                         {
1502:Generated_Source\PSoC4/CapSense_CSD_CSHL.c ****                             if(startOfSlider[curPos] > temp)
1503:Generated_Source\PSoC4/CapSense_CSD_CSHL.c ****                             {
1504:Generated_Source\PSoC4/CapSense_CSD_CSHL.c ****                                 maximum = i;
1505:Generated_Source\PSoC4/CapSense_CSD_CSHL.c ****                                 temp = startOfSlider[curPos];
1506:Generated_Source\PSoC4/CapSense_CSD_CSHL.c ****                             }
1507:Generated_Source\PSoC4/CapSense_CSD_CSHL.c ****                         }
1508:Generated_Source\PSoC4/CapSense_CSD_CSHL.c ****                     }
1509:Generated_Source\PSoC4/CapSense_CSD_CSHL.c ****                 }
1510:Generated_Source\PSoC4/CapSense_CSD_CSHL.c ****         #else
1511:Generated_Source\PSoC4/CapSense_CSD_CSHL.c ****             for (i = 0u; i < count; i++)
1512:Generated_Source\PSoC4/CapSense_CSD_CSHL.c ****             {
1513:Generated_Source\PSoC4/CapSense_CSD_CSHL.c ****                 /* Looking for greater element within centroid */
1514:Generated_Source\PSoC4/CapSense_CSD_CSHL.c ****                 if(startOfSlider[i] > fingerThreshold)
1515:Generated_Source\PSoC4/CapSense_CSD_CSHL.c ****                 {
1516:Generated_Source\PSoC4/CapSense_CSD_CSHL.c ****                     if(startOfSlider[i] > temp)
1517:Generated_Source\PSoC4/CapSense_CSD_CSHL.c ****                     {
1518:Generated_Source\PSoC4/CapSense_CSD_CSHL.c ****                         maximum = i;
1519:Generated_Source\PSoC4/CapSense_CSD_CSHL.c ****                         temp = startOfSlider[i];
1520:Generated_Source\PSoC4/CapSense_CSD_CSHL.c ****                     }
1521:Generated_Source\PSoC4/CapSense_CSD_CSHL.c ****                 }
ARM GAS  C:\Users\SHOZO\AppData\Local\Temp\ccGGKGa0.s 			page 64


1522:Generated_Source\PSoC4/CapSense_CSD_CSHL.c ****             }
1523:Generated_Source\PSoC4/CapSense_CSD_CSHL.c ****         #endif /* (CapSense_CSD_IS_DIPLEX_SLIDER) */
1524:Generated_Source\PSoC4/CapSense_CSD_CSHL.c ****         return (maximum);
1525:Generated_Source\PSoC4/CapSense_CSD_CSHL.c ****     }
1526:Generated_Source\PSoC4/CapSense_CSD_CSHL.c **** 
1527:Generated_Source\PSoC4/CapSense_CSD_CSHL.c **** 
1528:Generated_Source\PSoC4/CapSense_CSD_CSHL.c ****     /*******************************************************************************
1529:Generated_Source\PSoC4/CapSense_CSD_CSHL.c ****     * Function Name: CapSense_CSD_CalcCentroid
1530:Generated_Source\PSoC4/CapSense_CSD_CSHL.c ****     ********************************************************************************
1531:Generated_Source\PSoC4/CapSense_CSD_CSHL.c ****     *
1532:Generated_Source\PSoC4/CapSense_CSD_CSHL.c ****     * Summary:
1533:Generated_Source\PSoC4/CapSense_CSD_CSHL.c ****     *  Returns a position value calculated according to the index of the maximum element and API
1534:Generated_Source\PSoC4/CapSense_CSD_CSHL.c ****     *  resolution.
1535:Generated_Source\PSoC4/CapSense_CSD_CSHL.c ****     *
1536:Generated_Source\PSoC4/CapSense_CSD_CSHL.c ****     * Parameters:
1537:Generated_Source\PSoC4/CapSense_CSD_CSHL.c ****     *  type:  widget type.
1538:Generated_Source\PSoC4/CapSense_CSD_CSHL.c ****     *  diplex:  pointer to diplex table.
1539:Generated_Source\PSoC4/CapSense_CSD_CSHL.c ****     *  maximum:  Index of maximum element within centroid.
1540:Generated_Source\PSoC4/CapSense_CSD_CSHL.c ****     *  offset:   Start index of centroid in CapSense_CSD_sensorSignal[] array.
1541:Generated_Source\PSoC4/CapSense_CSD_CSHL.c ****     *  count:    Number of elements within centroid.
1542:Generated_Source\PSoC4/CapSense_CSD_CSHL.c ****     *  resolution:  multiplicator calculated according to centroid type and
1543:Generated_Source\PSoC4/CapSense_CSD_CSHL.c ****     *  API resolution.
1544:Generated_Source\PSoC4/CapSense_CSD_CSHL.c ****     *  noiseThreshold:  Noise threshold.
1545:Generated_Source\PSoC4/CapSense_CSD_CSHL.c ****     *
1546:Generated_Source\PSoC4/CapSense_CSD_CSHL.c ****     * Return:
1547:Generated_Source\PSoC4/CapSense_CSD_CSHL.c ****     *  Returns a position value of the slider.
1548:Generated_Source\PSoC4/CapSense_CSD_CSHL.c ****     *
1549:Generated_Source\PSoC4/CapSense_CSD_CSHL.c ****     * Side Effects:
1550:Generated_Source\PSoC4/CapSense_CSD_CSHL.c ****     *  None
1551:Generated_Source\PSoC4/CapSense_CSD_CSHL.c ****     *
1552:Generated_Source\PSoC4/CapSense_CSD_CSHL.c ****     *******************************************************************************/
1553:Generated_Source\PSoC4/CapSense_CSD_CSHL.c **** #if (CapSense_CSD_TOTAL_TRACKPAD_GESTURES_COUNT > 0u)
1554:Generated_Source\PSoC4/CapSense_CSD_CSHL.c ****     uint8 CapSense_CSD_CalcCentroid(uint8 maximum, uint8 offset,
1555:Generated_Source\PSoC4/CapSense_CSD_CSHL.c ****                                         uint8 count, uint32 resolution, uint16 noiseThreshold)
1556:Generated_Source\PSoC4/CapSense_CSD_CSHL.c **** #else
1557:Generated_Source\PSoC4/CapSense_CSD_CSHL.c ****     uint8 CapSense_CSD_CalcCentroid(uint8 maximum, uint8 offset,
1558:Generated_Source\PSoC4/CapSense_CSD_CSHL.c ****                                         uint8 count, uint16 resolution, uint16 noiseThreshold)
1559:Generated_Source\PSoC4/CapSense_CSD_CSHL.c **** #endif /* (CapSense_CSD_TOTAL_TRACKPAD_GESTURES_COUNT > 0u) */
1560:Generated_Source\PSoC4/CapSense_CSD_CSHL.c ****     {
1561:Generated_Source\PSoC4/CapSense_CSD_CSHL.c ****         #if ((CapSense_CSD_TOTAL_LINEAR_SLIDERS_COUNT > 0u) || (CapSense_CSD_TOTAL_TOUCH_PADS_BASIC
1562:Generated_Source\PSoC4/CapSense_CSD_CSHL.c ****             uint8 posPrev;
1563:Generated_Source\PSoC4/CapSense_CSD_CSHL.c ****             uint8 posNext;
1564:Generated_Source\PSoC4/CapSense_CSD_CSHL.c ****         #endif /* ((CapSense_CSD_TOTAL_LINEAR_SLIDERS_COUNT>0u) || (CapSense_CSD_TOTAL_TOUCH_PADS_B
1565:Generated_Source\PSoC4/CapSense_CSD_CSHL.c **** 
1566:Generated_Source\PSoC4/CapSense_CSD_CSHL.c ****         /* Helps during centroid calculation */
1567:Generated_Source\PSoC4/CapSense_CSD_CSHL.c ****         #if (CapSense_CSD_TOTAL_CENTROIDS_BASIC_COUNT)
1568:Generated_Source\PSoC4/CapSense_CSD_CSHL.c ****             static uint16 CapSense_CSD_centroid[3u];
1569:Generated_Source\PSoC4/CapSense_CSD_CSHL.c ****         #endif  /* (CapSense_CSD_TOTAL_CENTROIDS_BASIC_COUNT) */
1570:Generated_Source\PSoC4/CapSense_CSD_CSHL.c **** 
1571:Generated_Source\PSoC4/CapSense_CSD_CSHL.c ****         #if (CapSense_CSD_IS_DIPLEX_SLIDER)
1572:Generated_Source\PSoC4/CapSense_CSD_CSHL.c ****             uint8 pos;
1573:Generated_Source\PSoC4/CapSense_CSD_CSHL.c ****         #endif /* (CapSense_CSD_IS_DIPLEX_SLIDER) */
1574:Generated_Source\PSoC4/CapSense_CSD_CSHL.c **** 
1575:Generated_Source\PSoC4/CapSense_CSD_CSHL.c ****         uint8 position;
1576:Generated_Source\PSoC4/CapSense_CSD_CSHL.c ****         uint32 numerator;
1577:Generated_Source\PSoC4/CapSense_CSD_CSHL.c ****         int32 denominator;
1578:Generated_Source\PSoC4/CapSense_CSD_CSHL.c **** 
ARM GAS  C:\Users\SHOZO\AppData\Local\Temp\ccGGKGa0.s 			page 65


1579:Generated_Source\PSoC4/CapSense_CSD_CSHL.c ****         uint16  *startOfSlider = &CapSense_CSD_sensorSignal[offset];
1580:Generated_Source\PSoC4/CapSense_CSD_CSHL.c **** 
1581:Generated_Source\PSoC4/CapSense_CSD_CSHL.c ****         #if ((CapSense_CSD_TOTAL_LINEAR_SLIDERS_COUNT > 0u) || (CapSense_CSD_TOTAL_TOUCH_PADS_BASIC
1582:Generated_Source\PSoC4/CapSense_CSD_CSHL.c ****             posPrev = 0u;
1583:Generated_Source\PSoC4/CapSense_CSD_CSHL.c ****         #endif /* ((CapSense_CSD_TOTAL_LINEAR_SLIDERS_COUNT>0u) || (CapSense_CSD_TOTAL_TOUCH_PADS_B
1584:Generated_Source\PSoC4/CapSense_CSD_CSHL.c **** 
1585:Generated_Source\PSoC4/CapSense_CSD_CSHL.c ****         #if (CapSense_CSD_ADD_SLIDER_TYPE)
1586:Generated_Source\PSoC4/CapSense_CSD_CSHL.c ****             if(type == CapSense_CSD_TYPE_RADIAL_SLIDER)
1587:Generated_Source\PSoC4/CapSense_CSD_CSHL.c ****             {
1588:Generated_Source\PSoC4/CapSense_CSD_CSHL.c ****         #endif /* (CapSense_CSD_ADD_SLIDER_TYPE) */
1589:Generated_Source\PSoC4/CapSense_CSD_CSHL.c **** 
1590:Generated_Source\PSoC4/CapSense_CSD_CSHL.c ****             #if (CapSense_CSD_TOTAL_RADIAL_SLIDERS_COUNT > 0u)
1591:Generated_Source\PSoC4/CapSense_CSD_CSHL.c ****                 /* Copy Signal to the centroid array */
1592:Generated_Source\PSoC4/CapSense_CSD_CSHL.c ****                 CapSense_CSD_centroid[CapSense_CSD_POS] = startOfSlider[maximum];
1593:Generated_Source\PSoC4/CapSense_CSD_CSHL.c **** 
1594:Generated_Source\PSoC4/CapSense_CSD_CSHL.c ****                 /* Check borders for ROTARY Slider */
1595:Generated_Source\PSoC4/CapSense_CSD_CSHL.c ****                 if (maximum == 0u)                   /* Start of centroid */
1596:Generated_Source\PSoC4/CapSense_CSD_CSHL.c ****                 {
1597:Generated_Source\PSoC4/CapSense_CSD_CSHL.c ****                     CapSense_CSD_centroid[CapSense_CSD_POS_PREV] = startOfSlider[count - 1u];
1598:Generated_Source\PSoC4/CapSense_CSD_CSHL.c ****                     CapSense_CSD_centroid[CapSense_CSD_POS_NEXT] = startOfSlider[1u];
1599:Generated_Source\PSoC4/CapSense_CSD_CSHL.c ****                 }
1600:Generated_Source\PSoC4/CapSense_CSD_CSHL.c ****                 else if (maximum == (count - 1u))    /* End of centroid */
1601:Generated_Source\PSoC4/CapSense_CSD_CSHL.c ****                 {
1602:Generated_Source\PSoC4/CapSense_CSD_CSHL.c ****                     CapSense_CSD_centroid[CapSense_CSD_POS_PREV] = startOfSlider[maximum - 1u];
1603:Generated_Source\PSoC4/CapSense_CSD_CSHL.c ****                     CapSense_CSD_centroid[CapSense_CSD_POS_NEXT] = startOfSlider[0u];
1604:Generated_Source\PSoC4/CapSense_CSD_CSHL.c ****                 }
1605:Generated_Source\PSoC4/CapSense_CSD_CSHL.c ****                 else                                /* Not first Not last */
1606:Generated_Source\PSoC4/CapSense_CSD_CSHL.c ****                 {
1607:Generated_Source\PSoC4/CapSense_CSD_CSHL.c ****                     CapSense_CSD_centroid[CapSense_CSD_POS_PREV] = startOfSlider[maximum - 1u];
1608:Generated_Source\PSoC4/CapSense_CSD_CSHL.c ****                     CapSense_CSD_centroid[CapSense_CSD_POS_NEXT] = startOfSlider[maximum + 1u];
1609:Generated_Source\PSoC4/CapSense_CSD_CSHL.c ****                 }
1610:Generated_Source\PSoC4/CapSense_CSD_CSHL.c ****             #endif /* (CapSense_CSD_TOTAL_RADIAL_SLIDERS_COUNT > 0u) */
1611:Generated_Source\PSoC4/CapSense_CSD_CSHL.c **** 
1612:Generated_Source\PSoC4/CapSense_CSD_CSHL.c ****         #if (CapSense_CSD_ADD_SLIDER_TYPE)
1613:Generated_Source\PSoC4/CapSense_CSD_CSHL.c ****             }
1614:Generated_Source\PSoC4/CapSense_CSD_CSHL.c ****             else
1615:Generated_Source\PSoC4/CapSense_CSD_CSHL.c ****             {
1616:Generated_Source\PSoC4/CapSense_CSD_CSHL.c ****         #endif /* (CapSense_CSD_ADD_SLIDER_TYPE) */
1617:Generated_Source\PSoC4/CapSense_CSD_CSHL.c **** 
1618:Generated_Source\PSoC4/CapSense_CSD_CSHL.c ****             #if ((CapSense_CSD_TOTAL_LINEAR_SLIDERS_COUNT > 0u) || (CapSense_CSD_TOTAL_TOUCH_PADS_B
1619:Generated_Source\PSoC4/CapSense_CSD_CSHL.c ****                 #if (CapSense_CSD_IS_DIPLEX_SLIDER && CapSense_CSD_IS_NON_DIPLEX_SLIDER)
1620:Generated_Source\PSoC4/CapSense_CSD_CSHL.c ****                     /* Calculate next and previous near to maximum */
1621:Generated_Source\PSoC4/CapSense_CSD_CSHL.c ****                     if(diplex == 0u)
1622:Generated_Source\PSoC4/CapSense_CSD_CSHL.c ****                     {
1623:Generated_Source\PSoC4/CapSense_CSD_CSHL.c ****                         pos     = maximum;
1624:Generated_Source\PSoC4/CapSense_CSD_CSHL.c ****                         posPrev = maximum - 1u;
1625:Generated_Source\PSoC4/CapSense_CSD_CSHL.c ****                         posNext = maximum + 1u;
1626:Generated_Source\PSoC4/CapSense_CSD_CSHL.c ****                     }
1627:Generated_Source\PSoC4/CapSense_CSD_CSHL.c ****                     else
1628:Generated_Source\PSoC4/CapSense_CSD_CSHL.c ****                     {
1629:Generated_Source\PSoC4/CapSense_CSD_CSHL.c ****                         pos     = diplex[maximum];
1630:Generated_Source\PSoC4/CapSense_CSD_CSHL.c ****                         posPrev = diplex[maximum - 1u];
1631:Generated_Source\PSoC4/CapSense_CSD_CSHL.c ****                         posNext = diplex[maximum + 1u];
1632:Generated_Source\PSoC4/CapSense_CSD_CSHL.c ****                         count <<= 1u;
1633:Generated_Source\PSoC4/CapSense_CSD_CSHL.c ****                     }
1634:Generated_Source\PSoC4/CapSense_CSD_CSHL.c ****                 #elif (CapSense_CSD_IS_DIPLEX_SLIDER)
1635:Generated_Source\PSoC4/CapSense_CSD_CSHL.c ****                     /* Calculate next and previous near to maximum */
ARM GAS  C:\Users\SHOZO\AppData\Local\Temp\ccGGKGa0.s 			page 66


1636:Generated_Source\PSoC4/CapSense_CSD_CSHL.c ****                     pos     = diplex[maximum];
1637:Generated_Source\PSoC4/CapSense_CSD_CSHL.c ****                     posPrev = diplex[maximum - 1u];
1638:Generated_Source\PSoC4/CapSense_CSD_CSHL.c ****                     posNext = diplex[maximum + 1u];
1639:Generated_Source\PSoC4/CapSense_CSD_CSHL.c ****                     count <<= 1u;
1640:Generated_Source\PSoC4/CapSense_CSD_CSHL.c ****                 #else
1641:Generated_Source\PSoC4/CapSense_CSD_CSHL.c ****                     /* Calculate next and previous near to maximum */
1642:Generated_Source\PSoC4/CapSense_CSD_CSHL.c ****                     if (maximum >= 1u)
1643:Generated_Source\PSoC4/CapSense_CSD_CSHL.c ****                     {
1644:Generated_Source\PSoC4/CapSense_CSD_CSHL.c ****                         posPrev = maximum - 1u;
1645:Generated_Source\PSoC4/CapSense_CSD_CSHL.c ****                     }
1646:Generated_Source\PSoC4/CapSense_CSD_CSHL.c ****                     posNext = maximum + 1u;
1647:Generated_Source\PSoC4/CapSense_CSD_CSHL.c ****                 #endif /* (CapSense_CSD_IS_DIPLEX_SLIDER && CapSense_CSD_IS_NON_DIPLEX_SLIDER) */
1648:Generated_Source\PSoC4/CapSense_CSD_CSHL.c **** 
1649:Generated_Source\PSoC4/CapSense_CSD_CSHL.c ****                 /* Copy Signal to the centroid array */
1650:Generated_Source\PSoC4/CapSense_CSD_CSHL.c ****                 #if (CapSense_CSD_IS_DIPLEX_SLIDER)
1651:Generated_Source\PSoC4/CapSense_CSD_CSHL.c ****                     CapSense_CSD_centroid[CapSense_CSD_POS] = startOfSlider[pos];
1652:Generated_Source\PSoC4/CapSense_CSD_CSHL.c ****                 #else
1653:Generated_Source\PSoC4/CapSense_CSD_CSHL.c ****                     CapSense_CSD_centroid[CapSense_CSD_POS] = startOfSlider[maximum];
1654:Generated_Source\PSoC4/CapSense_CSD_CSHL.c ****                 #endif /* (CapSense_CSD_IS_DIPLEX_SLIDER) */
1655:Generated_Source\PSoC4/CapSense_CSD_CSHL.c **** 
1656:Generated_Source\PSoC4/CapSense_CSD_CSHL.c ****                 /* Check borders for LINEAR Slider */
1657:Generated_Source\PSoC4/CapSense_CSD_CSHL.c ****                 if (maximum == 0u)                   /* Start of centroid */
1658:Generated_Source\PSoC4/CapSense_CSD_CSHL.c ****                 {
1659:Generated_Source\PSoC4/CapSense_CSD_CSHL.c ****                     CapSense_CSD_centroid[CapSense_CSD_POS_PREV] = 0u;
1660:Generated_Source\PSoC4/CapSense_CSD_CSHL.c ****                     CapSense_CSD_centroid[CapSense_CSD_POS_NEXT] = startOfSlider[posNext];
1661:Generated_Source\PSoC4/CapSense_CSD_CSHL.c ****                 }
1662:Generated_Source\PSoC4/CapSense_CSD_CSHL.c ****                 else if (maximum == ((count) - 1u)) /* End of centroid */
1663:Generated_Source\PSoC4/CapSense_CSD_CSHL.c ****                 {
1664:Generated_Source\PSoC4/CapSense_CSD_CSHL.c ****                     CapSense_CSD_centroid[CapSense_CSD_POS_PREV] = startOfSlider[posPrev];
1665:Generated_Source\PSoC4/CapSense_CSD_CSHL.c ****                     CapSense_CSD_centroid[CapSense_CSD_POS_NEXT] = 0u;
1666:Generated_Source\PSoC4/CapSense_CSD_CSHL.c ****                 }
1667:Generated_Source\PSoC4/CapSense_CSD_CSHL.c ****                 else                                /* Not first Not last */
1668:Generated_Source\PSoC4/CapSense_CSD_CSHL.c ****                 {
1669:Generated_Source\PSoC4/CapSense_CSD_CSHL.c ****                     CapSense_CSD_centroid[CapSense_CSD_POS_PREV] = startOfSlider[posPrev];
1670:Generated_Source\PSoC4/CapSense_CSD_CSHL.c ****                     CapSense_CSD_centroid[CapSense_CSD_POS_NEXT] = startOfSlider[posNext];
1671:Generated_Source\PSoC4/CapSense_CSD_CSHL.c ****                 }
1672:Generated_Source\PSoC4/CapSense_CSD_CSHL.c ****             #endif /* ((CapSense_CSD_TOTAL_LINEAR_SLIDERS_COUNT>0u)||(CapSense_CSD_TOTAL_TOUCH_PADS
1673:Generated_Source\PSoC4/CapSense_CSD_CSHL.c **** 
1674:Generated_Source\PSoC4/CapSense_CSD_CSHL.c ****         #if (CapSense_CSD_ADD_SLIDER_TYPE)
1675:Generated_Source\PSoC4/CapSense_CSD_CSHL.c ****             }
1676:Generated_Source\PSoC4/CapSense_CSD_CSHL.c ****         #endif /* (CapSense_CSD_ADD_SLIDER_TYPE) */
1677:Generated_Source\PSoC4/CapSense_CSD_CSHL.c **** 
1678:Generated_Source\PSoC4/CapSense_CSD_CSHL.c ****         /* Subtract noiseThreshold */
1679:Generated_Source\PSoC4/CapSense_CSD_CSHL.c ****         if(CapSense_CSD_centroid[CapSense_CSD_POS_PREV] > noiseThreshold)
1680:Generated_Source\PSoC4/CapSense_CSD_CSHL.c ****         {
1681:Generated_Source\PSoC4/CapSense_CSD_CSHL.c ****             CapSense_CSD_centroid[CapSense_CSD_POS_PREV] -= noiseThreshold;
1682:Generated_Source\PSoC4/CapSense_CSD_CSHL.c ****         }
1683:Generated_Source\PSoC4/CapSense_CSD_CSHL.c ****         else
1684:Generated_Source\PSoC4/CapSense_CSD_CSHL.c ****         {
1685:Generated_Source\PSoC4/CapSense_CSD_CSHL.c ****             CapSense_CSD_centroid[CapSense_CSD_POS_PREV] = 0u;
1686:Generated_Source\PSoC4/CapSense_CSD_CSHL.c ****         }
1687:Generated_Source\PSoC4/CapSense_CSD_CSHL.c **** 
1688:Generated_Source\PSoC4/CapSense_CSD_CSHL.c ****         /* Maximum always greater than fingerThreshold, so greater than noiseThreshold */
1689:Generated_Source\PSoC4/CapSense_CSD_CSHL.c ****         CapSense_CSD_centroid[CapSense_CSD_POS] -= noiseThreshold;
1690:Generated_Source\PSoC4/CapSense_CSD_CSHL.c **** 
1691:Generated_Source\PSoC4/CapSense_CSD_CSHL.c ****         /* Subtract noiseThreshold */
1692:Generated_Source\PSoC4/CapSense_CSD_CSHL.c ****         if(CapSense_CSD_centroid[CapSense_CSD_POS_NEXT] > noiseThreshold)
ARM GAS  C:\Users\SHOZO\AppData\Local\Temp\ccGGKGa0.s 			page 67


1693:Generated_Source\PSoC4/CapSense_CSD_CSHL.c ****         {
1694:Generated_Source\PSoC4/CapSense_CSD_CSHL.c ****             CapSense_CSD_centroid[CapSense_CSD_POS_NEXT] -= noiseThreshold;
1695:Generated_Source\PSoC4/CapSense_CSD_CSHL.c ****         }
1696:Generated_Source\PSoC4/CapSense_CSD_CSHL.c ****         else
1697:Generated_Source\PSoC4/CapSense_CSD_CSHL.c ****         {
1698:Generated_Source\PSoC4/CapSense_CSD_CSHL.c ****             CapSense_CSD_centroid[CapSense_CSD_POS_NEXT] = 0u;
1699:Generated_Source\PSoC4/CapSense_CSD_CSHL.c ****         }
1700:Generated_Source\PSoC4/CapSense_CSD_CSHL.c **** 
1701:Generated_Source\PSoC4/CapSense_CSD_CSHL.c **** 
1702:Generated_Source\PSoC4/CapSense_CSD_CSHL.c ****         /* Si+1 - Si-1 */
1703:Generated_Source\PSoC4/CapSense_CSD_CSHL.c ****         numerator = (uint32) CapSense_CSD_centroid[CapSense_CSD_POS_NEXT] -
1704:Generated_Source\PSoC4/CapSense_CSD_CSHL.c ****                     (uint32) CapSense_CSD_centroid[CapSense_CSD_POS_PREV];
1705:Generated_Source\PSoC4/CapSense_CSD_CSHL.c **** 
1706:Generated_Source\PSoC4/CapSense_CSD_CSHL.c ****         /* Si+1 + Si + Si-1 */
1707:Generated_Source\PSoC4/CapSense_CSD_CSHL.c ****         denominator = (int32) CapSense_CSD_centroid[CapSense_CSD_POS_PREV] +
1708:Generated_Source\PSoC4/CapSense_CSD_CSHL.c ****                       (int32) CapSense_CSD_centroid[CapSense_CSD_POS] +
1709:Generated_Source\PSoC4/CapSense_CSD_CSHL.c ****                       (int32) CapSense_CSD_centroid[CapSense_CSD_POS_NEXT];
1710:Generated_Source\PSoC4/CapSense_CSD_CSHL.c **** 
1711:Generated_Source\PSoC4/CapSense_CSD_CSHL.c ****         /* (numerator/denominator) + maximum */
1712:Generated_Source\PSoC4/CapSense_CSD_CSHL.c ****         denominator = (((int32)(uint32)((uint32)numerator << 8u)/denominator) + (int32)(uint32)((ui
1713:Generated_Source\PSoC4/CapSense_CSD_CSHL.c **** 
1714:Generated_Source\PSoC4/CapSense_CSD_CSHL.c ****         #if(CapSense_CSD_TOTAL_RADIAL_SLIDERS_COUNT > 0u)
1715:Generated_Source\PSoC4/CapSense_CSD_CSHL.c ****             /* Only required for RADIAL Slider */
1716:Generated_Source\PSoC4/CapSense_CSD_CSHL.c ****             if(denominator < 0)
1717:Generated_Source\PSoC4/CapSense_CSD_CSHL.c ****             {
1718:Generated_Source\PSoC4/CapSense_CSD_CSHL.c ****                 denominator += (int32)((uint16)((uint16) count << 8u));
1719:Generated_Source\PSoC4/CapSense_CSD_CSHL.c ****             }
1720:Generated_Source\PSoC4/CapSense_CSD_CSHL.c ****         #endif /* (CapSense_CSD_TOTAL_RADIAL_SLIDERS_COUNT > 0u) */
1721:Generated_Source\PSoC4/CapSense_CSD_CSHL.c **** 
1722:Generated_Source\PSoC4/CapSense_CSD_CSHL.c ****         denominator *= (int16)resolution;
1723:Generated_Source\PSoC4/CapSense_CSD_CSHL.c **** 
1724:Generated_Source\PSoC4/CapSense_CSD_CSHL.c ****         /* Round result and put it to uint8 */
1725:Generated_Source\PSoC4/CapSense_CSD_CSHL.c ****         position = ((uint8) HI16((uint32)denominator + CapSense_CSD_CENTROID_ROUND_VALUE));
1726:Generated_Source\PSoC4/CapSense_CSD_CSHL.c **** 
1727:Generated_Source\PSoC4/CapSense_CSD_CSHL.c ****         return (position);
1728:Generated_Source\PSoC4/CapSense_CSD_CSHL.c ****     }
1729:Generated_Source\PSoC4/CapSense_CSD_CSHL.c **** #endif /* (CapSense_CSD_TOTAL_CENTROIDS_BASIC_COUNT) */
1730:Generated_Source\PSoC4/CapSense_CSD_CSHL.c **** 
1731:Generated_Source\PSoC4/CapSense_CSD_CSHL.c **** 
1732:Generated_Source\PSoC4/CapSense_CSD_CSHL.c **** #if((CapSense_CSD_TOTAL_RADIAL_SLIDERS_COUNT > 0u) || (CapSense_CSD_TOTAL_LINEAR_SLIDERS_COUNT > 0u
1733:Generated_Source\PSoC4/CapSense_CSD_CSHL.c ****     /*******************************************************************************
1734:Generated_Source\PSoC4/CapSense_CSD_CSHL.c ****     * Function Name: CapSense_CSD_GetCentroidPos
1735:Generated_Source\PSoC4/CapSense_CSD_CSHL.c ****     ********************************************************************************
1736:Generated_Source\PSoC4/CapSense_CSD_CSHL.c ****     *
1737:Generated_Source\PSoC4/CapSense_CSD_CSHL.c ****     * Summary:
1738:Generated_Source\PSoC4/CapSense_CSD_CSHL.c ****     *  Checks the CapSense_CSD_Signal[ ] array for a centroid within
1739:Generated_Source\PSoC4/CapSense_CSD_CSHL.c ****     *  a slider specified range. The centroid position is calculated according to the resolution
1740:Generated_Source\PSoC4/CapSense_CSD_CSHL.c ****     *  specified in the CapSense customizer. The position filters are applied to the
1741:Generated_Source\PSoC4/CapSense_CSD_CSHL.c ****     *  result if enabled.
1742:Generated_Source\PSoC4/CapSense_CSD_CSHL.c ****     *
1743:Generated_Source\PSoC4/CapSense_CSD_CSHL.c ****     * Parameters:
1744:Generated_Source\PSoC4/CapSense_CSD_CSHL.c ****     *  widget:  Widget number.
1745:Generated_Source\PSoC4/CapSense_CSD_CSHL.c ****     *  For every linear slider widget there are defines in this format:
1746:Generated_Source\PSoC4/CapSense_CSD_CSHL.c ****     *  #define CapSense_CSD_"widget_name"__LS           5
1747:Generated_Source\PSoC4/CapSense_CSD_CSHL.c ****     *
1748:Generated_Source\PSoC4/CapSense_CSD_CSHL.c ****     * Return:
1749:Generated_Source\PSoC4/CapSense_CSD_CSHL.c ****     *  Returns a position value of the linear slider.
ARM GAS  C:\Users\SHOZO\AppData\Local\Temp\ccGGKGa0.s 			page 68


1750:Generated_Source\PSoC4/CapSense_CSD_CSHL.c ****     *
1751:Generated_Source\PSoC4/CapSense_CSD_CSHL.c ****     * Global Variables:
1752:Generated_Source\PSoC4/CapSense_CSD_CSHL.c ****     *  None
1753:Generated_Source\PSoC4/CapSense_CSD_CSHL.c ****     *
1754:Generated_Source\PSoC4/CapSense_CSD_CSHL.c ****     * Side Effects:
1755:Generated_Source\PSoC4/CapSense_CSD_CSHL.c ****     *  If any sensor within the slider widget is active, the function returns values
1756:Generated_Source\PSoC4/CapSense_CSD_CSHL.c ****     *  from zero to the API resolution value set in the CapSense customizer. If no
1757:Generated_Source\PSoC4/CapSense_CSD_CSHL.c ****     *  sensors are active, the function returns 0xFFFF. If an error occurs during
1758:Generated_Source\PSoC4/CapSense_CSD_CSHL.c ****     *  execution of the centroid/diplexing algorithm, the function returns 0xFFFF.
1759:Generated_Source\PSoC4/CapSense_CSD_CSHL.c ****     *  There are no checks of the widget type argument provided to this function.
1760:Generated_Source\PSoC4/CapSense_CSD_CSHL.c ****     *  The unproper widget type provided will cause unexpected position calculations.
1761:Generated_Source\PSoC4/CapSense_CSD_CSHL.c ****     *
1762:Generated_Source\PSoC4/CapSense_CSD_CSHL.c ****     * Note:
1763:Generated_Source\PSoC4/CapSense_CSD_CSHL.c ****     *  If noise counts on the slider segments are greater than the noise
1764:Generated_Source\PSoC4/CapSense_CSD_CSHL.c ****     *  threshold, this subroutine may generate a false centroid result. The noise
1765:Generated_Source\PSoC4/CapSense_CSD_CSHL.c ****     *  threshold should be set carefully (high enough above the noise level) so
1766:Generated_Source\PSoC4/CapSense_CSD_CSHL.c ****     *  that noise will not generate a false centroid.
1767:Generated_Source\PSoC4/CapSense_CSD_CSHL.c ****     *******************************************************************************/
1768:Generated_Source\PSoC4/CapSense_CSD_CSHL.c ****     uint16 CapSense_CSD_GetCentroidPos(uint32 widget)
1769:Generated_Source\PSoC4/CapSense_CSD_CSHL.c ****     {
1770:Generated_Source\PSoC4/CapSense_CSD_CSHL.c ****         #if (CapSense_CSD_IS_DIPLEX_SLIDER)
1771:Generated_Source\PSoC4/CapSense_CSD_CSHL.c ****             const uint8 *diplex;
1772:Generated_Source\PSoC4/CapSense_CSD_CSHL.c ****         #endif /* (CapSense_CSD_IS_DIPLEX_SLIDER) */
1773:Generated_Source\PSoC4/CapSense_CSD_CSHL.c **** 
1774:Generated_Source\PSoC4/CapSense_CSD_CSHL.c ****         #if (0u != CapSense_CSD_LINEAR_SLIDERS_POS_FILTERS_MASK)
1775:Generated_Source\PSoC4/CapSense_CSD_CSHL.c ****             uint8 posIndex;
1776:Generated_Source\PSoC4/CapSense_CSD_CSHL.c ****             uint8 firstTimeIndex = CapSense_CSD_posFiltersData[widget];
1777:Generated_Source\PSoC4/CapSense_CSD_CSHL.c ****             uint8 posFiltersMask = CapSense_CSD_posFiltersMask[widget];
1778:Generated_Source\PSoC4/CapSense_CSD_CSHL.c ****         #endif /* (0u != CapSense_CSD_LINEAR_SLIDERS_POS_FILTERS_MASK) */
1779:Generated_Source\PSoC4/CapSense_CSD_CSHL.c **** 
1780:Generated_Source\PSoC4/CapSense_CSD_CSHL.c ****         #if ((0u != (CapSense_CSD_MEDIAN_FILTER & CapSense_CSD_LINEAR_SLIDERS_POS_FILTERS_MASK)) ||
1781:Generated_Source\PSoC4/CapSense_CSD_CSHL.c ****              (0u != (CapSense_CSD_AVERAGING_FILTER & CapSense_CSD_LINEAR_SLIDERS_POS_FILTERS_MASK))
1782:Generated_Source\PSoC4/CapSense_CSD_CSHL.c ****             uint8 tempPos;
1783:Generated_Source\PSoC4/CapSense_CSD_CSHL.c ****         #endif /* ((0u != (CapSense_CSD_MEDIAN_FILTER & CapSense_CSD_LINEAR_SLIDERS_POS_FILTERS_MAS
1784:Generated_Source\PSoC4/CapSense_CSD_CSHL.c ****                *   (0u != (CapSense_CSD_AVERAGING_FILTER & CapSense_CSD_LINEAR_SLIDERS_POS_FILTERS_
1785:Generated_Source\PSoC4/CapSense_CSD_CSHL.c ****                */
1786:Generated_Source\PSoC4/CapSense_CSD_CSHL.c **** 
1787:Generated_Source\PSoC4/CapSense_CSD_CSHL.c ****         uint8 maximum;
1788:Generated_Source\PSoC4/CapSense_CSD_CSHL.c ****         uint16 position;
1789:Generated_Source\PSoC4/CapSense_CSD_CSHL.c ****         uint8 offset = CapSense_CSD_rawDataIndex[widget];
1790:Generated_Source\PSoC4/CapSense_CSD_CSHL.c ****         uint8 count = CapSense_CSD_numberOfSensors[widget];
1791:Generated_Source\PSoC4/CapSense_CSD_CSHL.c **** 
1792:Generated_Source\PSoC4/CapSense_CSD_CSHL.c ****         #if (CapSense_CSD_IS_DIPLEX_SLIDER)
