ARM GAS  C:\Users\SHOZO\AppData\Local\Temp\cccvuDhK.s 			page 1


   1              		.syntax unified
   2              		.cpu cortex-m0
   3              		.fpu softvfp
   4              		.eabi_attribute 20, 1
   5              		.eabi_attribute 21, 1
   6              		.eabi_attribute 23, 3
   7              		.eabi_attribute 24, 1
   8              		.eabi_attribute 25, 1
   9              		.eabi_attribute 26, 1
  10              		.eabi_attribute 30, 6
  11              		.eabi_attribute 34, 0
  12              		.eabi_attribute 18, 4
  13              		.thumb
  14              		.syntax unified
  15              		.file	"main.c"
  16              		.text
  17              	.Ltext0:
  18              		.cfi_sections	.debug_frame
  19              		.global	bright
  20              		.bss
  21              		.align	2
  22              		.type	bright, %object
  23              		.size	bright, 4
  24              	bright:
  25 0000 00000000 		.space	4
  26              		.global	Button
  27              		.align	2
  28              		.type	Button, %object
  29              		.size	Button, 26
  30              	Button:
  31 0004 00000000 		.space	26
  31      00000000 
  31      00000000 
  31      00000000 
  31      00000000 
  32              		.global	Status
  33 001e 0000     		.align	2
  34              		.type	Status, %object
  35              		.size	Status, 26
  36              	Status:
  37 0020 00000000 		.space	26
  37      00000000 
  37      00000000 
  37      00000000 
  37      00000000 
  38              		.global	myData
  39 003a 0000     		.align	2
  40              		.type	myData, %object
  41              		.size	myData, 26
  42              	myData:
  43 003c 00000000 		.space	26
  43      00000000 
  43      00000000 
  43      00000000 
  43      00000000 
  44              		.comm	DataStr,78,4
  45              		.global	__aeabi_ui2d
ARM GAS  C:\Users\SHOZO\AppData\Local\Temp\cccvuDhK.s 			page 2


  46              		.global	__aeabi_dmul
  47              		.global	__aeabi_d2uiz
  48              		.section	.text.main,"ax",%progbits
  49              		.align	2
  50              		.global	main
  51              		.code	16
  52              		.thumb_func
  53              		.type	main, %function
  54              	main:
  55              	.LFB33:
  56              		.file 1 "main.c"
   1:main.c        **** /*******************************************************************************
   2:main.c        **** * File Name: main.c
   3:main.c        **** *
   4:main.c        **** * Version: 1.30
   5:main.c        **** *
   6:main.c        **** * Description:
   7:main.c        **** *  The project explains the usage of CapSense CSD component. The 2 buttons and
   8:main.c        **** *  linear sliders are used as sensing elements. LED displays buttons active
   9:main.c        **** *  state and slider position is shown on LCD.
  10:main.c        **** *
  11:main.c        **** ********************************************************************************
  12:main.c        **** * Copyright 2013, Cypress Semiconductor Corporation. All rights reserved.
  13:main.c        **** * This software is owned by Cypress Semiconductor Corporation and is protected
  14:main.c        **** * by and subject to worldwide patent and copyright laws and treaties.
  15:main.c        **** * Therefore, you may use this software only as provided in the license agreement
  16:main.c        **** * accompanying the software package from which you obtained this software.
  17:main.c        **** * CYPRESS AND ITS SUPPLIERS MAKE NO WARRANTY OF ANY KIND, EXPRESS OR IMPLIED,
  18:main.c        **** * WITH REGARD TO THIS SOFTWARE, INCLUDING, BUT NOT LIMITED TO, NONINFRINGEMENT,
  19:main.c        **** * IMPLIED WARRANTIES OF MERCHANTABILITY AND FITNESS FOR A PARTICULAR PURPOSE.
  20:main.c        **** *******************************************************************************/
  21:main.c        **** 
  22:main.c        **** #include "project.h"
  23:main.c        **** #include <stdio.h>
  24:main.c        **** #include <string.h>
  25:main.c        **** #include <stdlib.h>
  26:main.c        **** 
  27:main.c        **** void CapSense_DisplayState(void);
  28:main.c        **** uint32_t bright = 0;
  29:main.c        **** uint16_t Button[13] = {0,0,0,0,0,0,0,0,0,0,0,0,0};
  30:main.c        **** uint16_t Status[13] = {0,0,0,0,0,0,0,0,0,0,0,0,0};
  31:main.c        **** uint16_t myData[13] = {0,0,0,0,0,0,0,0,0,0,0,0,0};
  32:main.c        **** char8 DataStr[13][6];
  33:main.c        **** 
  34:main.c        **** /*******************************************************************************
  35:main.c        **** * Function Name: main
  36:main.c        **** ********************************************************************************
  37:main.c        **** * Summary:
  38:main.c        **** *  Main function performs following functions:
  39:main.c        **** *   1. Enable global interrupts.
  40:main.c        **** *   2. Initialize CapSense CSD and Start the sensor scanning loop.
  41:main.c        **** *   3. Process scanning results and display it on with LEDs.
  42:main.c        **** *
  43:main.c        **** * Parameters:
  44:main.c        **** *  None
  45:main.c        **** *
  46:main.c        **** * Return:
ARM GAS  C:\Users\SHOZO\AppData\Local\Temp\cccvuDhK.s 			page 3


  47:main.c        **** *  None
  48:main.c        **** *
  49:main.c        **** *******************************************************************************/
  50:main.c        **** int main()
  51:main.c        **** {
  57              		.loc 1 51 0
  58              		.cfi_startproc
  59              		@ args = 0, pretend = 0, frame = 8
  60              		@ frame_needed = 1, uses_anonymous_args = 0
  61 0000 90B5     		push	{r4, r7, lr}
  62              		.cfi_def_cfa_offset 12
  63              		.cfi_offset 4, -12
  64              		.cfi_offset 7, -8
  65              		.cfi_offset 14, -4
  66 0002 83B0     		sub	sp, sp, #12
  67              		.cfi_def_cfa_offset 24
  68 0004 00AF     		add	r7, sp, #0
  69              		.cfi_def_cfa_register 7
  52:main.c        ****     /* Enable global interrupts */
  53:main.c        ****     CyGlobalIntEnable;
  70              		.loc 1 53 0
  71              		.syntax divided
  72              	@ 53 "main.c" 1
  73 0006 62B6     		CPSIE   i
  74              	@ 0 "" 2
  54:main.c        **** 
  55:main.c        ****     /* Start PWM and CapSense components */
  56:main.c        ****     LED_CONTROL_Start();
  75              		.loc 1 56 0
  76              		.thumb
  77              		.syntax unified
  78 0008 FFF7FEFF 		bl	LED_CONTROL_Start
  79              	.LBB2:
  57:main.c        ****     
  58:main.c        ****     for(int i=0; i<13; i++){
  80              		.loc 1 58 0
  81 000c 0023     		movs	r3, #0
  82 000e 7B60     		str	r3, [r7, #4]
  83 0010 08E0     		b	.L2
  84              	.L3:
  59:main.c        ****         CapSense_CSD_SetScanResolution(i,CapSense_CSD_RESOLUTION_14_BITS);
  85              		.loc 1 59 0 discriminator 3
  86 0012 7B68     		ldr	r3, [r7, #4]
  87 0014 474A     		ldr	r2, .L11
  88 0016 1100     		movs	r1, r2
  89 0018 1800     		movs	r0, r3
  90 001a FFF7FEFF 		bl	CapSense_CSD_SetScanResolution
  58:main.c        ****         CapSense_CSD_SetScanResolution(i,CapSense_CSD_RESOLUTION_14_BITS);
  91              		.loc 1 58 0 discriminator 3
  92 001e 7B68     		ldr	r3, [r7, #4]
  93 0020 0133     		adds	r3, r3, #1
  94 0022 7B60     		str	r3, [r7, #4]
  95              	.L2:
  58:main.c        ****         CapSense_CSD_SetScanResolution(i,CapSense_CSD_RESOLUTION_14_BITS);
  96              		.loc 1 58 0 is_stmt 0 discriminator 1
  97 0024 7B68     		ldr	r3, [r7, #4]
  98 0026 0C2B     		cmp	r3, #12
ARM GAS  C:\Users\SHOZO\AppData\Local\Temp\cccvuDhK.s 			page 4


  99 0028 F3DD     		ble	.L3
 100              	.LBE2:
  60:main.c        ****     }
  61:main.c        ****     CapSense_CSD_Start();
 101              		.loc 1 61 0 is_stmt 1
 102 002a FFF7FEFF 		bl	CapSense_CSD_Start
  62:main.c        ****     SW_Tx_UART_1_Start();
 103              		.loc 1 62 0
 104 002e FFF7FEFF 		bl	SW_Tx_UART_1_Start
  63:main.c        **** 
  64:main.c        ****     /* Initialize baselines */
  65:main.c        ****     CapSense_CSD_InitializeAllBaselines();
 105              		.loc 1 65 0
 106 0032 FFF7FEFF 		bl	CapSense_CSD_InitializeAllBaselines
 107              	.L10:
  66:main.c        ****     
  67:main.c        ****     
  68:main.c        ****     
  69:main.c        ****     while(1u)
  70:main.c        ****     {
  71:main.c        ****         /* Check whether the scanning of all enabled widgets is completed. */
  72:main.c        ****         if(0u == CapSense_CSD_IsBusy())
 108              		.loc 1 72 0
 109 0036 FFF7FEFF 		bl	CapSense_CSD_IsBusy
 110 003a 031E     		subs	r3, r0, #0
 111 003c 5FD1     		bne	.L4
  73:main.c        ****         {
  74:main.c        ****             /* Update all baselines */
  75:main.c        ****             CapSense_CSD_UpdateEnabledBaselines();
 112              		.loc 1 75 0
 113 003e FFF7FEFF 		bl	CapSense_CSD_UpdateEnabledBaselines
  76:main.c        ****             
  77:main.c        ****        		/* Start scanning all enabled sensors */
  78:main.c        ****         	CapSense_CSD_ScanEnabledWidgets();
 114              		.loc 1 78 0
 115 0042 FFF7FEFF 		bl	CapSense_CSD_ScanEnabledWidgets
 116              	.LBB3:
  79:main.c        **** 
  80:main.c        ****             /* Start scanning all enabled sensors */
  81:main.c        ****             for(int i=0; i<13; i++){
 117              		.loc 1 81 0
 118 0046 0023     		movs	r3, #0
 119 0048 3B60     		str	r3, [r7]
 120 004a 53E0     		b	.L5
 121              	.L9:
  82:main.c        ****                 Button[i] = CapSense_CSD_CheckIsWidgetActive(i);
 122              		.loc 1 82 0
 123 004c 3B68     		ldr	r3, [r7]
 124 004e 1800     		movs	r0, r3
 125 0050 FFF7FEFF 		bl	CapSense_CSD_CheckIsWidgetActive
 126 0054 0300     		movs	r3, r0
 127 0056 99B2     		uxth	r1, r3
 128 0058 374B     		ldr	r3, .L11+4
 129 005a 3A68     		ldr	r2, [r7]
 130 005c 5200     		lsls	r2, r2, #1
 131 005e D152     		strh	r1, [r2, r3]
  83:main.c        ****                 myData[i] = CapSense_CSD_GetDiffCountData(i);
ARM GAS  C:\Users\SHOZO\AppData\Local\Temp\cccvuDhK.s 			page 5


 132              		.loc 1 83 0
 133 0060 3B68     		ldr	r3, [r7]
 134 0062 1800     		movs	r0, r3
 135 0064 FFF7FEFF 		bl	CapSense_CSD_GetDiffCountData
 136 0068 0300     		movs	r3, r0
 137 006a 1900     		movs	r1, r3
 138 006c 334B     		ldr	r3, .L11+8
 139 006e 3A68     		ldr	r2, [r7]
 140 0070 5200     		lsls	r2, r2, #1
 141 0072 D152     		strh	r1, [r2, r3]
  84:main.c        ****                 //myData[i] = Button[i];
  85:main.c        **** 
  86:main.c        ****                 if(Button[i]==1){
 142              		.loc 1 86 0
 143 0074 304B     		ldr	r3, .L11+4
 144 0076 3A68     		ldr	r2, [r7]
 145 0078 5200     		lsls	r2, r2, #1
 146 007a D35A     		ldrh	r3, [r2, r3]
 147 007c 012B     		cmp	r3, #1
 148 007e 0ED1     		bne	.L6
  87:main.c        ****                     bright = 65535;
 149              		.loc 1 87 0
 150 0080 2F4B     		ldr	r3, .L11+12
 151 0082 304A     		ldr	r2, .L11+16
 152 0084 1A60     		str	r2, [r3]
  88:main.c        ****                     if(Status[i]==0){
 153              		.loc 1 88 0
 154 0086 304B     		ldr	r3, .L11+20
 155 0088 3A68     		ldr	r2, [r7]
 156 008a 5200     		lsls	r2, r2, #1
 157 008c D35A     		ldrh	r3, [r2, r3]
 158 008e 002B     		cmp	r3, #0
 159 0090 10D1     		bne	.L8
  89:main.c        ****                         Status[i]=1;
 160              		.loc 1 89 0
 161 0092 2D4B     		ldr	r3, .L11+20
 162 0094 3A68     		ldr	r2, [r7]
 163 0096 5200     		lsls	r2, r2, #1
 164 0098 0121     		movs	r1, #1
 165 009a D152     		strh	r1, [r2, r3]
 166 009c 0AE0     		b	.L8
 167              	.L6:
  90:main.c        ****                         
  91:main.c        ****                     }
  92:main.c        ****                 }else{
  93:main.c        ****                     if(Status[i]==1){
 168              		.loc 1 93 0
 169 009e 2A4B     		ldr	r3, .L11+20
 170 00a0 3A68     		ldr	r2, [r7]
 171 00a2 5200     		lsls	r2, r2, #1
 172 00a4 D35A     		ldrh	r3, [r2, r3]
 173 00a6 012B     		cmp	r3, #1
 174 00a8 04D1     		bne	.L8
  94:main.c        ****                         Status[i]=0;
 175              		.loc 1 94 0
 176 00aa 274B     		ldr	r3, .L11+20
 177 00ac 3A68     		ldr	r2, [r7]
ARM GAS  C:\Users\SHOZO\AppData\Local\Temp\cccvuDhK.s 			page 6


 178 00ae 5200     		lsls	r2, r2, #1
 179 00b0 0021     		movs	r1, #0
 180 00b2 D152     		strh	r1, [r2, r3]
 181              	.L8:
  95:main.c        ****                     }
  96:main.c        ****                 }
  97:main.c        ****                 itoa(myData[i],DataStr[i],10);
 182              		.loc 1 97 0 discriminator 2
 183 00b4 214B     		ldr	r3, .L11+8
 184 00b6 3A68     		ldr	r2, [r7]
 185 00b8 5200     		lsls	r2, r2, #1
 186 00ba D35A     		ldrh	r3, [r2, r3]
 187 00bc 1800     		movs	r0, r3
 188 00be 3A68     		ldr	r2, [r7]
 189 00c0 1300     		movs	r3, r2
 190 00c2 5B00     		lsls	r3, r3, #1
 191 00c4 9B18     		adds	r3, r3, r2
 192 00c6 5B00     		lsls	r3, r3, #1
 193 00c8 204A     		ldr	r2, .L11+24
 194 00ca 9B18     		adds	r3, r3, r2
 195 00cc 0A22     		movs	r2, #10
 196 00ce 1900     		movs	r1, r3
 197 00d0 FFF7FEFF 		bl	itoa
  98:main.c        ****                 SW_Tx_UART_1_PutString(DataStr[i]);
 198              		.loc 1 98 0 discriminator 2
 199 00d4 3A68     		ldr	r2, [r7]
 200 00d6 1300     		movs	r3, r2
 201 00d8 5B00     		lsls	r3, r3, #1
 202 00da 9B18     		adds	r3, r3, r2
 203 00dc 5B00     		lsls	r3, r3, #1
 204 00de 1B4A     		ldr	r2, .L11+24
 205 00e0 9B18     		adds	r3, r3, r2
 206 00e2 1800     		movs	r0, r3
 207 00e4 FFF7FEFF 		bl	SW_Tx_UART_1_PutString
  99:main.c        ****                 SW_Tx_UART_1_PutChar(',');
 208              		.loc 1 99 0 discriminator 2
 209 00e8 2C20     		movs	r0, #44
 210 00ea FFF7FEFF 		bl	SW_Tx_UART_1_PutChar
  81:main.c        ****                 Button[i] = CapSense_CSD_CheckIsWidgetActive(i);
 211              		.loc 1 81 0 discriminator 2
 212 00ee 3B68     		ldr	r3, [r7]
 213 00f0 0133     		adds	r3, r3, #1
 214 00f2 3B60     		str	r3, [r7]
 215              	.L5:
  81:main.c        ****                 Button[i] = CapSense_CSD_CheckIsWidgetActive(i);
 216              		.loc 1 81 0 is_stmt 0 discriminator 1
 217 00f4 3B68     		ldr	r3, [r7]
 218 00f6 0C2B     		cmp	r3, #12
 219 00f8 A8DD     		ble	.L9
 220              	.LBE3:
 100:main.c        ****                 
 101:main.c        ****             }
 102:main.c        ****             SW_Tx_UART_1_PutCRLF();
 221              		.loc 1 102 0 is_stmt 1
 222 00fa FFF7FEFF 		bl	SW_Tx_UART_1_PutCRLF
 223              	.L4:
 103:main.c        ****         }
ARM GAS  C:\Users\SHOZO\AppData\Local\Temp\cccvuDhK.s 			page 7


 104:main.c        **** 
 105:main.c        ****         /* Display CapSense state using LEDs */
 106:main.c        ****         LED_CONTROL_WriteCompare(65535-bright);
 224              		.loc 1 106 0
 225 00fe 104B     		ldr	r3, .L11+12
 226 0100 1B68     		ldr	r3, [r3]
 227 0102 104A     		ldr	r2, .L11+16
 228 0104 D31A     		subs	r3, r2, r3
 229 0106 1800     		movs	r0, r3
 230 0108 FFF7FEFF 		bl	LED_CONTROL_WriteCompare
 107:main.c        ****         bright*=0.9999;
 231              		.loc 1 107 0
 232 010c 0C4B     		ldr	r3, .L11+12
 233 010e 1B68     		ldr	r3, [r3]
 234 0110 1800     		movs	r0, r3
 235 0112 FFF7FEFF 		bl	__aeabi_ui2d
 236 0116 0E4A     		ldr	r2, .L11+28
 237 0118 0E4B     		ldr	r3, .L11+32
 238 011a FFF7FEFF 		bl	__aeabi_dmul
 239 011e 0300     		movs	r3, r0
 240 0120 0C00     		movs	r4, r1
 241 0122 1800     		movs	r0, r3
 242 0124 2100     		movs	r1, r4
 243 0126 FFF7FEFF 		bl	__aeabi_d2uiz
 244 012a 0200     		movs	r2, r0
 245 012c 044B     		ldr	r3, .L11+12
 246 012e 1A60     		str	r2, [r3]
 108:main.c        ****         
 109:main.c        ****     }
 247              		.loc 1 109 0
 248 0130 81E7     		b	.L10
 249              	.L12:
 250 0132 C046     		.align	2
 251              	.L11:
 252 0134 0000FF3F 		.word	1073676288
 253 0138 00000000 		.word	Button
 254 013c 00000000 		.word	myData
 255 0140 00000000 		.word	bright
 256 0144 FFFF0000 		.word	65535
 257 0148 00000000 		.word	Status
 258 014c 00000000 		.word	DataStr
 259 0150 1EA7E848 		.word	1223206686
 260 0154 2EFFEF3F 		.word	1072693038
 261              		.cfi_endproc
 262              	.LFE33:
 263              		.size	main, .-main
 264              		.text
 265              	.Letext0:
 266              		.file 2 "c:\\program files (x86)\\cypress\\psoc creator\\4.3\\psoc creator\\import\\gnu\\arm\\5.4.
 267              		.file 3 "c:\\program files (x86)\\cypress\\psoc creator\\4.3\\psoc creator\\import\\gnu\\arm\\5.4.
 268              		.file 4 "Generated_Source\\PSoC4/cytypes.h"