ARM GAS  C:\Users\SHOZO\AppData\Local\Temp\cccf7VlP.s 			page 1


   1              		.syntax unified
   2              		.cpu cortex-m0
   3              		.fpu softvfp
   4              		.eabi_attribute 20, 1
   5              		.eabi_attribute 21, 1
   6              		.eabi_attribute 23, 3
   7              		.eabi_attribute 24, 1
   8              		.eabi_attribute 25, 1
   9              		.eabi_attribute 26, 1
  10              		.eabi_attribute 30, 6
  11              		.eabi_attribute 34, 0
  12              		.eabi_attribute 18, 4
  13              		.thumb
  14              		.syntax unified
  15              		.file	"SW_Tx_UART_1.c"
  16              		.text
  17              	.Ltext0:
  18              		.cfi_sections	.debug_frame
  19              		.global	SW_Tx_UART_1_pinNumber
  20              		.data
  21              		.align	2
  22              		.type	SW_Tx_UART_1_pinNumber, %object
  23              		.size	SW_Tx_UART_1_pinNumber, 4
  24              	SW_Tx_UART_1_pinNumber:
  25 0000 03000000 		.word	3
  26              		.global	SW_Tx_UART_1_pinPortNumber
  27              		.bss
  28              		.align	2
  29              		.type	SW_Tx_UART_1_pinPortNumber, %object
  30              		.size	SW_Tx_UART_1_pinPortNumber, 4
  31              	SW_Tx_UART_1_pinPortNumber:
  32 0000 00000000 		.space	4
  33              		.global	SW_Tx_UART_1_pinDrAdress
  34              		.data
  35              		.align	2
  36              		.type	SW_Tx_UART_1_pinDrAdress, %object
  37              		.size	SW_Tx_UART_1_pinDrAdress, 4
  38              	SW_Tx_UART_1_pinDrAdress:
  39 0004 00000440 		.word	1074003968
  40              		.section	.text.SW_Tx_UART_1_Start,"ax",%progbits
  41              		.align	2
  42              		.global	SW_Tx_UART_1_Start
  43              		.code	16
  44              		.thumb_func
  45              		.type	SW_Tx_UART_1_Start, %function
  46              	SW_Tx_UART_1_Start:
  47              	.LFB0:
  48              		.file 1 "Generated_Source\\PSoC4\\SW_Tx_UART_1.c"
   1:Generated_Source\PSoC4/SW_Tx_UART_1.c **** /*******************************************************************************
   2:Generated_Source\PSoC4/SW_Tx_UART_1.c **** * File Name: SW_Tx_UART_1.c
   3:Generated_Source\PSoC4/SW_Tx_UART_1.c **** * Version 1.50
   4:Generated_Source\PSoC4/SW_Tx_UART_1.c **** *
   5:Generated_Source\PSoC4/SW_Tx_UART_1.c **** * Description:
   6:Generated_Source\PSoC4/SW_Tx_UART_1.c **** *  This file provides the source code to the API for the Software Transmit UART.
   7:Generated_Source\PSoC4/SW_Tx_UART_1.c **** *
   8:Generated_Source\PSoC4/SW_Tx_UART_1.c **** ********************************************************************************
   9:Generated_Source\PSoC4/SW_Tx_UART_1.c **** * Copyright 2013-2015, Cypress Semiconductor Corporation.  All rights reserved.
ARM GAS  C:\Users\SHOZO\AppData\Local\Temp\cccf7VlP.s 			page 2


  10:Generated_Source\PSoC4/SW_Tx_UART_1.c **** * You may use this file only in accordance with the license, terms, conditions,
  11:Generated_Source\PSoC4/SW_Tx_UART_1.c **** * disclaimers, and limitations in the end user license agreement accompanying
  12:Generated_Source\PSoC4/SW_Tx_UART_1.c **** * the software package with which this file was provided.
  13:Generated_Source\PSoC4/SW_Tx_UART_1.c **** *******************************************************************************/
  14:Generated_Source\PSoC4/SW_Tx_UART_1.c **** 
  15:Generated_Source\PSoC4/SW_Tx_UART_1.c **** #include "SW_Tx_UART_1_PVT.h"
  16:Generated_Source\PSoC4/SW_Tx_UART_1.c **** 
  17:Generated_Source\PSoC4/SW_Tx_UART_1.c **** #if(SW_Tx_UART_1_PIN_STATIC_MODE == 1u)
  18:Generated_Source\PSoC4/SW_Tx_UART_1.c ****     uint32 SW_Tx_UART_1_pinNumber = SW_Tx_UART_1_PIN_NUMBER;
  19:Generated_Source\PSoC4/SW_Tx_UART_1.c ****     uint32 SW_Tx_UART_1_pinPortNumber = SW_Tx_UART_1_PIN_PORT_NUMBER;
  20:Generated_Source\PSoC4/SW_Tx_UART_1.c ****     #if(CY_PSOC3)
  21:Generated_Source\PSoC4/SW_Tx_UART_1.c ****         uint32 pdata SW_Tx_UART_1_pinDrAdress = SW_Tx_UART_1_PIN_DR;
  22:Generated_Source\PSoC4/SW_Tx_UART_1.c ****     #else
  23:Generated_Source\PSoC4/SW_Tx_UART_1.c ****         uint32 SW_Tx_UART_1_pinDrAdress = SW_Tx_UART_1_PIN_DR;
  24:Generated_Source\PSoC4/SW_Tx_UART_1.c ****     #endif /* (CY_PSOC3) */
  25:Generated_Source\PSoC4/SW_Tx_UART_1.c **** #else
  26:Generated_Source\PSoC4/SW_Tx_UART_1.c ****     uint32 SW_Tx_UART_1_pinNumber;
  27:Generated_Source\PSoC4/SW_Tx_UART_1.c ****     uint32 SW_Tx_UART_1_pinPortNumber;
  28:Generated_Source\PSoC4/SW_Tx_UART_1.c ****     #if(CY_PSOC3)
  29:Generated_Source\PSoC4/SW_Tx_UART_1.c ****         uint32 pdata SW_Tx_UART_1_pinDrAdress;
  30:Generated_Source\PSoC4/SW_Tx_UART_1.c ****     #else
  31:Generated_Source\PSoC4/SW_Tx_UART_1.c ****         uint32 SW_Tx_UART_1_pinDrAdress;
  32:Generated_Source\PSoC4/SW_Tx_UART_1.c ****     #endif /* (CY_PSOC3) */
  33:Generated_Source\PSoC4/SW_Tx_UART_1.c **** #endif /* (SW_Tx_UART_1_PIN_STATIC_MODE == 1u) */
  34:Generated_Source\PSoC4/SW_Tx_UART_1.c **** 
  35:Generated_Source\PSoC4/SW_Tx_UART_1.c **** 
  36:Generated_Source\PSoC4/SW_Tx_UART_1.c **** #if(SW_Tx_UART_1_PIN_STATIC_MODE == 1u)
  37:Generated_Source\PSoC4/SW_Tx_UART_1.c ****     /*******************************************************************************
  38:Generated_Source\PSoC4/SW_Tx_UART_1.c ****     * Function Name: SW_Tx_UART_1_Start
  39:Generated_Source\PSoC4/SW_Tx_UART_1.c ****     ********************************************************************************
  40:Generated_Source\PSoC4/SW_Tx_UART_1.c ****     *
  41:Generated_Source\PSoC4/SW_Tx_UART_1.c ****     * Summary:
  42:Generated_Source\PSoC4/SW_Tx_UART_1.c ****     *  Empty function. Included for consistency with other
  43:Generated_Source\PSoC4/SW_Tx_UART_1.c ****     *  components. This API is not available when PinAssignmentMethod
  44:Generated_Source\PSoC4/SW_Tx_UART_1.c ****     *  is set to Dynamic.
  45:Generated_Source\PSoC4/SW_Tx_UART_1.c ****     *
  46:Generated_Source\PSoC4/SW_Tx_UART_1.c ****     * Parameters:
  47:Generated_Source\PSoC4/SW_Tx_UART_1.c ****     *  None
  48:Generated_Source\PSoC4/SW_Tx_UART_1.c ****     *
  49:Generated_Source\PSoC4/SW_Tx_UART_1.c ****     * Return:
  50:Generated_Source\PSoC4/SW_Tx_UART_1.c ****     *  None
  51:Generated_Source\PSoC4/SW_Tx_UART_1.c ****     *
  52:Generated_Source\PSoC4/SW_Tx_UART_1.c ****     *******************************************************************************/
  53:Generated_Source\PSoC4/SW_Tx_UART_1.c ****     void SW_Tx_UART_1_Start(void) 
  54:Generated_Source\PSoC4/SW_Tx_UART_1.c ****     {
  49              		.loc 1 54 0
  50              		.cfi_startproc
  51              		@ args = 0, pretend = 0, frame = 0
  52              		@ frame_needed = 1, uses_anonymous_args = 0
  53 0000 80B5     		push	{r7, lr}
  54              		.cfi_def_cfa_offset 8
  55              		.cfi_offset 7, -8
  56              		.cfi_offset 14, -4
  57 0002 00AF     		add	r7, sp, #0
  58              		.cfi_def_cfa_register 7
  55:Generated_Source\PSoC4/SW_Tx_UART_1.c **** 
  56:Generated_Source\PSoC4/SW_Tx_UART_1.c ****     }
ARM GAS  C:\Users\SHOZO\AppData\Local\Temp\cccf7VlP.s 			page 3


  59              		.loc 1 56 0
  60 0004 C046     		nop
  61 0006 BD46     		mov	sp, r7
  62              		@ sp needed
  63 0008 80BD     		pop	{r7, pc}
  64              		.cfi_endproc
  65              	.LFE0:
  66              		.size	SW_Tx_UART_1_Start, .-SW_Tx_UART_1_Start
  67 000a C046     		.section	.text.SW_Tx_UART_1_Stop,"ax",%progbits
  68              		.align	2
  69              		.global	SW_Tx_UART_1_Stop
  70              		.code	16
  71              		.thumb_func
  72              		.type	SW_Tx_UART_1_Stop, %function
  73              	SW_Tx_UART_1_Stop:
  74              	.LFB1:
  57:Generated_Source\PSoC4/SW_Tx_UART_1.c **** #else
  58:Generated_Source\PSoC4/SW_Tx_UART_1.c ****     /*******************************************************************************
  59:Generated_Source\PSoC4/SW_Tx_UART_1.c ****     * Function Name: SW_Tx_UART_1_StartEx
  60:Generated_Source\PSoC4/SW_Tx_UART_1.c ****     ********************************************************************************
  61:Generated_Source\PSoC4/SW_Tx_UART_1.c ****     *
  62:Generated_Source\PSoC4/SW_Tx_UART_1.c ****     * Summary:
  63:Generated_Source\PSoC4/SW_Tx_UART_1.c ****     *  Configures the SW Tx UART to use the pin specified
  64:Generated_Source\PSoC4/SW_Tx_UART_1.c ****     *  by the parameters. This API is only available when
  65:Generated_Source\PSoC4/SW_Tx_UART_1.c ****     *  PinAssignmentMethod is set to Dynamic.
  66:Generated_Source\PSoC4/SW_Tx_UART_1.c ****     *
  67:Generated_Source\PSoC4/SW_Tx_UART_1.c ****     * Parameters:
  68:Generated_Source\PSoC4/SW_Tx_UART_1.c ****     *  port:  Port number for dynamic pin assignment
  69:Generated_Source\PSoC4/SW_Tx_UART_1.c ****     *  pin:   Pin number for dynamic pin assignment
  70:Generated_Source\PSoC4/SW_Tx_UART_1.c ****     *
  71:Generated_Source\PSoC4/SW_Tx_UART_1.c ****     * Return:
  72:Generated_Source\PSoC4/SW_Tx_UART_1.c ****     *  None
  73:Generated_Source\PSoC4/SW_Tx_UART_1.c ****     *
  74:Generated_Source\PSoC4/SW_Tx_UART_1.c ****     *******************************************************************************/
  75:Generated_Source\PSoC4/SW_Tx_UART_1.c ****     void SW_Tx_UART_1_StartEx(uint8 port, uint8 pin) 
  76:Generated_Source\PSoC4/SW_Tx_UART_1.c ****     {
  77:Generated_Source\PSoC4/SW_Tx_UART_1.c ****         uint32 portConfigAddr;
  78:Generated_Source\PSoC4/SW_Tx_UART_1.c **** 
  79:Generated_Source\PSoC4/SW_Tx_UART_1.c ****         #if (CY_PSOC4)
  80:Generated_Source\PSoC4/SW_Tx_UART_1.c ****             uint32 portDataRegAddr;
  81:Generated_Source\PSoC4/SW_Tx_UART_1.c ****         #endif /* (CY_PSOC4) */
  82:Generated_Source\PSoC4/SW_Tx_UART_1.c **** 
  83:Generated_Source\PSoC4/SW_Tx_UART_1.c ****         if ((pin <= SW_Tx_UART_1_MAX_PIN_NUMBER) && (port <= SW_Tx_UART_1_MAX_PORT_NUMBER))
  84:Generated_Source\PSoC4/SW_Tx_UART_1.c ****         {
  85:Generated_Source\PSoC4/SW_Tx_UART_1.c ****             #if (!CY_PSOC4)
  86:Generated_Source\PSoC4/SW_Tx_UART_1.c ****                 portConfigAddr = SW_Tx_UART_1_PORT_CNF_BASE;
  87:Generated_Source\PSoC4/SW_Tx_UART_1.c ****                 portConfigAddr += ((uint32)port * (SW_Tx_UART_1_MAX_PIN_NUMBER + 1u)) + pin;
  88:Generated_Source\PSoC4/SW_Tx_UART_1.c ****                 CyPins_SetPinDriveMode(portConfigAddr, CY_PINS_DM_STRONG);
  89:Generated_Source\PSoC4/SW_Tx_UART_1.c ****                 CyPins_SetPin(portConfigAddr);
  90:Generated_Source\PSoC4/SW_Tx_UART_1.c ****                 SW_Tx_UART_1_pinDrAdress = portConfigAddr;
  91:Generated_Source\PSoC4/SW_Tx_UART_1.c ****             #else
  92:Generated_Source\PSoC4/SW_Tx_UART_1.c ****                 portConfigAddr = SW_Tx_UART_1_PORT_CNF_BASE + (SW_Tx_UART_1_PORT_CNF_SIZE * port) +
  93:Generated_Source\PSoC4/SW_Tx_UART_1.c ****                                                                                 SW_Tx_UART_1_PORT_C
  94:Generated_Source\PSoC4/SW_Tx_UART_1.c ****                 CY_SYS_PINS_SET_DRIVE_MODE(portConfigAddr, pin, CY_SYS_PINS_DM_STRONG);
  95:Generated_Source\PSoC4/SW_Tx_UART_1.c ****                 portDataRegAddr = SW_Tx_UART_1_PORT_CNF_BASE + (SW_Tx_UART_1_PORT_CNF_SIZE * port) 
  96:Generated_Source\PSoC4/SW_Tx_UART_1.c ****                                                                                 SW_Tx_UART_1_PORT_C
  97:Generated_Source\PSoC4/SW_Tx_UART_1.c ****                 CY_SYS_PINS_SET_PIN(portDataRegAddr, pin);
ARM GAS  C:\Users\SHOZO\AppData\Local\Temp\cccf7VlP.s 			page 4


  98:Generated_Source\PSoC4/SW_Tx_UART_1.c ****                 SW_Tx_UART_1_pinDrAdress = portDataRegAddr;
  99:Generated_Source\PSoC4/SW_Tx_UART_1.c ****             #endif /* (!CY_PSOC4) */
 100:Generated_Source\PSoC4/SW_Tx_UART_1.c ****             SW_Tx_UART_1_pinNumber = pin;
 101:Generated_Source\PSoC4/SW_Tx_UART_1.c ****             SW_Tx_UART_1_pinPortNumber = port;
 102:Generated_Source\PSoC4/SW_Tx_UART_1.c ****         }
 103:Generated_Source\PSoC4/SW_Tx_UART_1.c ****     }
 104:Generated_Source\PSoC4/SW_Tx_UART_1.c **** #endif /* (SW_Tx_UART_1_PIN_STATIC_MODE == 1u) */
 105:Generated_Source\PSoC4/SW_Tx_UART_1.c **** 
 106:Generated_Source\PSoC4/SW_Tx_UART_1.c **** 
 107:Generated_Source\PSoC4/SW_Tx_UART_1.c **** /*******************************************************************************
 108:Generated_Source\PSoC4/SW_Tx_UART_1.c **** * Function Name: SW_Tx_UART_1_Stop
 109:Generated_Source\PSoC4/SW_Tx_UART_1.c **** ********************************************************************************
 110:Generated_Source\PSoC4/SW_Tx_UART_1.c **** *
 111:Generated_Source\PSoC4/SW_Tx_UART_1.c **** * Summary:
 112:Generated_Source\PSoC4/SW_Tx_UART_1.c **** *  Empty function. Included for consistency with other components.
 113:Generated_Source\PSoC4/SW_Tx_UART_1.c **** *
 114:Generated_Source\PSoC4/SW_Tx_UART_1.c **** * Parameters:
 115:Generated_Source\PSoC4/SW_Tx_UART_1.c **** *  None
 116:Generated_Source\PSoC4/SW_Tx_UART_1.c **** *
 117:Generated_Source\PSoC4/SW_Tx_UART_1.c **** * Return:
 118:Generated_Source\PSoC4/SW_Tx_UART_1.c **** *  None
 119:Generated_Source\PSoC4/SW_Tx_UART_1.c **** *
 120:Generated_Source\PSoC4/SW_Tx_UART_1.c **** *******************************************************************************/
 121:Generated_Source\PSoC4/SW_Tx_UART_1.c **** void SW_Tx_UART_1_Stop(void) 
 122:Generated_Source\PSoC4/SW_Tx_UART_1.c **** {
  75              		.loc 1 122 0
  76              		.cfi_startproc
  77              		@ args = 0, pretend = 0, frame = 0
  78              		@ frame_needed = 1, uses_anonymous_args = 0
  79 0000 80B5     		push	{r7, lr}
  80              		.cfi_def_cfa_offset 8
  81              		.cfi_offset 7, -8
  82              		.cfi_offset 14, -4
  83 0002 00AF     		add	r7, sp, #0
  84              		.cfi_def_cfa_register 7
 123:Generated_Source\PSoC4/SW_Tx_UART_1.c **** 
 124:Generated_Source\PSoC4/SW_Tx_UART_1.c **** }
  85              		.loc 1 124 0
  86 0004 C046     		nop
  87 0006 BD46     		mov	sp, r7
  88              		@ sp needed
  89 0008 80BD     		pop	{r7, pc}
  90              		.cfi_endproc
  91              	.LFE1:
  92              		.size	SW_Tx_UART_1_Stop, .-SW_Tx_UART_1_Stop
  93              		.section	.text.SW_Tx_UART_1_PutString,"ax",%progbits
  94              		.align	2
  95              		.global	SW_Tx_UART_1_PutString
  96              		.code	16
  97              		.thumb_func
  98              		.type	SW_Tx_UART_1_PutString, %function
  99              	SW_Tx_UART_1_PutString:
 100              	.LFB2:
 125:Generated_Source\PSoC4/SW_Tx_UART_1.c **** 
 126:Generated_Source\PSoC4/SW_Tx_UART_1.c **** 
 127:Generated_Source\PSoC4/SW_Tx_UART_1.c **** /*******************************************************************************
 128:Generated_Source\PSoC4/SW_Tx_UART_1.c **** * Function Name: SW_Tx_UART_1_PutString
ARM GAS  C:\Users\SHOZO\AppData\Local\Temp\cccf7VlP.s 			page 5


 129:Generated_Source\PSoC4/SW_Tx_UART_1.c **** ********************************************************************************
 130:Generated_Source\PSoC4/SW_Tx_UART_1.c **** *
 131:Generated_Source\PSoC4/SW_Tx_UART_1.c **** * Summary:
 132:Generated_Source\PSoC4/SW_Tx_UART_1.c **** *  Sends a NULL terminated string via the Tx pin.
 133:Generated_Source\PSoC4/SW_Tx_UART_1.c **** *
 134:Generated_Source\PSoC4/SW_Tx_UART_1.c **** * Parameters:
 135:Generated_Source\PSoC4/SW_Tx_UART_1.c **** *  string: Pointer to the null terminated string to send
 136:Generated_Source\PSoC4/SW_Tx_UART_1.c **** *
 137:Generated_Source\PSoC4/SW_Tx_UART_1.c **** * Return:
 138:Generated_Source\PSoC4/SW_Tx_UART_1.c **** *  None
 139:Generated_Source\PSoC4/SW_Tx_UART_1.c **** *
 140:Generated_Source\PSoC4/SW_Tx_UART_1.c **** *******************************************************************************/
 141:Generated_Source\PSoC4/SW_Tx_UART_1.c **** void SW_Tx_UART_1_PutString(const char8 string[]) 
 142:Generated_Source\PSoC4/SW_Tx_UART_1.c **** {
 101              		.loc 1 142 0
 102              		.cfi_startproc
 103              		@ args = 0, pretend = 0, frame = 16
 104              		@ frame_needed = 1, uses_anonymous_args = 0
 105 0000 80B5     		push	{r7, lr}
 106              		.cfi_def_cfa_offset 8
 107              		.cfi_offset 7, -8
 108              		.cfi_offset 14, -4
 109 0002 84B0     		sub	sp, sp, #16
 110              		.cfi_def_cfa_offset 24
 111 0004 00AF     		add	r7, sp, #0
 112              		.cfi_def_cfa_register 7
 113 0006 7860     		str	r0, [r7, #4]
 143:Generated_Source\PSoC4/SW_Tx_UART_1.c ****     uint8 stringIndex = 1u;
 114              		.loc 1 143 0
 115 0008 0F23     		movs	r3, #15
 116 000a FB18     		adds	r3, r7, r3
 117 000c 0122     		movs	r2, #1
 118 000e 1A70     		strb	r2, [r3]
 144:Generated_Source\PSoC4/SW_Tx_UART_1.c ****     char8 current = *string;
 119              		.loc 1 144 0
 120 0010 0E23     		movs	r3, #14
 121 0012 FB18     		adds	r3, r7, r3
 122 0014 7A68     		ldr	r2, [r7, #4]
 123 0016 1278     		ldrb	r2, [r2]
 124 0018 1A70     		strb	r2, [r3]
 145:Generated_Source\PSoC4/SW_Tx_UART_1.c **** 
 146:Generated_Source\PSoC4/SW_Tx_UART_1.c ****     /* Until null is reached, print next character */
 147:Generated_Source\PSoC4/SW_Tx_UART_1.c ****     while((char8) '\0' != current)
 125              		.loc 1 147 0
 126 001a 15E0     		b	.L4
 127              	.L5:
 148:Generated_Source\PSoC4/SW_Tx_UART_1.c ****     {
 149:Generated_Source\PSoC4/SW_Tx_UART_1.c ****         SW_Tx_UART_1_PutChar((uint8)current);
 128              		.loc 1 149 0
 129 001c 0E23     		movs	r3, #14
 130 001e FB18     		adds	r3, r7, r3
 131 0020 1B78     		ldrb	r3, [r3]
 132 0022 1800     		movs	r0, r3
 133 0024 FFF7FEFF 		bl	SW_Tx_UART_1_PutChar
 150:Generated_Source\PSoC4/SW_Tx_UART_1.c ****         current = string[stringIndex];
 134              		.loc 1 150 0
 135 0028 0F23     		movs	r3, #15
ARM GAS  C:\Users\SHOZO\AppData\Local\Temp\cccf7VlP.s 			page 6


 136 002a FB18     		adds	r3, r7, r3
 137 002c 1B78     		ldrb	r3, [r3]
 138 002e 7A68     		ldr	r2, [r7, #4]
 139 0030 D218     		adds	r2, r2, r3
 140 0032 0E23     		movs	r3, #14
 141 0034 FB18     		adds	r3, r7, r3
 142 0036 1278     		ldrb	r2, [r2]
 143 0038 1A70     		strb	r2, [r3]
 151:Generated_Source\PSoC4/SW_Tx_UART_1.c ****         stringIndex++;
 144              		.loc 1 151 0
 145 003a 0F23     		movs	r3, #15
 146 003c FB18     		adds	r3, r7, r3
 147 003e 1A78     		ldrb	r2, [r3]
 148 0040 0F23     		movs	r3, #15
 149 0042 FB18     		adds	r3, r7, r3
 150 0044 0132     		adds	r2, r2, #1
 151 0046 1A70     		strb	r2, [r3]
 152              	.L4:
 147:Generated_Source\PSoC4/SW_Tx_UART_1.c ****     {
 153              		.loc 1 147 0
 154 0048 0E23     		movs	r3, #14
 155 004a FB18     		adds	r3, r7, r3
 156 004c 1B78     		ldrb	r3, [r3]
 157 004e 002B     		cmp	r3, #0
 158 0050 E4D1     		bne	.L5
 152:Generated_Source\PSoC4/SW_Tx_UART_1.c ****     }
 153:Generated_Source\PSoC4/SW_Tx_UART_1.c **** }
 159              		.loc 1 153 0
 160 0052 C046     		nop
 161 0054 BD46     		mov	sp, r7
 162 0056 04B0     		add	sp, sp, #16
 163              		@ sp needed
 164 0058 80BD     		pop	{r7, pc}
 165              		.cfi_endproc
 166              	.LFE2:
 167              		.size	SW_Tx_UART_1_PutString, .-SW_Tx_UART_1_PutString
 168 005a C046     		.section	.text.SW_Tx_UART_1_PutArray,"ax",%progbits
 169              		.align	2
 170              		.global	SW_Tx_UART_1_PutArray
 171              		.code	16
 172              		.thumb_func
 173              		.type	SW_Tx_UART_1_PutArray, %function
 174              	SW_Tx_UART_1_PutArray:
 175              	.LFB3:
 154:Generated_Source\PSoC4/SW_Tx_UART_1.c **** 
 155:Generated_Source\PSoC4/SW_Tx_UART_1.c **** 
 156:Generated_Source\PSoC4/SW_Tx_UART_1.c **** /*******************************************************************************
 157:Generated_Source\PSoC4/SW_Tx_UART_1.c **** * Function Name: SW_Tx_UART_1_PutArray
 158:Generated_Source\PSoC4/SW_Tx_UART_1.c **** ********************************************************************************
 159:Generated_Source\PSoC4/SW_Tx_UART_1.c **** *
 160:Generated_Source\PSoC4/SW_Tx_UART_1.c **** * Summary:
 161:Generated_Source\PSoC4/SW_Tx_UART_1.c **** *  Sends byteCount bytes from a memory array via the Tx pin.
 162:Generated_Source\PSoC4/SW_Tx_UART_1.c **** *
 163:Generated_Source\PSoC4/SW_Tx_UART_1.c **** * Parameters:
 164:Generated_Source\PSoC4/SW_Tx_UART_1.c **** *  data: Pointer to the memory array
 165:Generated_Source\PSoC4/SW_Tx_UART_1.c **** *  byteCount: Number of bytes to be transmitted
 166:Generated_Source\PSoC4/SW_Tx_UART_1.c **** *
ARM GAS  C:\Users\SHOZO\AppData\Local\Temp\cccf7VlP.s 			page 7


 167:Generated_Source\PSoC4/SW_Tx_UART_1.c **** * Return:
 168:Generated_Source\PSoC4/SW_Tx_UART_1.c **** *  None
 169:Generated_Source\PSoC4/SW_Tx_UART_1.c **** *
 170:Generated_Source\PSoC4/SW_Tx_UART_1.c **** *******************************************************************************/
 171:Generated_Source\PSoC4/SW_Tx_UART_1.c **** void SW_Tx_UART_1_PutArray(const uint8 array[], uint32 byteCount) 
 172:Generated_Source\PSoC4/SW_Tx_UART_1.c **** {
 176              		.loc 1 172 0
 177              		.cfi_startproc
 178              		@ args = 0, pretend = 0, frame = 16
 179              		@ frame_needed = 1, uses_anonymous_args = 0
 180 0000 80B5     		push	{r7, lr}
 181              		.cfi_def_cfa_offset 8
 182              		.cfi_offset 7, -8
 183              		.cfi_offset 14, -4
 184 0002 84B0     		sub	sp, sp, #16
 185              		.cfi_def_cfa_offset 24
 186 0004 00AF     		add	r7, sp, #0
 187              		.cfi_def_cfa_register 7
 188 0006 7860     		str	r0, [r7, #4]
 189 0008 3960     		str	r1, [r7]
 173:Generated_Source\PSoC4/SW_Tx_UART_1.c ****     uint32 arrayIndex;
 174:Generated_Source\PSoC4/SW_Tx_UART_1.c **** 
 175:Generated_Source\PSoC4/SW_Tx_UART_1.c ****     for (arrayIndex = 0u; arrayIndex < byteCount; arrayIndex++)
 190              		.loc 1 175 0
 191 000a 0023     		movs	r3, #0
 192 000c FB60     		str	r3, [r7, #12]
 193 000e 09E0     		b	.L7
 194              	.L8:
 176:Generated_Source\PSoC4/SW_Tx_UART_1.c ****     {
 177:Generated_Source\PSoC4/SW_Tx_UART_1.c ****         SW_Tx_UART_1_PutChar(array[arrayIndex]);
 195              		.loc 1 177 0 discriminator 3
 196 0010 7A68     		ldr	r2, [r7, #4]
 197 0012 FB68     		ldr	r3, [r7, #12]
 198 0014 D318     		adds	r3, r2, r3
 199 0016 1B78     		ldrb	r3, [r3]
 200 0018 1800     		movs	r0, r3
 201 001a FFF7FEFF 		bl	SW_Tx_UART_1_PutChar
 175:Generated_Source\PSoC4/SW_Tx_UART_1.c ****     {
 202              		.loc 1 175 0 discriminator 3
 203 001e FB68     		ldr	r3, [r7, #12]
 204 0020 0133     		adds	r3, r3, #1
 205 0022 FB60     		str	r3, [r7, #12]
 206              	.L7:
 175:Generated_Source\PSoC4/SW_Tx_UART_1.c ****     {
 207              		.loc 1 175 0 is_stmt 0 discriminator 1
 208 0024 FA68     		ldr	r2, [r7, #12]
 209 0026 3B68     		ldr	r3, [r7]
 210 0028 9A42     		cmp	r2, r3
 211 002a F1D3     		bcc	.L8
 178:Generated_Source\PSoC4/SW_Tx_UART_1.c ****     }
 179:Generated_Source\PSoC4/SW_Tx_UART_1.c **** }
 212              		.loc 1 179 0 is_stmt 1
 213 002c C046     		nop
 214 002e BD46     		mov	sp, r7
 215 0030 04B0     		add	sp, sp, #16
 216              		@ sp needed
 217 0032 80BD     		pop	{r7, pc}
ARM GAS  C:\Users\SHOZO\AppData\Local\Temp\cccf7VlP.s 			page 8


 218              		.cfi_endproc
 219              	.LFE3:
 220              		.size	SW_Tx_UART_1_PutArray, .-SW_Tx_UART_1_PutArray
 221              		.section	.text.SW_Tx_UART_1_PutHexByte,"ax",%progbits
 222              		.align	2
 223              		.global	SW_Tx_UART_1_PutHexByte
 224              		.code	16
 225              		.thumb_func
 226              		.type	SW_Tx_UART_1_PutHexByte, %function
 227              	SW_Tx_UART_1_PutHexByte:
 228              	.LFB4:
 180:Generated_Source\PSoC4/SW_Tx_UART_1.c **** 
 181:Generated_Source\PSoC4/SW_Tx_UART_1.c **** 
 182:Generated_Source\PSoC4/SW_Tx_UART_1.c **** /*******************************************************************************
 183:Generated_Source\PSoC4/SW_Tx_UART_1.c **** * Function Name: SW_Tx_UART_1_PutHexByte
 184:Generated_Source\PSoC4/SW_Tx_UART_1.c **** ********************************************************************************
 185:Generated_Source\PSoC4/SW_Tx_UART_1.c **** *
 186:Generated_Source\PSoC4/SW_Tx_UART_1.c **** * Summary:
 187:Generated_Source\PSoC4/SW_Tx_UART_1.c **** *  Sends a byte in Hex representation (two characters, uppercase for A-F) via
 188:Generated_Source\PSoC4/SW_Tx_UART_1.c **** *  the Tx pin.
 189:Generated_Source\PSoC4/SW_Tx_UART_1.c **** *
 190:Generated_Source\PSoC4/SW_Tx_UART_1.c **** * Parameters:
 191:Generated_Source\PSoC4/SW_Tx_UART_1.c **** *  TxHexByte: The byte to be converted to ASCII characters and
 192:Generated_Source\PSoC4/SW_Tx_UART_1.c **** *             sent via the Tx pin.
 193:Generated_Source\PSoC4/SW_Tx_UART_1.c **** *
 194:Generated_Source\PSoC4/SW_Tx_UART_1.c **** * Return:
 195:Generated_Source\PSoC4/SW_Tx_UART_1.c **** *  None
 196:Generated_Source\PSoC4/SW_Tx_UART_1.c **** *
 197:Generated_Source\PSoC4/SW_Tx_UART_1.c **** *******************************************************************************/
 198:Generated_Source\PSoC4/SW_Tx_UART_1.c **** void SW_Tx_UART_1_PutHexByte(uint8 txHexByte) 
 199:Generated_Source\PSoC4/SW_Tx_UART_1.c **** {
 229              		.loc 1 199 0
 230              		.cfi_startproc
 231              		@ args = 0, pretend = 0, frame = 8
 232              		@ frame_needed = 1, uses_anonymous_args = 0
 233 0000 80B5     		push	{r7, lr}
 234              		.cfi_def_cfa_offset 8
 235              		.cfi_offset 7, -8
 236              		.cfi_offset 14, -4
 237 0002 82B0     		sub	sp, sp, #8
 238              		.cfi_def_cfa_offset 16
 239 0004 00AF     		add	r7, sp, #0
 240              		.cfi_def_cfa_register 7
 241 0006 0200     		movs	r2, r0
 242 0008 FB1D     		adds	r3, r7, #7
 243 000a 1A70     		strb	r2, [r3]
 200:Generated_Source\PSoC4/SW_Tx_UART_1.c ****     static char8 const CYCODE SW_Tx_UART_1_hex[] = "0123456789ABCDEF";
 201:Generated_Source\PSoC4/SW_Tx_UART_1.c **** 
 202:Generated_Source\PSoC4/SW_Tx_UART_1.c ****     SW_Tx_UART_1_PutChar((uint8) SW_Tx_UART_1_hex[txHexByte >> SW_Tx_UART_1_BYTE_UPPER_NIBBLE_SHIFT
 244              		.loc 1 202 0
 245 000c FB1D     		adds	r3, r7, #7
 246 000e 1B78     		ldrb	r3, [r3]
 247 0010 1B09     		lsrs	r3, r3, #4
 248 0012 DBB2     		uxtb	r3, r3
 249 0014 1A00     		movs	r2, r3
 250 0016 094B     		ldr	r3, .L10
 251 0018 9B5C     		ldrb	r3, [r3, r2]
ARM GAS  C:\Users\SHOZO\AppData\Local\Temp\cccf7VlP.s 			page 9


 252 001a 1800     		movs	r0, r3
 253 001c FFF7FEFF 		bl	SW_Tx_UART_1_PutChar
 203:Generated_Source\PSoC4/SW_Tx_UART_1.c ****     SW_Tx_UART_1_PutChar((uint8) SW_Tx_UART_1_hex[txHexByte & SW_Tx_UART_1_BYTE_LOWER_NIBBLE_MASK])
 254              		.loc 1 203 0
 255 0020 FB1D     		adds	r3, r7, #7
 256 0022 1B78     		ldrb	r3, [r3]
 257 0024 0F22     		movs	r2, #15
 258 0026 1340     		ands	r3, r2
 259 0028 044A     		ldr	r2, .L10
 260 002a D35C     		ldrb	r3, [r2, r3]
 261 002c 1800     		movs	r0, r3
 262 002e FFF7FEFF 		bl	SW_Tx_UART_1_PutChar
 204:Generated_Source\PSoC4/SW_Tx_UART_1.c **** }
 263              		.loc 1 204 0
 264 0032 C046     		nop
 265 0034 BD46     		mov	sp, r7
 266 0036 02B0     		add	sp, sp, #8
 267              		@ sp needed
 268 0038 80BD     		pop	{r7, pc}
 269              	.L11:
 270 003a C046     		.align	2
 271              	.L10:
 272 003c 00000000 		.word	SW_Tx_UART_1_hex.4276
 273              		.cfi_endproc
 274              	.LFE4:
 275              		.size	SW_Tx_UART_1_PutHexByte, .-SW_Tx_UART_1_PutHexByte
 276              		.section	.text.SW_Tx_UART_1_PutHexInt,"ax",%progbits
 277              		.align	2
 278              		.global	SW_Tx_UART_1_PutHexInt
 279              		.code	16
 280              		.thumb_func
 281              		.type	SW_Tx_UART_1_PutHexInt, %function
 282              	SW_Tx_UART_1_PutHexInt:
 283              	.LFB5:
 205:Generated_Source\PSoC4/SW_Tx_UART_1.c **** 
 206:Generated_Source\PSoC4/SW_Tx_UART_1.c **** 
 207:Generated_Source\PSoC4/SW_Tx_UART_1.c **** /*******************************************************************************
 208:Generated_Source\PSoC4/SW_Tx_UART_1.c **** * Function Name: SW_Tx_UART_1_PutHexInt
 209:Generated_Source\PSoC4/SW_Tx_UART_1.c **** ********************************************************************************
 210:Generated_Source\PSoC4/SW_Tx_UART_1.c **** *
 211:Generated_Source\PSoC4/SW_Tx_UART_1.c **** * Summary:
 212:Generated_Source\PSoC4/SW_Tx_UART_1.c **** *  Sends a 16-bit unsigned integer in Hex representation (four characters,
 213:Generated_Source\PSoC4/SW_Tx_UART_1.c **** *  uppercase for A-F) via the Tx pin.
 214:Generated_Source\PSoC4/SW_Tx_UART_1.c **** *
 215:Generated_Source\PSoC4/SW_Tx_UART_1.c **** * Parameters:
 216:Generated_Source\PSoC4/SW_Tx_UART_1.c **** *  TxHexInt: The uint16 to be converted to ASCII characters and sent via
 217:Generated_Source\PSoC4/SW_Tx_UART_1.c **** *            the Tx pin.
 218:Generated_Source\PSoC4/SW_Tx_UART_1.c **** *
 219:Generated_Source\PSoC4/SW_Tx_UART_1.c **** * Return:
 220:Generated_Source\PSoC4/SW_Tx_UART_1.c **** *  None
 221:Generated_Source\PSoC4/SW_Tx_UART_1.c **** *
 222:Generated_Source\PSoC4/SW_Tx_UART_1.c **** *******************************************************************************/
 223:Generated_Source\PSoC4/SW_Tx_UART_1.c **** void SW_Tx_UART_1_PutHexInt(uint16 txHexInt) 
 224:Generated_Source\PSoC4/SW_Tx_UART_1.c **** {
 284              		.loc 1 224 0
 285              		.cfi_startproc
 286              		@ args = 0, pretend = 0, frame = 8
ARM GAS  C:\Users\SHOZO\AppData\Local\Temp\cccf7VlP.s 			page 10


 287              		@ frame_needed = 1, uses_anonymous_args = 0
 288 0000 80B5     		push	{r7, lr}
 289              		.cfi_def_cfa_offset 8
 290              		.cfi_offset 7, -8
 291              		.cfi_offset 14, -4
 292 0002 82B0     		sub	sp, sp, #8
 293              		.cfi_def_cfa_offset 16
 294 0004 00AF     		add	r7, sp, #0
 295              		.cfi_def_cfa_register 7
 296 0006 0200     		movs	r2, r0
 297 0008 BB1D     		adds	r3, r7, #6
 298 000a 1A80     		strh	r2, [r3]
 225:Generated_Source\PSoC4/SW_Tx_UART_1.c ****     SW_Tx_UART_1_PutHexByte((uint8)(txHexInt >> SW_Tx_UART_1_U16_UPPER_BYTE_SHIFT));
 299              		.loc 1 225 0
 300 000c BB1D     		adds	r3, r7, #6
 301 000e 1B88     		ldrh	r3, [r3]
 302 0010 1B0A     		lsrs	r3, r3, #8
 303 0012 9BB2     		uxth	r3, r3
 304 0014 DBB2     		uxtb	r3, r3
 305 0016 1800     		movs	r0, r3
 306 0018 FFF7FEFF 		bl	SW_Tx_UART_1_PutHexByte
 226:Generated_Source\PSoC4/SW_Tx_UART_1.c ****     SW_Tx_UART_1_PutHexByte((uint8)(txHexInt & SW_Tx_UART_1_U16_LOWER_BYTE_MASK));
 307              		.loc 1 226 0
 308 001c BB1D     		adds	r3, r7, #6
 309 001e 1B88     		ldrh	r3, [r3]
 310 0020 DBB2     		uxtb	r3, r3
 311 0022 1800     		movs	r0, r3
 312 0024 FFF7FEFF 		bl	SW_Tx_UART_1_PutHexByte
 227:Generated_Source\PSoC4/SW_Tx_UART_1.c **** }
 313              		.loc 1 227 0
 314 0028 C046     		nop
 315 002a BD46     		mov	sp, r7
 316 002c 02B0     		add	sp, sp, #8
 317              		@ sp needed
 318 002e 80BD     		pop	{r7, pc}
 319              		.cfi_endproc
 320              	.LFE5:
 321              		.size	SW_Tx_UART_1_PutHexInt, .-SW_Tx_UART_1_PutHexInt
 322              		.section	.text.SW_Tx_UART_1_PutCRLF,"ax",%progbits
 323              		.align	2
 324              		.global	SW_Tx_UART_1_PutCRLF
 325              		.code	16
 326              		.thumb_func
 327              		.type	SW_Tx_UART_1_PutCRLF, %function
 328              	SW_Tx_UART_1_PutCRLF:
 329              	.LFB6:
 228:Generated_Source\PSoC4/SW_Tx_UART_1.c **** 
 229:Generated_Source\PSoC4/SW_Tx_UART_1.c **** 
 230:Generated_Source\PSoC4/SW_Tx_UART_1.c **** /*******************************************************************************
 231:Generated_Source\PSoC4/SW_Tx_UART_1.c **** * Function Name: SW_Tx_UART_1_PutCRLF
 232:Generated_Source\PSoC4/SW_Tx_UART_1.c **** ********************************************************************************
 233:Generated_Source\PSoC4/SW_Tx_UART_1.c **** *
 234:Generated_Source\PSoC4/SW_Tx_UART_1.c **** * Summary:
 235:Generated_Source\PSoC4/SW_Tx_UART_1.c **** *  Sends a carriage return (0x0D) and a line feed (0x0A) via the Tx pin.
 236:Generated_Source\PSoC4/SW_Tx_UART_1.c **** *
 237:Generated_Source\PSoC4/SW_Tx_UART_1.c **** * Parameters:
 238:Generated_Source\PSoC4/SW_Tx_UART_1.c **** *  None
ARM GAS  C:\Users\SHOZO\AppData\Local\Temp\cccf7VlP.s 			page 11


 239:Generated_Source\PSoC4/SW_Tx_UART_1.c **** *
 240:Generated_Source\PSoC4/SW_Tx_UART_1.c **** * Return:
 241:Generated_Source\PSoC4/SW_Tx_UART_1.c **** *  None
 242:Generated_Source\PSoC4/SW_Tx_UART_1.c **** *
 243:Generated_Source\PSoC4/SW_Tx_UART_1.c **** *******************************************************************************/
 244:Generated_Source\PSoC4/SW_Tx_UART_1.c **** void SW_Tx_UART_1_PutCRLF(void) 
 245:Generated_Source\PSoC4/SW_Tx_UART_1.c **** {
 330              		.loc 1 245 0
 331              		.cfi_startproc
 332              		@ args = 0, pretend = 0, frame = 0
 333              		@ frame_needed = 1, uses_anonymous_args = 0
 334 0000 80B5     		push	{r7, lr}
 335              		.cfi_def_cfa_offset 8
 336              		.cfi_offset 7, -8
 337              		.cfi_offset 14, -4
 338 0002 00AF     		add	r7, sp, #0
 339              		.cfi_def_cfa_register 7
 246:Generated_Source\PSoC4/SW_Tx_UART_1.c ****     SW_Tx_UART_1_PutChar(0x0Du);
 340              		.loc 1 246 0
 341 0004 0D20     		movs	r0, #13
 342 0006 FFF7FEFF 		bl	SW_Tx_UART_1_PutChar
 247:Generated_Source\PSoC4/SW_Tx_UART_1.c ****     SW_Tx_UART_1_PutChar(0x0Au);
 343              		.loc 1 247 0
 344 000a 0A20     		movs	r0, #10
 345 000c FFF7FEFF 		bl	SW_Tx_UART_1_PutChar
 248:Generated_Source\PSoC4/SW_Tx_UART_1.c **** }
 346              		.loc 1 248 0
 347 0010 C046     		nop
 348 0012 BD46     		mov	sp, r7
 349              		@ sp needed
 350 0014 80BD     		pop	{r7, pc}
 351              		.cfi_endproc
 352              	.LFE6:
 353              		.size	SW_Tx_UART_1_PutCRLF, .-SW_Tx_UART_1_PutCRLF
 354 0016 C046     		.section	.rodata
 355              		.align	2
 356              		.type	SW_Tx_UART_1_hex.4276, %object
 357              		.size	SW_Tx_UART_1_hex.4276, 17
 358              	SW_Tx_UART_1_hex.4276:
 359 0000 30313233 		.ascii	"0123456789ABCDEF\000"
 359      34353637 
 359      38394142 
 359      43444546 
 359      00
 360              		.text
 361              	.Letext0:
 362              		.file 2 "Generated_Source\\PSoC4\\cytypes.h"